	.arch armv7-a
	.eabi_attribute 28, 1
	.eabi_attribute 19, 1
	.eabi_attribute 20, 1
	.eabi_attribute 21, 1
	.eabi_attribute 23, 3
	.eabi_attribute 24, 1
	.eabi_attribute 25, 1
	.eabi_attribute 26, 2
	.eabi_attribute 30, 6
	.eabi_attribute 34, 1
	.eabi_attribute 18, 4
	.file	"xfont.c"
	.text
.Ltext0:
	.cfi_sections	.debug_frame
	.data
	.align	2
	.type	_ZN5XFONT15DEFAULT_FONT_0$E, %object
	.size	_ZN5XFONT15DEFAULT_FONT_0$E, 15262
_ZN5XFONT15DEFAULT_FONT_0$E:
	.ascii	"XF\000\000\000\000\000\000\000\000\000\000\000\000\000"
	.ascii	"\000\000\000\000\000\000\000\026xfont lib default f"
	.ascii	"ont\000\000\000\000\000\000\000\000\000\000\000\000"
	.ascii	"\000\000\000\000\000\000\000\000\000\000\000\000\000"
	.ascii	"\000\000\000\000\000\000\000\000\000\000\000\000\000"
	.ascii	"\000\000\000\000\000\000\000\000\000\000\000\000\000"
	.ascii	"\000\000\000\000\000\000\000\000\000\000\000\000\000"
	.ascii	"\000\000\000\000\000\000\000\000\000\000\000\000\000"
	.ascii	"\000\000\000\000\000\000\000\000\000\000\000\000\000"
	.ascii	"\000\000\000\000\000\000\000\000\000\000\000\000\000"
	.ascii	"\000\000\000\000\000\000\000\000\000\000\000\000\000"
	.ascii	"\000\000\000\000\000\000\000\000\000\000\000\000\000"
	.ascii	"\000\000\000\000\000\000\000\000\000\000\000\000\000"
	.ascii	"\000\000\000\000\000\000\000\000\000\000\000\000\000"
	.ascii	"\000\000\000\000\000\000\000\000\000\000\000\000\000"
	.ascii	"\000\000\000\007Default\000\000\000\000\000\000\000"
	.ascii	"\000\000\000\000\000\000\000\000\000\000\000\000\000"
	.ascii	"\000\000\000\000\000\000\000\000\000\000\000\000\000"
	.ascii	"\000\000\000\000\000\000\000\000\000\000\000\000\000"
	.ascii	"\000\000\000\000\000\000\000\000\000\000\000\000\000"
	.ascii	"\000\000\000\000\000\000\000\000\000\000\000\000\000"
	.ascii	"\000\000\000\000\000\000\000\000\000\000\000\000\000"
	.ascii	"\000\000\000\000\000\000\000\000\000\000\000\000\000"
	.ascii	"\000\000\000\000\000\000\000\000\000\000\000\000\000"
	.ascii	"\000\000\000\000\000\000\000\000\000\000\000\000\000"
	.ascii	"\000\000\000\000\000\000\000\000\000\000\000\000\000"
	.ascii	"\000\000\000\000\000\000\000\000\000\000\000\000\000"
	.ascii	"\000\000\000\000\000\000\000\000\000\000\000\000\000"
	.ascii	"\000\000\000\000\000\000\000\000\000\000\000\000\000"
	.ascii	"\000\000\000\000\000\000\000\000\000\000\017\000\027"
	.ascii	"\000\000\000\010\001\000\000\000\377\000\000\000\000"
	.ascii	"\000\275\001\000\000 \000\000\000\000\000\335\001\000"
	.ascii	"\000\3019\000\000\000\000\000\200\377\377\377\377\377"
	.ascii	"\377\377\377\377\377\377?\000\000\000\200\377\377\377"
	.ascii	"\377\377\377\377\377\377\377\377\177\000\000\000\000"
	.ascii	"\000\000\000\000\000\000\004\000\000\000\000\000\000"
	.ascii	"\000\000\000\002\000\002\000\005\000\001\000\013\000"
	.ascii	"\000\000\000\000\000\000\000\000\377\000\000\004\000"
	.ascii	"\001\000\005\000\003\000\004\000\000\377\000\000\377"
	.ascii	"\000\000\377\000\000\377\000\010\000\000\000\006\000"
	.ascii	"\010\000\012\000\377\377\377\000\377\377\000\377\377"
	.ascii	"\377\377\000\377\377\000\377\377\000\000\000\000\000"
	.ascii	"\000\000\377\377\000\377\377\000\377\377\377\377\000"
	.ascii	"\377\377\000\377\377\377\377\000\377\377\000\377\377"
	.ascii	"\000\000\000\000\000\000\000\000\377\000\377\377\000"
	.ascii	"\377\377\377\377\000\377\377\000\377\377\377\377\000"
	.ascii	"\377\377\000\377\377\377\007\000\001\000\004\000\006"
	.ascii	"\000\016\000\377\377\377\000\377\377\377\000\000\000"
	.ascii	"\000\377\000\377\377\000\377\000\000\377\377\000\377"
	.ascii	"\000\000\377\377\000\377\377\377\000\377\000\377\377"
	.ascii	"\377\377\000\000\000\377\377\377\377\000\377\000\377"
	.ascii	"\377\377\000\377\000\000\377\377\000\377\000\000\377"
	.ascii	"\377\000\377\000\377\000\000\000\000\377\377\377\377"
	.ascii	"\000\377\377\377\377\377\000\377\377\015\000\000\000"
	.ascii	"\005\000\015\000\013\000\377\377\377\377\377\377\377"
	.ascii	"\377\377\000\377\377\377\377\000\000\000\377\377\377"
	.ascii	"\377\000\377\377\377\377\000\377\377\377\000\377\377"
	.ascii	"\377\000\377\377\377\377\000\377\377\377\000\000\377"
	.ascii	"\000\377\377\377\377\377\000\377\377\377\000\377\377"
	.ascii	"\000\377\377\377\377\377\377\000\000\000\377\377\000"
	.ascii	"\377\377\377\377\377\377\377\377\377\377\377\377\000"
	.ascii	"\377\377\000\000\000\377\377\377\377\377\377\000\377"
	.ascii	"\377\000\377\377\377\000\377\377\377\377\377\000\377"
	.ascii	"\377\000\377\377\377\000\377\377\377\377\000\377\377"
	.ascii	"\377\000\377\377\377\000\377\377\377\000\377\377\377"
	.ascii	"\377\377\000\000\000\377\011\000\001\000\005\000\011"
	.ascii	"\000\013\000\377\377\000\000\000\377\377\377\377\377"
	.ascii	"\000\000\377\377\000\377\377\377\377\000\377\377\377"
	.ascii	"\000\377\377\377\377\000\000\377\000\000\377\377\377"
	.ascii	"\377\377\000\000\000\377\377\377\377\377\000\000\000"
	.ascii	"\377\377\377\377\377\000\000\377\000\000\377\377\000"
	.ascii	"\377\000\377\377\377\000\000\000\000\377\000\377\377"
	.ascii	"\377\377\000\000\377\377\000\000\377\377\000\000\000"
	.ascii	"\000\377\377\000\000\000\000\377\377\000\000\002\000"
	.ascii	"\001\000\005\000\001\000\004\000\000\000\000\000\004"
	.ascii	"\000\001\000\005\000\003\000\016\000\377\377\000\377"
	.ascii	"\000\377\377\000\377\000\377\377\000\377\377\000\377"
	.ascii	"\377\000\377\377\000\377\377\000\377\377\000\377\377"
	.ascii	"\000\377\377\377\000\377\377\000\377\377\377\000\004"
	.ascii	"\000\001\000\005\000\003\000\016\000\000\377\377\377"
	.ascii	"\000\377\377\000\377\377\000\377\377\377\000\377\377"
	.ascii	"\000\377\377\000\377\377\000\377\377\000\377\377\000"
	.ascii	"\377\000\377\377\000\377\377\000\377\000\377\377\005"
	.ascii	"\000\001\000\005\000\004\000\004\000\377\000\377\377"
	.ascii	"\000\000\000\000\377\000\000\377\000\377\000\000\010"
	.ascii	"\000\001\000\011\000\007\000\007\000\377\377\377\000"
	.ascii	"\377\377\377\377\377\377\000\377\377\377\377\377\377"
	.ascii	"\000\377\377\377\000\000\000\000\000\000\000\377\377"
	.ascii	"\377\000\377\377\377\377\377\377\000\377\377\377\377"
	.ascii	"\377\377\000\377\377\377\003\000\001\000\016\000\002"
	.ascii	"\000\005\000\000\000\000\000\377\000\377\000\000\377"
	.ascii	"\004\000\001\000\013\000\004\000\001\000\000\000\000"
	.ascii	"\000\003\000\001\000\016\000\002\000\002\000\000\000"
	.ascii	"\000\000\004\000\000\000\005\000\004\000\013\000\377"
	.ascii	"\377\377\000\377\377\377\000\377\377\000\377\377\377"
	.ascii	"\000\377\377\377\000\377\377\000\377\377\377\000\377"
	.ascii	"\377\377\000\377\377\000\377\377\377\000\377\377\377"
	.ascii	"\000\377\377\377\007\000\001\000\010\000\007\000\010"
	.ascii	"\000\377\377\000\000\000\377\377\377\000\377\377\377"
	.ascii	"\000\377\000\377\377\377\377\377\000\000\377\377\377"
	.ascii	"\377\377\000\000\377\377\377\377\377\000\000\377\377"
	.ascii	"\377\377\377\000\377\000\377\377\377\000\377\377\377"
	.ascii	"\000\000\000\377\377\004\000\001\000\010\000\003\000"
	.ascii	"\010\000\377\377\000\000\000\000\377\377\000\377\377"
	.ascii	"\000\377\377\000\377\377\000\377\377\000\377\377\000"
	.ascii	"\007\000\001\000\010\000\006\000\010\000\377\000\000"
	.ascii	"\000\000\377\000\377\377\377\377\000\000\377\377\377"
	.ascii	"\377\000\377\377\377\377\377\000\377\377\377\000\000"
	.ascii	"\377\377\000\000\377\377\377\000\377\377\377\377\377"
	.ascii	"\000\000\000\000\000\000\007\000\001\000\010\000\007"
	.ascii	"\000\010\000\377\000\000\000\000\000\377\000\377\377"
	.ascii	"\377\377\377\000\377\377\377\377\377\377\000\377\377"
	.ascii	"\377\000\000\000\377\377\377\377\377\377\377\000\000"
	.ascii	"\377\377\377\377\377\000\000\377\377\377\377\377\000"
	.ascii	"\377\000\000\000\000\000\377\007\000\001\000\010\000"
	.ascii	"\006\000\010\000\377\377\377\377\000\377\377\377\377"
	.ascii	"\000\000\377\377\377\000\377\000\377\377\000\377\377"
	.ascii	"\000\377\000\377\377\377\000\377\000\000\000\000\000"
	.ascii	"\000\377\377\377\377\000\377\377\377\377\377\000\377"
	.ascii	"\007\000\001\000\010\000\007\000\010\000\377\000\000"
	.ascii	"\000\000\000\000\377\000\377\377\377\377\377\000\000"
	.ascii	"\000\000\000\000\377\000\377\377\377\377\377\000\377"
	.ascii	"\377\377\377\377\377\000\377\377\377\377\377\377\000"
	.ascii	"\000\377\377\377\377\377\000\377\000\000\000\000\000"
	.ascii	"\377\007\000\001\000\010\000\007\000\010\000\377\377"
	.ascii	"\000\000\000\000\377\377\000\377\377\377\377\000\000"
	.ascii	"\377\377\377\377\377\377\000\377\000\000\000\000\377"
	.ascii	"\000\000\377\377\377\377\000\000\377\377\377\377\377"
	.ascii	"\000\377\000\377\377\377\000\377\377\377\000\000\000"
	.ascii	"\377\377\007\000\001\000\010\000\006\000\010\000\000"
	.ascii	"\000\000\000\000\000\377\377\377\377\377\000\377\377"
	.ascii	"\377\377\000\377\377\377\377\000\377\377\377\377\000"
	.ascii	"\377\377\377\377\377\000\377\377\377\377\377\000\377"
	.ascii	"\377\377\377\000\377\377\377\377\007\000\001\000\010"
	.ascii	"\000\007\000\010\000\377\000\000\000\000\000\377\000"
	.ascii	"\377\377\377\377\377\000\000\377\377\377\377\377\000"
	.ascii	"\377\000\000\000\000\000\377\000\377\377\377\377\377"
	.ascii	"\000\000\377\377\377\377\377\000\000\377\377\377\377"
	.ascii	"\377\000\377\000\000\000\000\000\377\007\000\001\000"
	.ascii	"\010\000\007\000\010\000\377\000\000\000\000\000\377"
	.ascii	"\000\377\377\377\377\377\000\000\377\377\377\377\377"
	.ascii	"\000\000\377\377\377\377\000\000\377\000\000\000\000"
	.ascii	"\377\000\377\377\377\377\377\377\000\000\377\377\377"
	.ascii	"\377\000\377\377\000\000\000\000\377\377\002\000\002"
	.ascii	"\000\007\000\002\000\011\000\000\000\000\000\377\377"
	.ascii	"\377\377\377\377\377\377\377\377\000\000\000\000\002"
	.ascii	"\000\002\000\007\000\002\000\014\000\000\000\000\000"
	.ascii	"\377\377\377\377\377\377\377\377\377\377\000\000\000"
	.ascii	"\000\377\000\377\000\000\377\010\000\001\000\011\000"
	.ascii	"\007\000\007\000\377\377\377\377\377\377\000\377\377"
	.ascii	"\377\000\000\000\377\377\000\000\377\377\377\377\000"
	.ascii	"\377\377\377\377\377\377\377\000\000\377\377"
	.ascii	"\377\377\377\377\377\000\000\000\377\377\377\377\377"
	.ascii	"\377\377\000\010\000\001\000\012\000\007\000\004\000"
	.ascii	"\000\000\000\000\000\000\000\377\377\377\377\377\377"
	.ascii	"\377\377\377\377\377\377\377\377\000\000\000\000\000"
	.ascii	"\000\000\010\000\001\000\011\000\007\000\007\000\000"
	.ascii	"\377\377\377\377\377\377\377\000\000\000\377\377\377"
	.ascii	"\377\377\377\377\000\000\377\377\377\377\377\377\377"
	.ascii	"\000\377\377\377\377\000\000\377\377\000\000\000\377"
	.ascii	"\377\377\000\377\377\377\377\377\377\007\000\001\000"
	.ascii	"\005\000\007\000\013\000\377\377\000\000\000\377\377"
	.ascii	"\377\000\377\377\377\000\377\000\377\377\377\377\377"
	.ascii	"\000\377\377\377\377\377\377\000\377\377\377\377\377"
	.ascii	"\000\377\377\377\377\377\000\377\377\377\377\377\000"
	.ascii	"\377\377\377\377\377\377\000\377\377\377\377\377\377"
	.ascii	"\377\377\377\377\377\377\377\000\377\377\377\377\377"
	.ascii	"\377\000\377\377\377\016\000\001\000\005\000\015\000"
	.ascii	"\015\000\377\377\377\377\000\000\000\000\000\377\377"
	.ascii	"\377\377\377\377\377\000\377\377\377\377\377\000\000"
	.ascii	"\377\377\377\377\000\377\377\377\377\377\377\377\377"
	.ascii	"\000\377\377\000\377\377\377\000\000\000\377\000\377"
	.ascii	"\000\000\000\000\377\377\000\377\377\377\000\000\377"
	.ascii	"\377\000\000\377\377\000\377\377\377\377\000\000\377"
	.ascii	"\377\000\000\377\377\000\377\377\377\377\000\377\377"
	.ascii	"\377\000\000\377\377\000\377\377\377\377\000\377\377"
	.ascii	"\000\000\000\377\377\000\377\377\377\000\000\377\377"
	.ascii	"\000\377\000\000\377\377\000\000\000\377\000\000\000"
	.ascii	"\377\377\377\000\000\377\377\377\377\377\377\377\377"
	.ascii	"\377\377\377\377\000\000\377\377\377\377\377\377\377"
	.ascii	"\377\377\377\377\377\377\000\000\000\000\000\000\377"
	.ascii	"\377\377\011\000\001\000\005\000\011\000\013\000\377"
	.ascii	"\377\377\377\000\377\377\377\377\377\377\377\377\000"
	.ascii	"\377\377\377\377\377\377\377\000\377\000\377\377\377"
	.ascii	"\377\377\377\000\377\000\377\377\377\377\377\377\000"
	.ascii	"\377\000\377\377\377\377\377\000\377\377\377\000\377"
	.ascii	"\377\377\377\000\377\377\377\000\377\377\377\000\000"
	.ascii	"\000\000\000\000\000\377\377\000\377\377\377\377\377"
	.ascii	"\000\377\377\000\377\377\377\377\377\000\377\000\377"
	.ascii	"\377\377\377\377\377\377\000\011\000\001\000\005\000"
	.ascii	"\010\000\013\000\000\000\000\000\000\000\377\377\000"
	.ascii	"\377\377\377\377\377\000\377\000\377\377\377\377\377"
	.ascii	"\377\000\000\377\377\377\377\377\377\000\000\377\377"
	.ascii	"\377\377\377\000\377\000\000\000\000\000\000\377\377"
	.ascii	"\000\377\377\377\377\377\000\377\000\377\377\377\377"
	.ascii	"\377\377\000\000\377\377\377\377\377\377\000\000\377"
	.ascii	"\377\377\377\377\000\377\000\000\000\000\000\000\377"
	.ascii	"\377\012\000\001\000\005\000\011\000\013\000\377\377"
	.ascii	"\377\000\000\000\000\377\377\377\377\000\377\377\377"
	.ascii	"\377\000\377\377\000\377\377\377\377\377\377\000\000"
	.ascii	"\377\377\377\377\377\377\377\377\000\377\377\377\377"
	.ascii	"\377\377\377\377\000\377\377\377\377\377\377\377\377"
	.ascii	"\000\377\377\377\377\377\377\377\377\000\377\377\377"
	.ascii	"\377\377\377\377\377\377\000\377\377\377\377\377\377"
	.ascii	"\000\377\377\000\377\377\377\377\000\377\377\377\377"
	.ascii	"\000\000\000\000\377\377\012\000\001\000\005\000\011"
	.ascii	"\000\013\000\000\000\000\000\000\000\377\377\377\000"
	.ascii	"\377\377\377\377\377\000\377\377\000\377\377\377\377"
	.ascii	"\377\377\000\377\000\377\377\377\377\377\377\377\000"
	.ascii	"\000\377\377\377\377\377\377\377\000\000\377\377\377"
	.ascii	"\377\377\377\377\000\000\377\377\377\377\377\377\377"
	.ascii	"\000\000\377\377\377\377\377\377\377\000\000\377\377"
	.ascii	"\377\377\377\377\000\377\000\377\377\377\377\377\000"
	.ascii	"\377\377\000\000\000\000\000\000\377\377\377\011\000"
	.ascii	"\001\000\005\000\010\000\013\000\000\000\000\000\000"
	.ascii	"\000\000\000\000\377\377\377\377\377\377\377\000\377"
	.ascii	"\377\377\377\377\377\377\000\377\377\377\377\377\377"
	.ascii	"\377\000\377\377\377\377\377\377\377\000\000\000\000"
	.ascii	"\000\000\000\000\000\377\377\377\377\377\377\377\000"
	.ascii	"\377\377\377\377\377\377\377\000\377\377\377\377\377"
	.ascii	"\377\377\000\377\377\377\377\377\377\377\000\000\000"
	.ascii	"\000\000\000\000\000\010\000\001\000\005\000\010\000"
	.ascii	"\013\000\000\000\000\000\000\000\000\000\000\377\377"
	.ascii	"\377\377\377\377\377\000\377\377\377\377\377\377\377"
	.ascii	"\000\377\377\377\377\377\377\377\000\377\377\377\377"
	.ascii	"\377\377\377\000\000\000\000\000\000\000\377\000\377"
	.ascii	"\377\377\377\377\377\377\000\377\377\377\377\377\377"
	.ascii	"\377\000\377\377\377\377\377\377\377\000\377\377\377"
	.ascii	"\377\377\377\377\000\377\377\377\377\377\377\377\013"
	.ascii	"\000\001\000\005\000\012\000\013\000\377\377\377\000"
	.ascii	"\000\000\000\000\377\377\377\377\000\377\377\377\377"
	.ascii	"\377\000\377\377\000\377\377\377\377\377\377\377\000"
	.ascii	"\000\377\377\377\377\377\377\377\377\377\000\377\377"
	.ascii	"\377\377\377\377\377\377\377\000\377\377\377\377\000"
	.ascii	"\000\000\000\000\000\377\377\377\377\377\377\377\377"
	.ascii	"\000\000\377\377\377\377\377\377\377\377\000\377\000"
	.ascii	"\377\377\377\377\377\377\377\000\377\377\000\377\377"
	.ascii	"\377\377\377\000\000\377\377\377\000\000\000\000\000"
	.ascii	"\377\000\012\000\001\000\005\000\011\000\013\000\000"
	.ascii	"\377\377\377\377\377\377\377\000\000\377\377\377\377"
	.ascii	"\377\377\377\000\000\377\377\377\377\377\377\377\000"
	.ascii	"\000\377\377\377\377\377\377\377\000\000\377\377\377"
	.ascii	"\377\377\377\377\000\000\000\000\000\000\000\000\000"
	.ascii	"\000\000\377\377\377\377\377\377\377\000\000\377\377"
	.ascii	"\377\377\377\377\377\000\000\377\377\377\377\377\377"
	.ascii	"\377\000\000\377\377\377\377\377\377\377\000\000\377"
	.ascii	"\377\377\377\377\377\377\000\002\000\002\000\005\000"
	.ascii	"\001\000\013\000\000\000\000\000\000\000\000\000\000"
	.ascii	"\000\000\007\000\001\000\005\000\006\000\013\000\377"
	.ascii	"\377\377\377\377\000\377\377\377\377\377\000\377\377"
	.ascii	"\377\377\377\000\377\377\377\377\377\000\377\377\377"
	.ascii	"\377\377\000\377\377\377\377\377\000\377\377\377\377"
	.ascii	"\377\000\000\377\377\377\377\000\000\377\377\377\377"
	.ascii	"\000\000\377\377\377\377\000\377\000\000\000\000\377"
	.ascii	"\011\000\001\000\005\000\010\000\013\000\000\377\377"
	.ascii	"\377\377\377\000\000\000\377\377\377\377\000\377\377"
	.ascii	"\000\377\377\377\000\377\377\377\000\377\377\000\377"
	.ascii	"\377\377\377\000\377\000\000\377\377\377\377\000\000"
	.ascii	"\377\377\000\377\377\377\000\377\377\377\000\377\377"
	.ascii	"\377\000\377\377\377\377\000\377\377\000\377\377\377"
	.ascii	"\377\000\377\377\000\377\377\377\377\377\000\377\000"
	.ascii	"\377\377\377\377\377\377\000\007\000\001\000\005\000"
	.ascii	"\007\000\013\000\000\377\377\377\377\377\377\000\377"
	.ascii	"\377\377\377\377\377\000\377\377\377\377\377\377\000"
	.ascii	"\377\377\377\377\377\377\000\377\377\377\377\377\377"
	.ascii	"\000\377\377\377\377\377\377\000\377\377\377\377\377"
	.ascii	"\377\000\377\377\377\377\377\377\000\377\377\377\377"
	.ascii	"\377\377\000\377\377\377\377\377\377\000\000\000\000"
	.ascii	"\000\000\000\012\000\001\000\005\000\011\000\013\000"
	.ascii	"\000\377\377\377\377\377\377\377\000\000\000\377\377"
	.ascii	"\377\377\377\000\000\000\000\377\377\377\377\377\000"
	.ascii	"\000\000\377\000\377\377\377\000\377\000\000\377\000"
	.ascii	"\377\377\377\000\377\000\000\377\000\377\377\377\000"
	.ascii	"\377\000\000\377\377\000\377\000\377\377\000\000\377"
	.ascii	"\377\000\377\000\377\377\000\000\377\377\000\377\000"
	.ascii	"\377\377\000\000\377\377\377\000\377\377\377\000\000"
	.ascii	"\377\377\377\000\377\377\377\000\012\000\001\000\005"
	.ascii	"\000\011\000\013\000\000\377\377\377\377\377\377\377"
	.ascii	"\000\000\000\377\377\377\377\377\377\000\000\377\000"
	.ascii	"\377\377\377\377\377\000\000\377\000\377\377\377\377"
	.ascii	"\377\000\000\377\377\000\377\377\377\377\000\000\377"
	.ascii	"\377\377\000\377\377\377\000\000\377\377\377\377\000"
	.ascii	"\377\377\000\000\377\377\377\377\000\377\377\000\000"
	.ascii	"\377\377\377\377\377\000\377\000\000\377\377\377\377"
	.ascii	"\377\377\000\000\000\377\377\377\377\377\377\377\000"
	.ascii	"\013\000\001\000\005\000\012\000\013\000\377\377\377"
	.ascii	"\000\000\000\000\377\377\377\377\377\000\377\377\377"
	.ascii	"\377\000\377\377\377\000\377\377\377\377\377\377\000"
	.ascii	"\377\000\377\377\377\377\377\377\377\377\000\000\377"
	.ascii	"\377\377\377\377\377\377\377\000\000\377\377\377\377"
	.ascii	"\377\377\377\377\000\000\377\377\377\377\377\377\377"
	.ascii	"\377\000\000\377\377\377\377\377\377\377\377\000\377"
	.ascii	"\000\377\377\377\377\377\377\000\377\377\377\000\377"
	.ascii	"\377\377\377\000\377\377\377\377\377\000\000\000\000"
	.ascii	"\377\377\377\011\000\001\000\005\000\010\000\013\000"
	.ascii	"\000\000\000\000\000\000\000\377\000\377\377\377\377"
	.ascii	"\377\377\000\000\377\377\377\377\377\377\000\000\377"
	.ascii	"\377\377\377\377\377\000\000\377\377\377\377\377\377"
	.ascii	"\000\000\000\000\000\000\000\000\377\000\377\377\377"
	.ascii	"\377\377\377\377\000\377\377\377\377\377\377\377\000"
	.ascii	"\377\377\377\377\377\377\377\000\377\377\377\377\377"
	.ascii	"\377\377\000\377\377\377\377\377\377\377\013\000\001"
	.ascii	"\000\005\000\012\000\013\000\377\377\377\000\000\000"
	.ascii	"\000\377\377\377\377\377\000\377\377\377\377\000\377"
	.ascii	"\377\377\000\377\377\377\377\377\377\000\377\000\377"
	.ascii	"\377\377\377\377\377\377\377\000\000\377\377"
	.ascii	"\377\377\377\377\377\377\000\000\377\377\377\377\377"
	.ascii	"\377\377\377\000\000\377\377\377\377\377\377\377\377"
	.ascii	"\000\000\377\377\377\377\377\377\377\377\000\377\000"
	.ascii	"\377\377\377\377\000\377\000\377\377\377\000\377\377"
	.ascii	"\377\377\000\377\377\377\377\377\000\000\000\000\377"
	.ascii	"\000\000\012\000\001\000\005\000\012\000\013\000\000"
	.ascii	"\000\000\000\000\000\000\377\377\377\000\377\377\377"
	.ascii	"\377\377\377\000\377\377\000\377\377\377\377\377\377"
	.ascii	"\377\000\377\000\377\377\377\377\377\377\377\000\377"
	.ascii	"\000\377\377\377\377\377\377\000\377\377\000\000\000"
	.ascii	"\000\000\000\000\377\377\377\000\377\377\377\377\377"
	.ascii	"\377\000\377\377\000\377\377\377\377\377\377\377\000"
	.ascii	"\377\000\377\377\377\377\377\377\377\000\377\000\377"
	.ascii	"\377\377\377\377\377\377\000\377\000\377\377\377\377"
	.ascii	"\377\377\377\377\000\011\000\001\000\005\000\010\000"
	.ascii	"\013\000\377\377\000\000\000\000\377\377\377\000\377"
	.ascii	"\377\377\377\000\377\000\377\377\377\377\377\377\000"
	.ascii	"\000\377\377\377\377\377\377\377\377\000\377\377\377"
	.ascii	"\377\377\377\377\377\000\000\000\000\377\377\377\377"
	.ascii	"\377\377\377\377\000\377\000\377\377\377\377\377\377"
	.ascii	"\000\000\377\377\377\377\377\377\000\377\000\377\377"
	.ascii	"\377\377\000\377\377\377\000\000\000\000\377\377\011"
	.ascii	"\000\000\000\005\000\011\000\013\000\000\000\000\000"
	.ascii	"\000\000\000\000\000\377\377\377\377\000\377\377\377"
	.ascii	"\377\377\377\377\377\000\377\377\377\377\377\377\377"
	.ascii	"\377\000\377\377\377\377\377\377\377\377\000\377\377"
	.ascii	"\377\377\377\377\377\377\000\377\377\377\377\377\377"
	.ascii	"\377\377\000\377\377\377\377\377\377\377\377\000\377"
	.ascii	"\377\377\377\377\377\377\377\000\377\377\377\377\377"
	.ascii	"\377\377\377\000\377\377\377\377\377\377\377\377\000"
	.ascii	"\377\377\377\377\012\000\001\000\005\000\011\000\013"
	.ascii	"\000\000\377\377\377\377\377\377\377\000\000\377\377"
	.ascii	"\377\377\377\377\377\000\000\377\377\377\377\377\377"
	.ascii	"\377\000\000\377\377\377\377\377\377\377\000\000\377"
	.ascii	"\377\377\377\377\377\377\000\000\377\377\377\377\377"
	.ascii	"\377\377\000\000\377\377\377\377\377\377\377\000\000"
	.ascii	"\377\377\377\377\377\377\377\000\000\377\377\377\377"
	.ascii	"\377\377\377\000\377\000\377\377\377\377\377\000\377"
	.ascii	"\377\377\000\000\000\000\000\377\377\011\000\001\000"
	.ascii	"\005\000\011\000\013\000\000\377\377\377\377\377\377"
	.ascii	"\377\000\377\000\377\377\377\377\377\000\377\377\000"
	.ascii	"\377\377\377\377\377\000\377\377\000\377\377\377\377"
	.ascii	"\377\000\377\377\377\000\377\377\377\000\377\377\377"
	.ascii	"\377\000\377\377\377\000\377\377\377\377\000\377\377"
	.ascii	"\377\000\377\377\377\377\377\000\377\000\377\377\377"
	.ascii	"\377\377\377\000\377\000\377\377\377\377\377\377\000"
	.ascii	"\377\000\377\377\377\377\377\377\377\000\377\377\377"
	.ascii	"\377\015\000\001\000\005\000\015\000\013\000\000\377"
	.ascii	"\377\377\377\377\000\377\377\377\377\377\000\000\377"
	.ascii	"\377\377\377\377\000\377\377\377\377\377\000\377\000"
	.ascii	"\377\377\377\000\377\000\377\377\377\000\377\377\000"
	.ascii	"\377\377\377\000\377\000\377\377\377\000\377\377\000"
	.ascii	"\377\377\377\000\377\000\377\377\377\000\377\377\377"
	.ascii	"\000\377\000\377\377\377\000\377\000\377\377\377\377"
	.ascii	"\000\377\000\377\377\377\000\377\000\377\377\377\377"
	.ascii	"\000\377\000\377\377\377\000\377\000\377\377\377\377"
	.ascii	"\377\000\377\377\377\377\377\000\377\377\377\377\377"
	.ascii	"\377\000\377\377\377\377\377\000\377\377\377\377\377"
	.ascii	"\377\000\377\377\377\377\377\000\377\377\377\010\000"
	.ascii	"\002\000\005\000\007\000\013\000\000\377\377\377\377"
	.ascii	"\377\000\377\000\377\377\377\000\377\377\000\377\377"
	.ascii	"\377\000\377\377\377\000\377\000\377\377\377\377\000"
	.ascii	"\377\000\377\377\377\377\377\000\377\377\377\377\377"
	.ascii	"\000\377\000\377\377\377\377\000\377\000\377\377\377"
	.ascii	"\000\377\377\377\000\377\377\000\377\377\377\000\377"
	.ascii	"\000\377\377\377\377\377\000\012\000\000\000\005\000"
	.ascii	"\011\000\013\000\000\377\377\377\377\377\377\377\000"
	.ascii	"\377\000\377\377\377\377\377\000\377\377\000\377\377"
	.ascii	"\377\377\377\000\377\377\377\000\377\377\377\000\377"
	.ascii	"\377\377\377\377\000\377\000\377\377\377\377\377\377"
	.ascii	"\000\377\000\377\377\377\377\377\377\377\000\377\377"
	.ascii	"\377\377\377\377\377\377\000\377\377\377\377\377\377"
	.ascii	"\377\377\000\377\377\377\377\377\377\377\377\000\377"
	.ascii	"\377\377\377\377\377\377\377\000\377\377\377\377\010"
	.ascii	"\000\001\000\005\000\010\000\013\000\000\000\000\000"
	.ascii	"\000\000\000\000\377\377\377\377\377\377\377\000\377"
	.ascii	"\377\377\377\377\377\000\377\377\377\377\377\377\000"
	.ascii	"\377\377\377\377\377\377\000\377\377\377\377\377\377"
	.ascii	"\377\000\377\377\377\377\377\377\000\377\377\377\377"
	.ascii	"\377\377\000\377\377\377\377\377\377\000\377\377\377"
	.ascii	"\377\377\377\000\377\377\377\377\377\377\377\000\000"
	.ascii	"\000\000\000\000\000\000\003\000\001\000\005\000\003"
	.ascii	"\000\016\000\000\000\000\000\377\377\000\377\377\000"
	.ascii	"\377\377\000\377\377\000\377\377\000\377\377\000\377"
	.ascii	"\377\000\377\377\000\377\377\000\377\377\000\377\377"
	.ascii	"\000\377\377\000\000\000\004\000\000\000\005\000\004"
	.ascii	"\000\013\000\000\377\377\377\000\377\377\377\000\377"
	.ascii	"\377\377\377\000\377\377\377\000\377\377\377\000\377"
	.ascii	"\377\377\377\000\377\377\377\000\377\377\377\000\377"
	.ascii	"\377\377\377\000\377\377\377\000\004\000\000\000\005"
	.ascii	"\000\003\000\016\000\000\000\000\377\377\000\377\377"
	.ascii	"\000\377\377\000\377\377\000\377\377\000\377\377\000"
	.ascii	"\377\377\000\377\377\000\377\377\000\377\377\000\377"
	.ascii	"\377\000\377\377\000\000\000\000\006\000\001\000\005"
	.ascii	"\000\005\000\006\000\377\377\000\377\377\377\000\000"
	.ascii	"\000\377\377\000\377\000\377\377\000\377\000\377\000"
	.ascii	"\377\377\377\000\000\377\377\377\000\010\000\000\000"
	.ascii	"\022\000\011\000\001\000\000\000\000\000\000\000\000"
	.ascii	"\000\000\005\000\000\000\005\000\003\000\002\000\000"
	.ascii	"\000\377\377\377\000\007\000\001\000\010\000\007\000"
	.ascii	"\010\000\377\000\000\000\000\377\377\000\377\377\377"
	.ascii	"\377\000\377\377\377\377\377\377\000\377\377\000\000"
	.ascii	"\000\000\000\377\000\377\377\377\377\000\377\000\377"
	.ascii	"\377\377\377\000\377\000\377\377\377\000\000\377\377"
	.ascii	"\000\000\000\377\000\000\007\000\001\000\005\000\007"
	.ascii	"\000\013\000\000\377\377\377\377\377\377\000\377\377"
	.ascii	"\377\377\377\377\000\377\377\377\377\377\377\000\377"
	.ascii	"\000\000\000\377\377\000\000\377\377\377\000\377\000"
	.ascii	"\377\377\377\377\377\000\000\377\377\377\377\377\000"
	.ascii	"\000\377\377\377\377\377\000\000\377\377\377\377\377"
	.ascii	"\000\000\000\377\377\377\000\377\000\377\000\000\000"
	.ascii	"\377\377\010\000\000\000\010\000\010\000\010\000\377"
	.ascii	"\377\000\000\000\000\377\377\377\000\377\377\377\377"
	.ascii	"\000\377\000\377\377\377\377\377\377\000\000\377\377"
	.ascii	"\377\377\377\377\377\000\377\377\377\377\377\377\377"
	.ascii	"\000\377\377\377\377\377\377\000\377\000\377\377\377"
	.ascii	"\377\000\377\377\377\000\000\000\000\377\377\010\000"
	.ascii	"\000\000\005\000\007\000\013\000\377\377\377\377\377"
	.ascii	"\377\000\377\377\377\377\377\377\000\377\377\377\377"
	.ascii	"\377\377\000\377\377\000\000\000\377\000\377\000\377"
	.ascii	"\377\377\000\000\000\377\377\377\377\377\000\000\377"
	.ascii	"\377\377\377\377\000\000\377\377\377\377\377\000\000"
	.ascii	"\377\377\377\377\377\000\377\000\377\377\377\000\000"
	.ascii	"\377\377\000\000\000\377\000\007\000\001\000\010\000"
	.ascii	"\007\000\010\000\377\377\000\000\000\377\377\377\000"
	.ascii	"\377\377\377\000\377\000\377\377\377\377\377\000\000"
	.ascii	"\000\000\000\000\000\000\000\377\377\377\377\377\377"
	.ascii	"\000\377\377\377\377\377\000\377\000\377\377\377\000"
	.ascii	"\377\377\377\000\000\000\377\377\004\000\000\000\005"
	.ascii	"\000\004\000\013\000\377\377\000\000\377\000\377\377"
	.ascii	"\377\000\377\377\000\000\000\000\377\000\377\377\377"
	.ascii	"\000\377\377\377\000\377\377\377\000\377\377\377\000"
	.ascii	"\377\377\377\000\377\377\377\000\377\377\007\000\001"
	.ascii	"\000\010\000\007\000\013\000\377\377\000\000\000\377"
	.ascii	"\000\377\000\377\377\377\000\000\000\377\377\377\377"
	.ascii	"\377\000\000\377\377\377\377\377\000\000\377\377\377"
	.ascii	"\377\377\000\000\377\377\377\377\377\000\377\000\377"
	.ascii	"\377\377\000\000\377\377\000\000\000\377\000\377\377"
	.ascii	"\377\377\377\377\000\000\377\377\377\377\000\377\377"
	.ascii	"\000\000\000\000\377\377\007\000\001\000\005\000\006"
	.ascii	"\000\013\000\000\377\377\377\377\377\000\377\377\377"
	.ascii	"\377\377\000\377\377\377\377\377\000\377\000\000\000"
	.ascii	"\377\000\000\377\377\377\000\000\377\377\377\377\000"
	.ascii	"\000\377\377\377\377\000\000\377\377\377\377\000\000"
	.ascii	"\377\377\377\377\000\000\377\377\377\377\000\000\377"
	.ascii	"\377\377\377\000\002\000\001\000\005\000\001\000\013"
	.ascii	"\000\000\000\377\000\000\000\000\000\000\000\000\003"
	.ascii	"\000\000\000\004\000\002\000\017\000\377\000\377\000"
	.ascii	"\377\377\377\377\377\000\377\000\377\000\377\000\377"
	.ascii	"\000\377\000\377\000\377\000\377\000\377\000\000\377"
	.ascii	"\007\000\001\000\005\000\006\000\013\000\000\377\377"
	.ascii	"\377\377\377\000\377\377\377\377\377\000\377\377\377"
	.ascii	"\377\377\000\377\377\377\000\000\000\377\377\000\377"
	.ascii	"\377\000\377\000\377\377\377\000\000\377\377"
	.ascii	"\377\377\000\377\000\377\377\377\000\377\377\000\377"
	.ascii	"\377\000\377\377\377\000\377\000\377\377\377\377\000"
	.ascii	"\002\000\001\000\005\000\001\000\013\000\000\000\000"
	.ascii	"\000\000\000\000\000\000\000\000\014\000\001\000\010"
	.ascii	"\000\013\000\010\000\000\377\000\000\000\377\000\000"
	.ascii	"\000\000\377\000\000\377\377\377\000\377\377\377\377"
	.ascii	"\000\000\377\377\377\377\000\377\377\377\377\000\000"
	.ascii	"\377\377\377\377\000\377\377\377\377\000\000\377\377"
	.ascii	"\377\377\000\377\377\377\377\000\000\377\377\377\377"
	.ascii	"\000\377\377\377\377\000\000\377\377\377\377\000\377"
	.ascii	"\377\377\377\000\000\377\377\377\377\000\377\377\377"
	.ascii	"\377\000\007\000\001\000\010\000\006\000\010\000\000"
	.ascii	"\377\000\000\000\377\000\000\377\377\377\000\000\377"
	.ascii	"\377\377\377\000\000\377\377\377\377\000\000\377\377"
	.ascii	"\377\377\000\000\377\377\377\377\000\000\377\377\377"
	.ascii	"\377\000\000\377\377\377\377\000\007\000\001\000\010"
	.ascii	"\000\007\000\010\000\377\377\000\000\000\377\377\377"
	.ascii	"\000\377\377\377\000\377\000\377\377\377\377\377\000"
	.ascii	"\000\377\377\377\377\377\000\000\377\377\377\377\377"
	.ascii	"\000\000\377\377\377\377\377\000\377\000\377\377\377"
	.ascii	"\000\377\377\377\000\000\000\377\377\007\000\001\000"
	.ascii	"\010\000\007\000\013\000\000\377\000\000\000\377\377"
	.ascii	"\000\000\377\377\377\000\377\000\377\377\377\377\377"
	.ascii	"\000\000\377\377\377\377\377\000\000\377\377\377\377"
	.ascii	"\377\000\000\377\377\377\377\377\000\000\000\377\377"
	.ascii	"\377\000\377\000\377\000\000\000\377\377\000\377\377"
	.ascii	"\377\377\377\377\000\377\377\377\377\377\377\000\377"
	.ascii	"\377\377\377\377\377\010\000\000\000\010\000\007\000"
	.ascii	"\013\000\377\377\000\000\000\377\000\377\000\377\377"
	.ascii	"\377\000\000\000\377\377\377\377\377\000\000\377\377"
	.ascii	"\377\377\377\000\000\377\377\377\377\377\000\000\377"
	.ascii	"\377\377\377\377\000\377\000\377\377\377\000\000\377"
	.ascii	"\377\000\000\000\377\000\377\377\377\377\377\377\000"
	.ascii	"\377\377\377\377\377\377\000\377\377\377\377\377\377"
	.ascii	"\000\004\000\001\000\010\000\004\000\010\000\000\377"
	.ascii	"\000\000\000\000\377\377\000\377\377\377\000\377\377"
	.ascii	"\377\000\377\377\377\000\377\377\377\000\377\377\377"
	.ascii	"\000\377\377\377\007\000\001\000\010\000\006\000\010"
	.ascii	"\000\377\000\000\000\000\377\000\377\377\377\377\000"
	.ascii	"\000\377\377\377\377\377\377\000\000\377\377\377\377"
	.ascii	"\377\377\000\000\377\377\377\377\377\377\000\000\377"
	.ascii	"\377\377\377\000\377\000\000\000\000\377\004\000\000"
	.ascii	"\000\005\000\004\000\013\000\377\000\377\377\377\000"
	.ascii	"\377\377\377\000\377\377\000\000\000\000\377\000\377"
	.ascii	"\377\377\000\377\377\377\000\377\377\377\000\377\377"
	.ascii	"\377\000\377\377\377\000\377\377\377\377\000\000\007"
	.ascii	"\000\001\000\010\000\006\000\010\000\000\377\377\377"
	.ascii	"\377\000\000\377\377\377\377\000\000\377\377\377\377"
	.ascii	"\000\000\377\377\377\377\000\000\377\377\377\377\000"
	.ascii	"\000\377\377\377\377\000\000\377\377\377\000\000\377"
	.ascii	"\000\000\000\377\000\010\000\000\000\010\000\010\000"
	.ascii	"\010\000\000\377\377\377\377\377\377\000\377\000\377"
	.ascii	"\377\377\377\000\377\377\000\377\377\377\377\000\377"
	.ascii	"\377\377\000\377\377\000\377\377\377\377\000\377\377"
	.ascii	"\000\377\377\377\377\000\377\377\000\377\377\377\377"
	.ascii	"\377\000\000\377\377\377\377\377\377\000\000\377\377"
	.ascii	"\377\013\000\000\000\010\000\013\000\010\000\000\377"
	.ascii	"\377\377\377\000\377\377\377\377\000\377\000\377\377"
	.ascii	"\377\000\377\377\377\000\377\377\000\377\377\000\377"
	.ascii	"\000\377\377\000\377\377\000\377\377\000\377\000\377"
	.ascii	"\377\000\377\377\377\000\377\000\377\000\377\000\377"
	.ascii	"\377\377\377\000\377\000\377\000\377\000\377\377\377"
	.ascii	"\377\377\000\377\377\377\000\377\377\377\377\377\377"
	.ascii	"\000\377\377\377\000\377\377\377\007\000\001\000\010"
	.ascii	"\000\007\000\010\000\000\377\377\377\377\377\000\377"
	.ascii	"\000\377\377\377\000\377\377\377\000\377\000\377\377"
	.ascii	"\377\377\377\000\377\377\377\377\377\377\000\377\377"
	.ascii	"\377\377\377\000\377\000\377\377\377\000\377\377\377"
	.ascii	"\000\377\000\377\377\377\377\377\000\010\000\000\000"
	.ascii	"\010\000\010\000\013\000\000\377\377\377\377\377\377"
	.ascii	"\000\377\000\377\377\377\377\377\000\377\000\377\377"
	.ascii	"\377\377\000\377\377\377\000\377\377\377\000\377\377"
	.ascii	"\377\000\377\377\000\377\377\377\377\377\000\377\000"
	.ascii	"\377\377\377\377\377\000\377\000\377\377\377\377\377"
	.ascii	"\377\000\377\377\377\377\377\377\377\000\377\377\377"
	.ascii	"\377\377\377\377\000\377\377\377\377\000\000\000\377"
	.ascii	"\377\377\377\007\000\001\000\010\000\006\000\010\000"
	.ascii	"\000\000\000\000\000\000\377\377\377\377\377\000\377"
	.ascii	"\377\377\377\000\377\377\377\377\000\377\377\377\377"
	.ascii	"\000\377\377\377\377\000\377\377\377\377\000\377\377"
	.ascii	"\377\377\377\000\000\000\000\000\000\006\000\001\000"
	.ascii	"\005\000\006\000\015\000\377\377\377\000\000\000\377"
	.ascii	"\377\000\000\377\377\377\377\000\377\377\377\377\377"
	.ascii	"\000\377\377\377\377\377\000\377\377\377\377\377\000"
	.ascii	"\377\377\377\000\000\377\377\377\377\377\377\000\377"
	.ascii	"\377\377\377\377\000\377\377\377\377\377\000\377\377"
	.ascii	"\377\377\377\000\377\377\377\377\377\000\000\377\377"
	.ascii	"\377\377\377\000\000\000\002\000\001\000\006\000\001"
	.ascii	"\000\012\000\000\000\000\000\000\000\000\000\000\000"
	.ascii	"\006\000\001\000\005\000\005\000\015\000\000\000\377"
	.ascii	"\377\377\377\377\000\377\377\377\377\000\377\377\377"
	.ascii	"\377\000\377\377\377\377\000\377\377\377\377\000\377"
	.ascii	"\377\377\377\377\000\000\377\377\000\377\377\377\377"
	.ascii	"\000\377\377\377\377\000\377\377\377\377\000\377\377"
	.ascii	"\377\377\000\377\377\000\000\377\377\377\010\000\001"
	.ascii	"\000\013\000\007\000\003\000\000\000\000\377\377\377"
	.ascii	"\000\000\377\377\000\377\377\000\000\377\377\377\000"
	.ascii	"\000\000\004\000\000\000\000\000\000\000\000\000\003"
	.ascii	"\000\002\000\010\000\001\000\013\000\000\000\377\000"
	.ascii	"\000\000\000\000\000\000\000\010\000\001\000\011\000"
	.ascii	"\007\000\010\000\377\377\377\000\377\377\377\377\000"
	.ascii	"\000\000\000\000\377\000\000\377\000\377\377\000\000"
	.ascii	"\377\377\000\377\377\377\000\377\377\000\377\377\377"
	.ascii	"\000\000\377\000\377\000\000\377\000\000\000\000\000"
	.ascii	"\377\377\377\377\000\377\377\377\010\000\001\000\010"
	.ascii	"\000\007\000\010\000\377\000\000\000\000\000\377\000"
	.ascii	"\000\377\377\377\000\000\000\000\377\377\377\377\377"
	.ascii	"\377\000\377\377\377\377\377\000\377\000\000\000\377"
	.ascii	"\377\377\377\000\377\377\377\377\377\000\377\377\377"
	.ascii	"\377\377\000\000\000\000\000\000\000\007\000\001\000"
	.ascii	"\010\000\006\000\006\000\000\000\000\000\377\000\377"
	.ascii	"\000\377\377\000\000\000\000\377\377\377\000\000\000"
	.ascii	"\377\377\377\000\377\000\000\000\000\000\000\377\000"
	.ascii	"\000\377\000\010\000\001\000\010\000\007\000\010\000"
	.ascii	"\000\377\377\377\377\000\000\377\000\377\377\377\000"
	.ascii	"\377\377\377\000\377\000\377\377\377\377\000\000\000"
	.ascii	"\377\377\000\000\377\000\377\000\377\000\000\000\000"
	.ascii	"\000\000\377\377\377\377\000\377\377\377\377\377\377"
	.ascii	"\000\377\377\377\002\000\002\000\005\000\001\000\016"
	.ascii	"\000\000\000\000\000\000\000\377\377\000\000\000\000"
	.ascii	"\000\000\007\000\001\000\005\000\007\000\016\000\377"
	.ascii	"\377\000\000\000\377\377\377\000\377\377\000\000\377"
	.ascii	"\377\000\377\377\377\000\377\377\000\000\377\377\377"
	.ascii	"\377\377\000\000\000\377\377\377\000\377\377\000\000"
	.ascii	"\000\377\000\377\377\377\377\000\377\000\000\377\377"
	.ascii	"\377\000\000\377\000\000\377\377\000\377\377\377\000"
	.ascii	"\000\000\000\377\377\377\377\377\000\377\377\000\377"
	.ascii	"\377\377\000\000\377\000\000\377\377\000\000\377\377"
	.ascii	"\000\000\000\000\377\377\004\000\000\000\004\000\004"
	.ascii	"\000\002\000\000\377\377\000\000\377\377\000\010\000"
	.ascii	"\001\000\010\000\007\000\010\000\377\000\000\000\000"
	.ascii	"\000\377\000\377\377\000\377\000\377\000\377\000\377"
	.ascii	"\000\377\000\000\000\377\377\377\377\000\000\000\377"
	.ascii	"\377\000\377\000\000\377\000\377\000\377\000\000\377"
	.ascii	"\377\000\377\000\377\377\000\000\000\000\377\377\006"
	.ascii	"\000\000\000\005\000\005\000\006\000\377\377\377\000"
	.ascii	"\377\377\000\000\000\377\377\377\377\000\377\377\377"
	.ascii	"\000\000\377\000\000\377\000\377\377\000\000\000\000"
	.ascii	"\007\000\001\000\011\000\006\000\005\000\377\377\000"
	.ascii	"\377\377\000\377\000\000\377\000\000\000\000\377\377"
	.ascii	"\000\377\000\000\377\377\000\377\377\377\000\377\377"
	.ascii	"\000\005\000\001\000\013\000\004\000\001\000\000\000"
	.ascii	"\000\000\004\000\001\000\013\000\004\000\001\000\000"
	.ascii	"\000\000\000\010\000\001\000\010\000\007\000\010\000"
	.ascii	"\377\000\000\000\000\000\377\000\377\000\000\377\000"
	.ascii	"\377\000\377\000\377\000\377\000\000\377\000\377\000"
	.ascii	"\377\000\000\377\000\000\000\377\000\000\377\000\377"
	.ascii	"\000\377\000\000\377\377\377\377\000\377\377\000\000"
	.ascii	"\000\000\377\377\010\000\000\000\005\000\010\000\001"
	.ascii	"\000\000\000\000\000\000\000\000\000\005\000\001\000"
	.ascii	"\005\000\004\000\004\000\377\000\000\377\000\377\377"
	.ascii	"\000\000\377\377\000\377\000\000\377\012\000\002\000"
	.ascii	"\007\000\011\000\011\000\377\377\377\377\000\377\377"
	.ascii	"\377\377\377\377\377\377\000\377\377\377\377"
	.ascii	"\377\377\377\377\000\377\377\377\377\000\000\000\000"
	.ascii	"\000\000\000\000\000\377\377\377\377\000\377\377\377"
	.ascii	"\377\377\377\377\377\000\377\377\377\377\377\377\377"
	.ascii	"\377\377\377\377\377\377\377\377\377\377\377\377\377"
	.ascii	"\377\377\000\000\000\000\000\000\000\000\000\006\000"
	.ascii	"\000\000\005\000\004\000\005\000\000\000\000\000\377"
	.ascii	"\377\377\000\377\377\000\377\377\000\377\377\000\000"
	.ascii	"\000\000\006\000\000\000\005\000\004\000\005\000\000"
	.ascii	"\000\000\377\377\377\377\000\377\377\000\377\377\377"
	.ascii	"\377\000\000\000\000\000\003\000\375\377\005\000\002"
	.ascii	"\000\002\000\000\000\000\377\011\000\377\377\011\000"
	.ascii	"\011\000\012\000\377\377\000\000\377\377\377\000\377"
	.ascii	"\377\377\000\377\377\377\000\377\377\377\377\000\377"
	.ascii	"\377\377\000\377\377\377\377\000\377\377\377\000\377"
	.ascii	"\377\377\377\000\377\377\377\000\377\000\377\000\000"
	.ascii	"\377\377\000\000\377\000\377\000\377\000\000\377\000"
	.ascii	"\000\377\377\000\377\377\377\377\377\377\377\377\000"
	.ascii	"\377\377\377\377\377\377\377\000\377\377\377\377\377"
	.ascii	"\377\377\377\010\000\001\000\010\000\007\000\010\000"
	.ascii	"\000\000\000\000\000\000\000\000\377\000\377\377\000"
	.ascii	"\377\000\000\000\377\377\000\377\377\377\000\377\377"
	.ascii	"\000\377\377\377\000\377\377\000\377\377\377\000\377"
	.ascii	"\377\000\377\377\377\000\377\377\000\377\377\377\000"
	.ascii	"\377\377\000\377\004\000\001\000\011\000\002\000\002"
	.ascii	"\000\000\000\000\000\006\000\002\000\020\000\004\000"
	.ascii	"\003\000\377\000\377\377\377\377\000\000\000\000\000"
	.ascii	"\000\005\000\001\000\005\000\002\000\005\000\377\000"
	.ascii	"\000\000\377\000\377\000\377\000\006\000\000\000\005"
	.ascii	"\000\006\000\006\000\377\377\377\000\377\377\377\000"
	.ascii	"\000\377\000\377\000\377\377\377\377\000\000\377\377"
	.ascii	"\377\377\000\377\000\377\377\000\377\377\377\000\000"
	.ascii	"\377\377\007\000\001\000\011\000\006\000\005\000\000"
	.ascii	"\377\377\000\377\377\000\000\377\000\000\377\377\377"
	.ascii	"\000\377\377\000\377\000\000\377\000\000\000\000\377"
	.ascii	"\000\000\377\014\000\001\000\005\000\013\000\013\000"
	.ascii	"\377\000\377\377\377\377\377\377\377\000\377\000\000"
	.ascii	"\377\377\377\377\377\377\000\377\377\377\000\377\377"
	.ascii	"\377\377\377\000\377\377\377\377\000\377\377\377\377"
	.ascii	"\000\000\377\377\377\377\000\377\377\377\377\000\377"
	.ascii	"\377\377\377\377\000\377\377\377\000\377\377\377\377"
	.ascii	"\377\377\377\377\377\000\377\377\377\377\000\000\377"
	.ascii	"\377\377\377\000\377\377\377\000\000\000\377\377\377"
	.ascii	"\000\377\377\377\000\377\000\000\377\377\000\377\377"
	.ascii	"\377\377\000\000\000\000\377\000\000\377\377\377\377"
	.ascii	"\377\377\000\000\014\000\001\000\005\000\013\000\013"
	.ascii	"\000\377\000\377\377\377\377\377\377\000\000\377\000"
	.ascii	"\000\377\377\377\377\377\377\000\377\377\377\000\377"
	.ascii	"\377\377\377\377\000\377\377\377\377\000\377\377\377"
	.ascii	"\377\000\377\377\377\377\377\000\377\377\377\377\000"
	.ascii	"\377\377\377\377\377\000\377\377\377\000\377\377\377"
	.ascii	"\377\377\377\377\377\377\000\377\377\000\000\000\000"
	.ascii	"\377\377\377\000\000\377\377\377\377\377\000\377\377"
	.ascii	"\377\000\377\377\377\377\377\000\000\377\377\000\377"
	.ascii	"\377\377\377\377\000\377\377\377\000\377\377\377\377"
	.ascii	"\377\000\000\000\000\015\000\000\000\005\000\014\000"
	.ascii	"\013\000\377\000\000\000\377\377\377\377\377\377\000"
	.ascii	"\377\000\377\377\000\377\377\377\377\377\000\377\377"
	.ascii	"\377\377\000\000\377\377\377\377\000\377\377\377\377"
	.ascii	"\377\377\000\000\377\377\000\000\377\377\377\000\000"
	.ascii	"\377\000\000\377\377\000\377\377\377\377\377\000\000"
	.ascii	"\000\377\377\000\377\377\377\377\377\377\377\377\377"
	.ascii	"\377\000\377\377\377\377\000\000\377\377\377\377\377"
	.ascii	"\000\377\377\377\000\000\000\377\377\377\377\000\377"
	.ascii	"\377\377\000\377\000\000\377\377\377\000\377\377\377"
	.ascii	"\377\000\000\000\000\377\377\000\000\377\377\377\377"
	.ascii	"\377\377\000\000\007\000\001\000\005\000\007\000\013"
	.ascii	"\000\377\377\377\000\377\377\377\377\377\377\000\377"
	.ascii	"\377\377\377\377\377\377\377\377\377\377\377\377\000"
	.ascii	"\377\377\377\377\377\377\000\377\377\377\377\377\377"
	.ascii	"\000\000\377\377\377\377\377\377\000\000\377\377\377"
	.ascii	"\377\377\377\000\377\000\377\377\377\377\000\000\000"
	.ascii	"\000\377\377\377\000\377\377\000\000\000\000\377\377"
	.ascii	"\011\000\001\000\002\000\011\000\016\000\377\377\000"
	.ascii	"\000\377\377\377\377\377\377\377\377\377\000\377\377"
	.ascii	"\377\377\377\377\377\377\377\377\377\377\377\377\377"
	.ascii	"\377\377\000\000\377\377\377\377\377\377\000\000\000"
	.ascii	"\377\377\377\377\377\377\000\377\000\377\377\377\377"
	.ascii	"\377\377\000\377\000\000\377\377\377\377\000\000\377"
	.ascii	"\377\000\377\377\377\377\000\377\377\377\000\377\377"
	.ascii	"\377\000\000\377\377\377\000\000\377\377\000\000\000"
	.ascii	"\000\000\000\000\377\377\000\377\377\377\377\377\000"
	.ascii	"\000\000\000\377\377\377\377\377\000\000\000\000\377"
	.ascii	"\377\377\377\377\377\000\011\000\001\000\002\000\011"
	.ascii	"\000\016\000\377\377\377\377\377\000\000\377\377\377"
	.ascii	"\377\377\377\000\000\377\377\377\377\377\377\377\377"
	.ascii	"\377\377\377\377\377\377\377\377\000\000\377\377\377"
	.ascii	"\377\377\377\000\000\000\377\377\377\377\377\377\000"
	.ascii	"\377\000\377\377\377\377\377\377\000\377\000\000\377"
	.ascii	"\377\377\377\000\000\377\377\000\377\377\377\377\000"
	.ascii	"\377\377\377\000\377\377\377\000\000\377\377\377\000"
	.ascii	"\000\377\377\000\000\000\000\000\000\000\377\377\000"
	.ascii	"\377\377\377\377\377\000\000\000\000\377\377\377\377"
	.ascii	"\377\000\000\000\000\377\377\377\377\377\377\000\011"
	.ascii	"\000\001\000\002\000\011\000\016\000\377\377\377\377"
	.ascii	"\000\377\377\377\377\377\377\377\000\377\000\377\377"
	.ascii	"\377\377\377\000\000\377\000\000\377\377\377\377\377"
	.ascii	"\377\000\000\377\377\377\377\377\377\000\000\000\377"
	.ascii	"\377\377\377\377\377\000\377\000\377\377\377\377\377"
	.ascii	"\377\000\377\000\000\377\377\377\377\000\000\377\377"
	.ascii	"\000\377\377\377\377\000\377\377\377\000\377\377\377"
	.ascii	"\000\000\377\377\377\000\000\377\377\000\000\000\000"
	.ascii	"\000\000\000\377\377\000\377\377\377\377\377\000\000"
	.ascii	"\000\000\377\377\377\377\377\000\000\000\000\377\377"
	.ascii	"\377\377\377\377\000\011\000\001\000\003\000\011\000"
	.ascii	"\015\000\377\377\000\000\000\000\000\377\377\377\377"
	.ascii	"\377\377\377\377\377\377\377\377\377\377\377\000\000"
	.ascii	"\377\377\377\377\377\377\000\000\000\377\377\377\377"
	.ascii	"\377\377\000\377\000\377\377\377\377\377\377\000\377"
	.ascii	"\000\000\377\377\377\377\000\000\377\377\000\377\377"
	.ascii	"\377\377\000\377\377\377\000\377\377\377\000\000\377"
	.ascii	"\377\377\000\000\377\377\000\000\000\000\000\000\000"
	.ascii	"\377\377\000\377\377\377\377\377\000\000\000\000\377"
	.ascii	"\377\377\377\377\000\000\000\000\377\377\377\377\377"
	.ascii	"\377\000\011\000\001\000\003\000\011\000\015\000\377"
	.ascii	"\377\000\000\377\000\000\377\377\377\377\377\377\377"
	.ascii	"\377\377\377\377\377\377\377\377\000\000\377\377\377"
	.ascii	"\377\377\377\000\000\000\377\377\377\377\377\377\000"
	.ascii	"\377\000\377\377\377\377\377\377\000\377\000\000\377"
	.ascii	"\377\377\377\000\000\377\377\000\377\377\377\377\000"
	.ascii	"\377\377\377\000\377\377\377\000\000\377\377\377\000"
	.ascii	"\000\377\377\000\000\000\000\000\000\000\377\377\000"
	.ascii	"\377\377\377\377\377\000\000\000\000\377\377\377\377"
	.ascii	"\377\000\000\000\000\377\377\377\377\377\377\000\011"
	.ascii	"\000\001\000\003\000\011\000\015\000\377\377\377\000"
	.ascii	"\000\000\377\377\377\377\377\377\000\377\000\377\377"
	.ascii	"\377\377\377\377\377\000\000\377\377\377\377\377\377"
	.ascii	"\000\000\000\377\377\377\377\377\377\000\377\000\377"
	.ascii	"\377\377\377\377\377\000\377\000\000\377\377\377\377"
	.ascii	"\000\000\377\377\000\377\377\377\377\000\377\377\377"
	.ascii	"\000\377\377\377\000\000\377\377\377\000\000\377\377"
	.ascii	"\000\000\000\000\000\000\000\377\377\000\377\377\377"
	.ascii	"\377\377\000\000\000\000\377\377\377\377\377\000\000"
	.ascii	"\000\000\377\377\377\377\377\377\000\015\000\000\000"
	.ascii	"\005\000\014\000\013\000\377\377\377\377\377\000\000"
	.ascii	"\000\000\000\000\000\377\377\377\377\377\000\000\000"
	.ascii	"\377\377\377\377\377\377\377\377\000\000\000\000\377"
	.ascii	"\377\377\377\377\377\377\377\000\377\000\000\377\377"
	.ascii	"\377\377\377\377\377\000\000\377\000\000\377\377\377"
	.ascii	"\377\377\377\377\000\000\000\000\000\000\000\000\377"
	.ascii	"\377\377\000\000\377\377\000\000\377\377\377\377\377"
	.ascii	"\377\000\377\377\377\000\000\377\377\377\377\377\000"
	.ascii	"\000\377\377\377\000\000\377\377\377\377\377\000\377"
	.ascii	"\377\377\377\000\000\377\377\377\377\000\000\377\377"
	.ascii	"\377\377\000\000\000\000\000\000\012\000\001\000\005"
	.ascii	"\000\011\000\016\000\377\377\000\000\000\000\000\377"
	.ascii	"\377\377\000\000\377\377\377\000\000\377\377\000\377"
	.ascii	"\377\377\377\377\000\000\000\000\377\377\377\377\377"
	.ascii	"\377\377\000\377\377\377\377\377\377\377\377\000\377"
	.ascii	"\377\377\377\377\377\377\377\000\377\377\377\377\377"
	.ascii	"\377\377\377\000\377\377\377\377\377\377\377\000\000"
	.ascii	"\000\377\377\377\377\377\000\000\377\000\000\377\377"
	.ascii	"\377\377\000\000\377\377\000\000\000\000\000\000\377"
	.ascii	"\377\377\377\377\000\377\377\377\377\377\377\377\377"
	.ascii	"\377\000\000\377\377\377\377\377\000\000\000"
	.ascii	"\000\377\377\011\000\001\000\002\000\010\000\016\000"
	.ascii	"\377\377\000\000\377\377\377\377\377\377\377\000\377"
	.ascii	"\377\377\377\377\377\377\377\000\377\377\377\000\000"
	.ascii	"\000\000\000\000\000\377\000\377\377\377\377\377\377"
	.ascii	"\377\000\377\377\377\377\377\377\377\000\377\377\377"
	.ascii	"\377\377\377\377\000\377\377\377\377\377\377\377\000"
	.ascii	"\000\000\000\000\000\000\377\000\377\377\377\377\377"
	.ascii	"\377\377\000\377\377\377\377\377\377\377\000\377\377"
	.ascii	"\377\377\377\377\377\000\377\377\377\377\377\377\377"
	.ascii	"\000\000\000\000\000\000\000\000\011\000\001\000\002"
	.ascii	"\000\010\000\016\000\377\377\377\377\000\377\377\377"
	.ascii	"\377\377\377\000\377\377\377\377\377\377\377\377\377"
	.ascii	"\377\377\377\000\000\000\000\000\000\000\377\000\377"
	.ascii	"\377\377\377\377\377\377\000\377\377\377\377\377\377"
	.ascii	"\377\000\377\377\377\377\377\377\377\000\377\377\377"
	.ascii	"\377\377\377\377\000\000\000\000\000\000\000\377\000"
	.ascii	"\377\377\377\377\377\377\377\000\377\377\377\377\377"
	.ascii	"\377\377\000\377\377\377\377\377\377\377\000\377\377"
	.ascii	"\377\377\377\377\377\000\000\000\000\000\000\000\000"
	.ascii	"\011\000\001\000\002\000\010\000\016\000\377\377\377"
	.ascii	"\000\000\377\377\377\377\377\000\000\000\377\377\377"
	.ascii	"\377\000\000\377\377\000\377\377\000\000\000\000\000"
	.ascii	"\000\000\377\000\377\377\377\377\377\377\377\000\377"
	.ascii	"\377\377\377\377\377\377\000\377\377\377\377\377\377"
	.ascii	"\377\000\377\377\377\377\377\377\377\000\000\000\000"
	.ascii	"\000\000\000\377\000\377\377\377\377\377\377\377\000"
	.ascii	"\377\377\377\377\377\377\377\000\377\377\377\377\377"
	.ascii	"\377\377\000\377\377\377\377\377\377\377\000\000\000"
	.ascii	"\000\000\000\000\000\011\000\001\000\003\000\010\000"
	.ascii	"\015\000\377\377\000\377\377\000\377\377\377\377\377"
	.ascii	"\377\377\377\377\377\000\000\000\000\000\000\000\377"
	.ascii	"\000\377\377\377\377\377\377\377\000\377\377\377\377"
	.ascii	"\377\377\377\000\377\377\377\377\377\377\377\000\377"
	.ascii	"\377\377\377\377\377\377\000\000\000\000\000\000\000"
	.ascii	"\377\000\377\377\377\377\377\377\377\000\377\377\377"
	.ascii	"\377\377\377\377\000\377\377\377\377\377\377\377\000"
	.ascii	"\377\377\377\377\377\377\377\000\000\000\000\000\000"
	.ascii	"\000\000\004\000\000\000\002\000\003\000\016\000\000"
	.ascii	"\000\377\377\377\000\377\377\377\377\377\000\377\377"
	.ascii	"\000\377\377\000\377\377\000\377\377\000\377\377\000"
	.ascii	"\377\377\000\377\377\000\377\377\000\377\377\000\377"
	.ascii	"\377\000\003\000\001\000\002\000\002\000\016\000\377"
	.ascii	"\000\000\000\377\377\000\377\000\377\000\377\000\377"
	.ascii	"\000\377\000\377\000\377\000\377\000\377\000\377\000"
	.ascii	"\377\004\000\000\000\002\000\005\000\016\000\377\000"
	.ascii	"\000\377\377\377\000\000\000\377\000\377\377\000\000"
	.ascii	"\377\000\000\377\377\377\000\000\377\377\377\000\000"
	.ascii	"\377\377\377\000\000\377\377\377\000\000\377\377\377"
	.ascii	"\000\000\377\377\377\000\000\377\377\377\000\000\377"
	.ascii	"\377\377\000\000\377\377\377\000\000\377\377\377\000"
	.ascii	"\000\377\377\004\000\000\000\003\000\004\000\015\000"
	.ascii	"\000\377\377\000\377\377\377\377\377\000\000\377\377"
	.ascii	"\000\000\377\377\000\000\377\377\000\000\377\377\000"
	.ascii	"\000\377\377\000\000\377\377\000\000\377\377\000\000"
	.ascii	"\377\377\000\000\377\377\000\000\377\377\000\000\377"
	.ascii	"\013\000\000\000\005\000\012\000\013\000\377\000\000"
	.ascii	"\000\000\000\000\377\377\377\377\000\000\377\377\377"
	.ascii	"\000\000\377\377\377\000\000\377\377\377\377\377\000"
	.ascii	"\377\377\000\000\377\377\377\377\377\000\000\377\000"
	.ascii	"\000\377\377\377\377\377\000\000\000\000\000\000\000"
	.ascii	"\377\377\377\377\000\377\000\000\377\377\377\377\377"
	.ascii	"\377\000\377\000\000\377\377\377\377\377\000\000\377"
	.ascii	"\000\000\377\377\377\377\377\000\377\377\000\000\377"
	.ascii	"\377\377\377\000\000\377\377\000\000\000\000\000\000"
	.ascii	"\000\377\377\012\000\001\000\003\000\010\000\015\000"
	.ascii	"\377\377\000\000\000\000\000\377\377\377\377\377\377"
	.ascii	"\377\377\377\000\000\377\377\377\377\377\000\000\000"
	.ascii	"\377\377\377\377\377\000\000\000\000\377\377\377\377"
	.ascii	"\000\000\377\000\000\377\377\377\000\000\377\377\000"
	.ascii	"\377\377\377\000\000\377\377\000\000\377\377\000\000"
	.ascii	"\377\377\377\000\377\377\000\000\377\377\377\377\000"
	.ascii	"\377\000\000\377\377\377\377\000\000\000\000\377\377"
	.ascii	"\377\377\377\000\000\000\377\377\377\377\377\000\000"
	.ascii	"\013\000\001\000\002\000\012\000\016\000\377\377\377"
	.ascii	"\000\000\377\377\377\377\377\377\377\377\377\000\000"
	.ascii	"\377\377\377\377\377\377\377\377\377\377\377\377\377"
	.ascii	"\377\377\377\000\000\000\000\000\000\377\377\377\000"
	.ascii	"\000\377\377\377\377\000\000\377\000\000\377\377\377"
	.ascii	"\377\377\377\000\000\000\377\377\377\377\377\377\377"
	.ascii	"\377\000\000\377\377\377\377\377\377\377\377\000\000"
	.ascii	"\377\377\377\377\377\377\377\377\000\000\377\377\377"
	.ascii	"\377\377\377\377\377\000\000\000\377\377\377\377\377"
	.ascii	"\377\377\000\377\000\377\377\377\377\377\377\000\000"
	.ascii	"\377\000\000\000\377\377\377\000\000\377\377\377\377"
	.ascii	"\000\000\000\000\377\377\377\013\000\001\000\002\000"
	.ascii	"\012\000\016\000\377\377\377\377\377\377\000\377\377"
	.ascii	"\377\377\377\377\377\377\000\377\377\377\377\377\377"
	.ascii	"\377\377\377\377\377\377\377\377\377\377\000\000\000"
	.ascii	"\000\000\000\377\377\377\000\000\377\377\377\377\000"
	.ascii	"\000\377\000\000\377\377\377\377\377\377\000\000\000"
	.ascii	"\377\377\377\377\377\377\377\377\000\000\377\377\377"
	.ascii	"\377\377\377\377\377\000\000\377\377\377\377\377\377"
	.ascii	"\377\377\000\000\377\377\377\377\377\377\377\377\000"
	.ascii	"\000\000\377\377\377\377\377\377\377\000\377\000\377"
	.ascii	"\377\377\377\377\377\000\000\377\000\000\000\377\377"
	.ascii	"\377\000\000\377\377\377\377\000\000\000\000\377\377"
	.ascii	"\377\013\000\001\000\002\000\012\000\016\000\377\377"
	.ascii	"\377\377\000\000\377\377\377\377\377\377\377\377\000"
	.ascii	"\000\000\377\377\377\377\377\377\000\377\377\000\377"
	.ascii	"\377\377\377\377\000\000\000\000\000\000\377\377\377"
	.ascii	"\000\000\377\377\377\377\000\000\377\000\000\377\377"
	.ascii	"\377\377\377\377\000\000\000\377\377\377\377\377\377"
	.ascii	"\377\377\000\000\377\377\377\377\377\377\377\377\000"
	.ascii	"\000\377\377\377\377\377\377\377\377\000\000\377\377"
	.ascii	"\377\377\377\377\377\377\000\000\000\377\377\377\377"
	.ascii	"\377\377\377\000\377\000\377\377\377\377\377\377\000"
	.ascii	"\000\377\000\000\000\377\377\377\000\000\377\377\377"
	.ascii	"\377\000\000\000\000\377\377\377\013\000\001\000\003"
	.ascii	"\000\012\000\015\000\377\377\377\000\000\000\000\000"
	.ascii	"\377\377\377\377\377\377\377\377\377\377\377\377\377"
	.ascii	"\377\000\000\000\000\000\000\377\377\377\000\000\377"
	.ascii	"\377\377\377\000\000\377\000\000\377\377\377\377\377"
	.ascii	"\377\000\000\000\377\377\377\377\377\377\377\377\000"
	.ascii	"\000\377\377\377\377\377\377\377\377\000\000\377\377"
	.ascii	"\377\377\377\377\377\377\000\000\377\377\377\377\377"
	.ascii	"\377\377\377\000\000\000\377\377\377\377\377\377\377"
	.ascii	"\000\377\000\377\377\377\377\377\377\000\000\377\000"
	.ascii	"\000\000\377\377\377\000\000\377\377\377\377\000\000"
	.ascii	"\000\000\377\377\377\013\000\001\000\003\000\012\000"
	.ascii	"\015\000\377\377\377\000\377\377\000\377\377\377\377"
	.ascii	"\377\377\377\377\377\377\377\377\377\377\377\000\000"
	.ascii	"\000\000\000\000\377\377\377\000\000\377\377\377\377"
	.ascii	"\000\000\377\000\000\377\377\377\377\377\377\000\000"
	.ascii	"\000\377\377\377\377\377\377\377\377\000\000\377\377"
	.ascii	"\377\377\377\377\377\377\000\000\377\377\377\377\377"
	.ascii	"\377\377\377\000\000\377\377\377\377\377\377\377\377"
	.ascii	"\000\000\000\377\377\377\377\377\377\377\000\377\000"
	.ascii	"\377\377\377\377\377\377\000\000\377\000\000\000\377"
	.ascii	"\377\377\000\000\377\377\377\377\000\000\000\000\377"
	.ascii	"\377\377\010\000\001\000\007\000\007\000\007\000\000"
	.ascii	"\377\377\377\377\377\377\000\000\377\377\377\000\000"
	.ascii	"\377\000\000\377\000\377\377\377\377\000\000\377\377"
	.ascii	"\377\377\377\000\000\000\377\377\377\000\377\377\000"
	.ascii	"\000\377\000\377\377\377\377\000\000\013\000\001\000"
	.ascii	"\005\000\012\000\013\000\377\377\377\000\000\000\377"
	.ascii	"\377\000\000\377\000\000\000\377\377\000\000\000\377"
	.ascii	"\377\000\377\377\377\377\000\000\000\377\000\000\377"
	.ascii	"\377\377\377\000\377\000\377\000\377\377\377\377\000"
	.ascii	"\000\377\000\000\000\377\377\377\000\000\377\377\000"
	.ascii	"\000\000\377\377\000\000\377\377\377\000\000\000\377"
	.ascii	"\377\000\377\377\377\377\000\000\000\000\000\000\377"
	.ascii	"\377\377\377\000\377\377\000\000\377\377\377\377\000"
	.ascii	"\000\377\000\000\000\000\000\000\000\377\377\377\012"
	.ascii	"\000\001\000\002\000\010\000\016\000\377\377\000\000"
	.ascii	"\377\377\377\377\377\377\377\000\377\377\377\377\377"
	.ascii	"\377\377\377\000\377\377\377\000\377\377\377\377\377"
	.ascii	"\377\000\000\377\377\377\377\377\377\000\000\377\377"
	.ascii	"\377\377\377\377\000\000\377\377\377\377\377\377\000"
	.ascii	"\000\377\377\377\377\377\377\000\000\377\377\377\377"
	.ascii	"\377\377\000\000\377\377\377\377\377\377\000\000\377"
	.ascii	"\377\377\377\377\377\000\000\377\377\377\377\377\377"
	.ascii	"\000\000\000\377\377\377\377\000\000\377\377\000\000"
	.ascii	"\000\000\377\377\012\000\001\000\002\000\010\000\016"
	.ascii	"\000\377\377\377\377\000\377\377\377\377\377"
	.ascii	"\377\000\000\377\377\377\377\377\377\377\377\377\377"
	.ascii	"\377\000\377\377\377\377\377\377\000\000\377\377\377"
	.ascii	"\377\377\377\000\000\377\377\377\377\377\377\000\000"
	.ascii	"\377\377\377\377\377\377\000\000\377\377\377\377\377"
	.ascii	"\377\000\000\377\377\377\377\377\377\000\000\377\377"
	.ascii	"\377\377\377\377\000\000\377\377\377\377\377\377\000"
	.ascii	"\000\377\377\377\377\377\377\000\000\000\377\377\377"
	.ascii	"\377\000\000\377\377\000\000\000\000\377\377\012\000"
	.ascii	"\001\000\002\000\010\000\016\000\377\377\377\000\000"
	.ascii	"\377\377\377\377\377\000\000\000\000\377\377\377\377"
	.ascii	"\000\377\377\000\377\377\000\377\377\377\377\377\377"
	.ascii	"\000\000\377\377\377\377\377\377\000\000\377\377\377"
	.ascii	"\377\377\377\000\000\377\377\377\377\377\377\000\000"
	.ascii	"\377\377\377\377\377\377\000\000\377\377\377\377\377"
	.ascii	"\377\000\000\377\377\377\377\377\377\000\000\377\377"
	.ascii	"\377\377\377\377\000\000\377\377\377\377\377\377\000"
	.ascii	"\000\000\377\377\377\377\000\000\377\377\000\000\000"
	.ascii	"\000\377\377\012\000\001\000\003\000\010\000\015\000"
	.ascii	"\377\377\000\377\377\000\377\377\377\377\377\377\377"
	.ascii	"\377\377\377\000\377\377\377\377\377\377\000\000\377"
	.ascii	"\377\377\377\377\377\000\000\377\377\377\377\377\377"
	.ascii	"\000\000\377\377\377\377\377\377\000\000\377\377\377"
	.ascii	"\377\377\377\000\000\377\377\377\377\377\377\000\000"
	.ascii	"\377\377\377\377\377\377\000\000\377\377\377\377\377"
	.ascii	"\377\000\000\377\377\377\377\377\377\000\000\000\377"
	.ascii	"\377\377\377\000\000\377\377\000\000\000\000\377\377"
	.ascii	"\011\000\001\000\002\000\011\000\016\000\377\377\377"
	.ascii	"\377\377\000\377\377\377\377\377\377\377\000\377\377"
	.ascii	"\377\377\377\377\377\377\377\377\377\377\377\000\000"
	.ascii	"\377\377\377\377\377\377\000\377\000\377\377\377\377"
	.ascii	"\377\000\000\377\000\000\377\377\377\000\000\377\377"
	.ascii	"\377\000\000\377\377\000\377\377\377\377\377\000\377"
	.ascii	"\000\000\377\377\377\377\377\000\000\000\377\377\377"
	.ascii	"\377\377\377\377\000\377\377\377\377\377\377\377\377"
	.ascii	"\000\377\377\377\377\377\377\377\377\000\377\377\377"
	.ascii	"\377\377\377\377\377\000\377\377\377\377\377\377\377"
	.ascii	"\377\000\377\377\377\377\011\000\000\000\006\000\010"
	.ascii	"\000\012\000\000\000\000\000\000\377\377\377\377\377"
	.ascii	"\000\000\000\377\377\377\377\377\000\377\377\000\000"
	.ascii	"\000\377\377\000\377\377\377\377\000\377\377\000\377"
	.ascii	"\377\377\377\000\377\377\000\377\377\377\377\000\377"
	.ascii	"\377\000\377\377\377\000\377\377\377\000\377\000\000"
	.ascii	"\377\377\377\377\000\377\377\377\377\377\000\000\000"
	.ascii	"\000\000\377\377\377\011\000\000\000\005\000\010\000"
	.ascii	"\013\000\377\377\377\000\000\000\000\377\377\377\000"
	.ascii	"\377\377\377\000\377\377\377\000\377\377\377\000\377"
	.ascii	"\377\377\000\377\377\000\377\377\377\377\000\377\377"
	.ascii	"\000\377\377\377\377\000\377\000\000\377\377\377\377"
	.ascii	"\000\377\377\000\000\377\377\377\000\377\377\377\000"
	.ascii	"\000\377\377\000\377\377\377\377\000\377\377\000\377"
	.ascii	"\377\377\377\000\000\000\000\000\000\000\000\000\007"
	.ascii	"\000\001\000\005\000\007\000\013\000\377\000\000\377"
	.ascii	"\377\377\377\377\377\377\000\377\377\377\377\377\377"
	.ascii	"\377\377\377\377\377\000\000\000\000\000\377\000\000"
	.ascii	"\377\377\377\000\377\377\377\377\377\377\000\377\377"
	.ascii	"\000\000\000\000\000\377\000\000\377\377\377\000\377"
	.ascii	"\000\377\377\377\377\000\377\000\377\377\377\000\000"
	.ascii	"\377\377\000\000\000\377\000\000\007\000\001\000\005"
	.ascii	"\000\007\000\013\000\377\377\377\000\000\377\377\377"
	.ascii	"\377\377\000\377\377\377\377\377\377\377\377\377\377"
	.ascii	"\377\000\000\000\000\000\377\000\000\377\377\377\000"
	.ascii	"\377\377\377\377\377\377\000\377\377\000\000\000\000"
	.ascii	"\000\377\000\000\377\377\377\000\377\000\377\377\377"
	.ascii	"\377\000\377\000\377\377\377\000\000\377\377\000\000"
	.ascii	"\000\377\000\000\007\000\001\000\005\000\007\000\013"
	.ascii	"\000\377\377\000\000\377\377\377\377\377\000\377\000"
	.ascii	"\377\377\377\000\377\377\377\000\377\377\000\000\000"
	.ascii	"\000\000\377\000\000\377\377\377\000\377\377\377\377"
	.ascii	"\377\377\000\377\377\000\000\000\000\000\377\000\000"
	.ascii	"\377\377\377\000\377\000\377\377\377\377\000\377\000"
	.ascii	"\377\377\377\000\000\377\377\000\000\000\377\000\000"
	.ascii	"\007\000\001\000\006\000\007\000\012\000\377\000\000"
	.ascii	"\000\000\000\377\377\377\377\377\377\377\377\377\000"
	.ascii	"\000\000\000\000\377\000\000\377\377\377\000\377\377"
	.ascii	"\377\377\377\377\000\377\377\000\000\000\000\000\377"
	.ascii	"\000\000\377\377\377\000\377\000\377\377\377\377\000"
	.ascii	"\377\000\377\377\377\000\000\377\377\000\000\000\377"
	.ascii	"\000\000\007\000\001\000\006\000\007\000\012\000\377"
	.ascii	"\000\377\377\000\377\377\377\377\377\377\377\377\377"
	.ascii	"\377\000\000\000\000\000\377\000\000\377\377\377\000"
	.ascii	"\377\377\377\377\377\377\000\377\377\000\000\000\000"
	.ascii	"\000\377\000\000\377\377\377\000\377\000\377\377\377"
	.ascii	"\377\000\377\000\377\377\377\000\000\377\377\000\000"
	.ascii	"\000\377\000\000\007\000\001\000\005\000\007\000\013"
	.ascii	"\000\377\377\000\000\000\377\377\377\377\000\377\000"
	.ascii	"\377\377\377\377\377\000\377\377\377\377\000\000\000"
	.ascii	"\000\000\377\000\000\377\377\377\000\377\377\377\377"
	.ascii	"\377\377\000\377\377\000\000\000\000\000\377\000\000"
	.ascii	"\377\377\377\000\377\000\377\377\377\377\000\377\000"
	.ascii	"\377\377\377\000\000\377\377\000\000\000\377\000\000"
	.ascii	"\013\000\000\000\010\000\013\000\010\000\377\377\000"
	.ascii	"\000\000\377\377\000\000\377\377\377\000\377\377\000"
	.ascii	"\000\000\377\377\000\377\000\377\377\377\377\000\377"
	.ascii	"\377\377\377\000\377\377\377\377\000\000\377\377\377"
	.ascii	"\377\000\377\000\000\000\377\000\000\000\000\000\000"
	.ascii	"\000\377\377\377\377\000\377\377\377\377\377\000\377"
	.ascii	"\377\377\000\000\377\377\377\377\000\377\000\000\000"
	.ascii	"\000\377\000\000\000\000\377\007\000\001\000\010\000"
	.ascii	"\007\000\013\000\377\000\000\000\000\000\377\000\000"
	.ascii	"\377\377\377\000\000\000\377\377\377\377\377\377\000"
	.ascii	"\377\377\377\377\377\377\000\377\377\377\377\377\377"
	.ascii	"\000\377\377\377\377\000\000\377\000\377\377\377\000"
	.ascii	"\377\377\377\000\000\000\377\377\377\377\377\000\377"
	.ascii	"\377\377\377\377\377\377\000\377\377\377\377\000\000"
	.ascii	"\000\000\377\007\000\001\000\005\000\007\000\013\000"
	.ascii	"\377\000\000\377\377\377\377\377\377\377\000\377\377"
	.ascii	"\377\377\377\377\377\377\377\377\377\000\000\000\000"
	.ascii	"\000\377\000\000\377\377\377\000\377\000\377\377\377"
	.ascii	"\377\000\000\000\000\000\000\000\000\000\000\377\377"
	.ascii	"\377\377\377\377\000\377\377\377\377\000\000\000\000"
	.ascii	"\377\377\377\000\377\377\000\000\000\000\377\377\007"
	.ascii	"\000\001\000\005\000\007\000\013\000\377\377\377\000"
	.ascii	"\000\377\377\377\377\377\000\377\377\377\377\377\377"
	.ascii	"\377\377\377\377\377\000\000\000\000\000\377\000\000"
	.ascii	"\377\377\377\000\377\000\377\377\377\377\000\000\000"
	.ascii	"\000\000\000\000\000\000\000\377\377\377\377\377\377"
	.ascii	"\000\377\377\377\377\000\000\000\000\377\377\377\000"
	.ascii	"\377\377\000\000\000\000\377\377\007\000\001\000\005"
	.ascii	"\000\007\000\013\000\377\377\000\000\377\377\377\377"
	.ascii	"\377\000\377\000\377\377\377\000\377\377\377\000\377"
	.ascii	"\377\000\000\000\000\000\377\000\000\377\377\377\000"
	.ascii	"\377\000\377\377\377\377\000\000\000\000\000\000\000"
	.ascii	"\000\000\000\377\377\377\377\377\377\000\377\377\377"
	.ascii	"\377\000\000\000\000\377\377\377\000\377\377\000\000"
	.ascii	"\000\000\377\377\007\000\001\000\006\000\007\000\012"
	.ascii	"\000\377\000\000\377\000\000\377\377\377\377\377\377"
	.ascii	"\377\377\377\000\000\000\000\000\377\000\000\377\377"
	.ascii	"\377\000\377\000\377\377\377\377\000\000\000\000\000"
	.ascii	"\000\000\000\000\000\377\377\377\377\377\377\000\377"
	.ascii	"\377\377\377\000\000\000\000\377\377\377\000\377\377"
	.ascii	"\000\000\000\000\377\377\003\000\000\000\005\000\003"
	.ascii	"\000\013\000\000\000\377\377\000\377\377\377\000\377"
	.ascii	"\377\000\377\377\000\377\377\000\377\377\000\377\377"
	.ascii	"\000\377\377\000\377\377\000\377\377\000\002\000\001"
	.ascii	"\000\005\000\003\000\013\000\377\000\000\377\000\377"
	.ascii	"\000\377\377\000\377\377\000\377\377\000\377\377\000"
	.ascii	"\377\377\000\377\377\000\377\377\000\377\377\000\377"
	.ascii	"\377\004\000\377\377\005\000\005\000\013\000\377\377"
	.ascii	"\000\000\377\377\000\000\000\377\000\377\377\377\000"
	.ascii	"\377\377\000\377\377\377\377\000\377\377\377\377\000"
	.ascii	"\377\377\377\377\000\377\377\377\377\000\377\377\377"
	.ascii	"\377\000\377\377\377\377\000\377\377\377\377\000\377"
	.ascii	"\377\003\000\000\000\006\000\004\000\012\000\000\377"
	.ascii	"\377\000\377\377\377\377\377\000\377\377\377\000\377"
	.ascii	"\377\377\000\377\377\377\000\377\377\377\000\377\377"
	.ascii	"\377\000\377\377\377\000\377\377\377\000\377\377\010"
	.ascii	"\000\000\000\005\000\007\000\013\000\377\377\377\000"
	.ascii	"\000\377\000\377\377\377\377\000\000\377\377\377\000"
	.ascii	"\000\377\000\377\377\377\377\377\377\000\377\377\377"
	.ascii	"\000\000\000\000\000\377\000\377\377\377\377\000\377"
	.ascii	"\000\377\377\377\377\000\377\000\377\377\377\377\000"
	.ascii	"\000\000\377\377\377\377\000\377\000\377\377\377\377"
	.ascii	"\000\377\377\000\000\000\000\377\007\000\001\000\006"
	.ascii	"\000\006\000\012\000\377\000\000\000\000\377"
	.ascii	"\377\377\377\377\377\377\000\377\000\000\000\377\000"
	.ascii	"\000\377\377\377\000\000\377\377\377\377\000\000\377"
	.ascii	"\377\377\377\000\000\377\377\377\377\000\000\377\377"
	.ascii	"\377\377\000\000\377\377\377\377\000\000\377\377\377"
	.ascii	"\377\000\007\000\001\000\005\000\007\000\013\000\377"
	.ascii	"\000\000\377\377\377\377\377\377\377\000\377\377\377"
	.ascii	"\377\377\377\377\377\377\377\377\000\000\000\000\000"
	.ascii	"\377\000\000\377\377\377\000\377\000\377\377\377\377"
	.ascii	"\000\000\000\377\377\377\377\377\000\000\377\377\377"
	.ascii	"\377\000\000\000\377\377\377\377\000\000\000\000\377"
	.ascii	"\377\377\000\377\377\000\000\000\000\377\377\007\000"
	.ascii	"\001\000\005\000\007\000\013\000\377\377\377\377\000"
	.ascii	"\000\377\377\377\377\000\000\377\377\377\377\377\377"
	.ascii	"\377\377\377\377\000\000\000\000\000\377\000\000\377"
	.ascii	"\377\377\000\377\000\377\377\377\377\000\000\000\377"
	.ascii	"\377\377\377\377\000\000\377\377\377\377\000\000\000"
	.ascii	"\377\377\377\377\000\000\000\000\377\377\377\000\377"
	.ascii	"\377\000\000\000\000\377\377\007\000\001\000\005\000"
	.ascii	"\007\000\013\000\377\377\377\000\377\377\377\377\377"
	.ascii	"\000\377\000\377\377\377\000\377\377\377\000\377\377"
	.ascii	"\000\000\000\000\000\377\000\000\377\377\377\000\377"
	.ascii	"\000\377\377\377\377\000\000\000\377\377\377\377\377"
	.ascii	"\000\000\377\377\377\377\000\000\000\377\377\377\377"
	.ascii	"\000\000\000\000\377\377\377\000\377\377\000\000\000"
	.ascii	"\000\377\377\007\000\001\000\006\000\007\000\012\000"
	.ascii	"\377\000\000\000\000\000\377\377\377\377\377\377\377"
	.ascii	"\377\377\000\000\000\000\000\377\000\000\377\377\377"
	.ascii	"\000\377\000\377\377\377\377\000\000\000\377\377\377"
	.ascii	"\377\377\000\000\377\377\377\377\000\000\000\377\377"
	.ascii	"\377\377\000\000\000\000\377\377\377\000\377\377\000"
	.ascii	"\000\000\000\377\377\007\000\001\000\006\000\007\000"
	.ascii	"\012\000\377\000\000\377\000\377\377\377\377\377\377"
	.ascii	"\377\377\377\377\000\000\000\000\000\377\000\000\377"
	.ascii	"\377\377\000\377\000\377\377\377\377\000\000\000\377"
	.ascii	"\377\377\377\377\000\000\377\377\377\377\000\000\000"
	.ascii	"\377\377\377\377\000\000\000\000\377\377\377\000\377"
	.ascii	"\377\000\000\000\000\377\377\006\000\000\000\010\000"
	.ascii	"\004\000\010\000\377\377\000\377\377\377\000\377\377"
	.ascii	"\377\377\377\000\000\000\000\377\377\377\377\377\377"
	.ascii	"\377\377\377\377\377\377\377\377\000\377\007\000\001"
	.ascii	"\000\007\000\007\000\013\000\377\377\377\377\000\377"
	.ascii	"\377\377\377\000\000\000\377\377\377\000\377\000\000"
	.ascii	"\000\377\000\377\377\000\377\000\377\000\377\377\000"
	.ascii	"\377\000\377\000\377\377\000\377\000\000\000\377\000"
	.ascii	"\377\377\000\377\000\000\000\377\377\000\377\377\000"
	.ascii	"\000\000\000\377\377\377\000\377\377\377\377\377\377"
	.ascii	"\000\377\377\377\377\377\007\000\001\000\005\000\007"
	.ascii	"\000\013\000\377\000\000\377\377\377\377\377\377\000"
	.ascii	"\377\377\377\377\377\377\377\000\377\377\377\000\377"
	.ascii	"\377\377\377\000\000\000\377\377\377\377\000\000\000"
	.ascii	"\377\377\377\377\000\000\000\377\377\377\377\000\000"
	.ascii	"\000\377\377\377\377\000\000\000\377\377\377\377\000"
	.ascii	"\000\000\000\377\377\000\000\000\377\000\000\000\000"
	.ascii	"\377\000\007\000\001\000\005\000\007\000\013\000\377"
	.ascii	"\377\377\000\000\377\377\377\377\000\000\377\377\377"
	.ascii	"\377\377\377\377\377\377\377\000\377\377\377\377\000"
	.ascii	"\000\000\377\377\377\377\000\000\000\377\377\377\377"
	.ascii	"\000\000\000\377\377\377\377\000\000\000\377\377\377"
	.ascii	"\377\000\000\000\377\377\377\377\000\000\000\000\377"
	.ascii	"\377\000\000\000\377\000\000\000\000\377\000\007\000"
	.ascii	"\001\000\005\000\007\000\013\000\377\377\000\000\377"
	.ascii	"\377\377\377\000\000\000\000\377\377\377\377\377\377"
	.ascii	"\377\377\377\000\377\377\377\377\000\000\000\377\377"
	.ascii	"\377\377\000\000\000\377\377\377\377\000\000\000\377"
	.ascii	"\377\377\377\000\000\000\377\377\377\377\000\000\000"
	.ascii	"\377\377\377\377\000\000\000\000\377\377\000\000\000"
	.ascii	"\377\000\000\000\000\377\000\007\000\001\000\006\000"
	.ascii	"\007\000\012\000\377\000\377\377\000\377\377\377\377"
	.ascii	"\377\377\377\377\377\000\377\377\377\377\000\000\000"
	.ascii	"\377\377\377\377\000\000\000\377\377\377\377\000\000"
	.ascii	"\000\377\377\377\377\000\000\000\377\377\377\377\000"
	.ascii	"\000\000\377\377\377\377\000\000\000\000\377\377\000"
	.ascii	"\000\000\377\000\000\000\000\377\000\007\000\001\000"
	.ascii	"\005\000\007\000\016\000\377\377\377\000\000\377\377"
	.ascii	"\377\377\377\000\377\377\377\377\377\000\377\377\377"
	.ascii	"\377\000\377\377\377\377\000\000\000\000\377\377\377"
	.ascii	"\000\377\377\000\377\377\000\000\377\377\000\377\377"
	.ascii	"\000\377\377\377\000\000\377\000\377\377\377\377\000"
	.ascii	"\000\000\377\377\377\377\000\000\377\377\377\377\377"
	.ascii	"\000\000\377\377\377\377\377\000\377\377\377\377\377"
	.ascii	"\377\000\377\377\377\377\000\000\377\377\377\377\377"
	.ascii	"\010\000\000\000\005\000\007\000\016\000\000\000\377"
	.ascii	"\377\377\377\377\377\000\377\377\377\377\377\377\000"
	.ascii	"\377\377\377\377\377\377\000\377\377\377\377\377\377"
	.ascii	"\000\377\000\000\000\377\377\000\000\377\377\000\000"
	.ascii	"\377\000\377\377\377\377\000\377\000\377\377\377\377"
	.ascii	"\000\377\000\377\377\377\377\000\377\000\377\377\377"
	.ascii	"\377\000\377\000\000\000\377\000\377\377\000\377\377"
	.ascii	"\000\377\377\377\000\377\377\377\377\377\000\000\000"
	.ascii	"\000\377\377\377\007\000\001\000\006\000\007\000\015"
	.ascii	"\000\377\000\377\377\000\377\377\377\377\377\377\377"
	.ascii	"\377\377\000\377\377\377\377\000\000\000\000\377\377"
	.ascii	"\377\000\377\377\000\377\377\000\000\377\377\000\377"
	.ascii	"\377\000\377\377\377\000\000\377\000\377\377\377\377"
	.ascii	"\000\000\000\377\377\377\377\000\000\377\377\377\377"
	.ascii	"\377\000\000\377\377\377\377\377\000\377\377\377\377"
	.ascii	"\377\377\000\377\377\377\377\000\000\377\377\377\377"
	.ascii	"\377"
	.section	.rodata
	.align	2
.LC0:
	.ascii	"OS2.2/Cpcdos/FBGUI/xfont/xfont.bas\000"
	.align	2
.LC1:
	.ascii	"\000"
	.text
	.align	2
	.global	_ZN5XFONT9INTERFACEC1Ev
	.arch armv7-a
	.syntax unified
	.arm
	.fpu vfp
	.type	_ZN5XFONT9INTERFACEC1Ev, %function
_ZN5XFONT9INTERFACEC1Ev:
.LFB0:
	.file 1 "OS2.2/Cpcdos/FBGUI/xfont/xfont.bas"
	.loc 1 240 1
	.cfi_startproc
	@ args = 0, pretend = 0, frame = 88
	@ frame_needed = 1, uses_anonymous_args = 0
	push	{fp, lr}
	.cfi_def_cfa_offset 8
	.cfi_offset 11, -8
	.cfi_offset 14, -4
	add	fp, sp, #4
	.cfi_def_cfa 11, 4
	sub	sp, sp, #88
	str	r0, [fp, #-88]
.L2:
	.loc 1 240 16
	movw	r0, #:lower16:.LC0
	movt	r0, #:upper16:.LC0
	bl	fb_ErrorSetModName
	str	r0, [fp, #-12]
	.loc 1 240 11
	ldr	r3, [fp, #-12]
	str	r3, [fp, #-16]
	.loc 1 240 16
	movw	r0, #:lower16:.LC1
	movt	r0, #:upper16:.LC1
	bl	fb_ErrorSetFuncName
	str	r0, [fp, #-20]
	.loc 1 240 11
	ldr	r3, [fp, #-20]
	str	r3, [fp, #-24]
	mov	r3, #0
	strb	r3, [fp, #-77]
	.loc 1 245 2
	ldr	r3, [fp, #-88]
	mov	r0, r3
	movw	r3, #4068
	movt	r3, 153
	mov	r2, r3
	mov	r1, #0
	bl	memset
	.loc 1 245 2
	ldr	r2, [fp, #-88]
	movw	r3, #4068
	movt	r3, 153
	add	r3, r2, r3
	mov	r2, r3
	mov	r3, #0
	str	r3, [r2]	@ unaligned
	.loc 1 245 2
	ldr	r2, [fp, #-88]
	movw	r3, #4072
	movt	r3, 153
	add	r3, r2, r3
	mov	r0, r3
	mov	r3, #1024
	mov	r2, r3
	mov	r1, #0
	bl	memset
	.loc 1 245 2
	ldr	r2, [fp, #-88]
	movw	r3, #5096
	movt	r3, 153
	add	r3, r2, r3
	mov	r0, r3
	mov	r3, #128
	mov	r2, r3
	mov	r1, #0
	bl	memset
	.loc 1 245 2
	ldr	r2, [fp, #-88]
	movw	r3, #5224
	movt	r3, 153
	add	r3, r2, r3
	mov	r0, r3
	mov	r3, #1024
	mov	r2, r3
	mov	r1, #0
	bl	memset
	.loc 1 245 2
	ldr	r2, [fp, #-88]
	movw	r3, #6248
	movt	r3, 153
	add	r3, r2, r3
	mov	r0, r3
	mov	r3, #128
	mov	r2, r3
	mov	r1, #0
	bl	memset
	.loc 1 245 2
	ldr	r2, [fp, #-88]
	movw	r3, #6376
	movt	r3, 153
	add	r3, r2, r3
	mov	r0, r3
	mov	r3, #36
	mov	r2, r3
	mov	r1, #0
	bl	memset
	.loc 1 245 2
	ldr	r2, [fp, #-88]
	movw	r3, #6412
	movt	r3, 153
	add	r3, r2, r3
	mov	r0, r3
	mov	r3, #36
	mov	r2, r3
	mov	r1, #0
	bl	memset
	.loc 1 245 2
	ldr	r2, [fp, #-88]
	movw	r3, #6448
	movt	r3, 153
	add	r3, r2, r3
	mov	r0, r3
	mov	r3, #36
	mov	r2, r3
	mov	r1, #0
	bl	memset
	.loc 1 245 2
	ldr	r2, [fp, #-88]
	movw	r3, #6484
	movt	r3, 153
	add	r3, r2, r3
	mov	r0, r3
	mov	r3, #36
	mov	r2, r3
	mov	r1, #0
	bl	memset
	.loc 1 245 2
	ldr	r2, [fp, #-88]
	movw	r3, #6520
	movt	r3, 153
	add	r3, r2, r3
	mov	r0, r3
	mov	r3, #65536
	mov	r2, r3
	mov	r1, #0
	bl	memset
	.loc 1 245 2
	ldr	r2, [fp, #-88]
	movw	r3, #6520
	movt	r3, 154
	add	r3, r2, r3
	mov	r2, r3
	mov	r3, #0
	strh	r3, [r2]	@ unaligned
	.loc 1 245 2
	ldr	r2, [fp, #-88]
	movw	r3, #6524
	movt	r3, 154
	add	r3, r2, r3
	mov	r2, r3
	mov	r3, #0
	str	r3, [r2]	@ unaligned
	str	r3, [r2, #4]	@ unaligned
	str	r3, [r2, #8]	@ unaligned
	str	r3, [r2, #12]	@ unaligned
	.loc 1 245 2
	ldr	r2, [fp, #-88]
	movw	r3, #6540
	movt	r3, 154
	add	r3, r2, r3
	mov	r2, r3
	mov	r3, #0
	strh	r3, [r2]	@ unaligned
	.loc 1 245 2
	ldr	r2, [fp, #-88]
	movw	r3, #6542
	movt	r3, 154
	add	r3, r2, r3
	mov	r2, #0
	strb	r2, [r3]
	.loc 1 245 2
	ldr	r2, [fp, #-88]
	movw	r3, #6543
	movt	r3, 154
	add	r3, r2, r3
	mov	r2, #0
	strb	r2, [r3]
	.loc 1 245 2
	ldr	r2, [fp, #-88]
	movw	r3, #6544
	movt	r3, 154
	add	r3, r2, r3
	mov	r2, #0
	strb	r2, [r3]
	.loc 1 245 2
	ldr	r2, [fp, #-88]
	movw	r3, #6548
	movt	r3, 154
	add	r3, r2, r3
	mov	r2, r3
	mov	r3, #0
	str	r3, [r2]	@ unaligned
	.loc 1 245 2
	ldr	r2, [fp, #-88]
	movw	r3, #6552
	movt	r3, 154
	add	r3, r2, r3
	mov	r2, r3
	mov	r3, #0
	str	r3, [r2]	@ unaligned
	.loc 1 245 2
	ldr	r2, [fp, #-88]
	movw	r3, #6556
	movt	r3, 154
	add	r3, r2, r3
	mov	r2, r3
	mov	r3, #0
	str	r3, [r2]	@ unaligned
	.loc 1 245 2
	ldr	r2, [fp, #-88]
	movw	r3, #6560
	movt	r3, 154
	add	r3, r2, r3
	mov	r2, r3
	mov	r3, #0
	str	r3, [r2]	@ unaligned
	.loc 1 245 10
	movw	r3, #:lower16:_ZN5XFONT15DEFAULT_FONT_0$E
	movt	r3, #:upper16:_ZN5XFONT15DEFAULT_FONT_0$E
	str	r3, [fp, #-76]
	.loc 1 245 2
	sub	r1, fp, #76
	mov	r3, #0
	movw	r2, #15262
	ldr	r0, [fp, #-88]
	bl	_ZN5XFONT9INTERFACE16BACKEND_LOADFONTERPvmh
.LBB2:
	.loc 1 247 7
	mov	r3, #0
	strh	r3, [fp, #-6]	@ movhi
.L3:
.LBB3:
	.loc 1 248 12
	ldrsh	r3, [fp, #-6]
	str	r3, [fp, #-28]
	.loc 1 248 18
	ldr	r0, [fp, #-28]
	movw	r3, #:lower16:.LC0
	movt	r3, #:upper16:.LC0
	mov	r2, #248
	mov	r1, #255
	bl	fb_ArraySngBoundChk
	str	r0, [fp, #-32]
	.loc 1 248 6
	ldr	r3, [fp, #-32]
	cmp	r3, #0
	beq	.L30
	.loc 1 248 4 discriminator 2
	ldr	r3, [fp, #-32]
	mov	pc, r3	@ indirect register jump
.L30:
	.loc 1 248 21
	nop
.L5:
	.loc 1 248 85
	ldrsh	r3, [fp, #-6]
	vmov	s15, r3	@ int
	vcvt.f64.s32	d6, s15
	.loc 1 248 104
	vldr.64	d5, .L38
	vdiv.f64	d7, d6, d5
	.loc 1 248 49
	ldr	r3, [fp, #-28]
	lsl	r3, r3, #2
	mov	r2, r3
	.loc 1 248 63
	movw	r3, #4072
	movt	r3, 153
	add	r3, r2, r3
	.loc 1 248 5
	ldr	r2, [fp, #-88]
	add	r3, r2, r3
	.loc 1 248 77
	vcvt.f32.f64	s15, d7
	.loc 1 248 75
	vstr.32	s15, [r3]
	.loc 1 249 13
	ldrsh	r3, [fp, #-6]
	str	r3, [fp, #-36]
	.loc 1 249 18
	ldr	r0, [fp, #-36]
	movw	r3, #:lower16:.LC0
	movt	r3, #:upper16:.LC0
	mov	r2, #249
	mov	r1, #255
	bl	fb_ArraySngBoundChk
	str	r0, [fp, #-40]
	.loc 1 249 6
	ldr	r3, [fp, #-40]
	cmp	r3, #0
	beq	.L31
	.loc 1 249 4 discriminator 2
	ldr	r3, [fp, #-40]
	mov	pc, r3	@ indirect register jump
.L31:
	.loc 1 249 21
	nop
.L7:
	.loc 1 249 12
	ldrsh	r3, [fp, #-6]
	str	r3, [fp, #-44]
	.loc 1 249 18
	ldr	r0, [fp, #-44]
	movw	r3, #:lower16:.LC0
	movt	r3, #:upper16:.LC0
	mov	r2, #249
	mov	r1, #255
	bl	fb_ArraySngBoundChk
	str	r0, [fp, #-48]
	.loc 1 249 6
	ldr	r3, [fp, #-48]
	cmp	r3, #0
	beq	.L32
	.loc 1 249 4 discriminator 5
	ldr	r3, [fp, #-48]
	mov	pc, r3	@ indirect register jump
.L32:
	.loc 1 249 21
	nop
.L9:
	.loc 1 249 125
	ldr	r3, [fp, #-36]
	lsl	r3, r3, #2
	mov	r2, r3
	.loc 1 249 139
	movw	r3, #4072
	movt	r3, 153
	add	r3, r2, r3
	.loc 1 249 80
	ldr	r2, [fp, #-88]
	add	r3, r2, r3
	.loc 1 249 79
	vldr.32	s15, [r3]
	.loc 1 249 49
	ldr	r3, [fp, #-44]
	lsl	r3, r3, #2
	mov	r2, r3
	.loc 1 249 63
	movw	r3, #5224
	movt	r3, 153
	add	r3, r2, r3
	.loc 1 249 5
	ldr	r2, [fp, #-88]
	add	r3, r2, r3
	.loc 1 249 152
	vldr.32	s14, .L38+16
	vsub.f32	s15, s14, s15
	.loc 1 249 75
	vstr.32	s15, [r3]
.L10:
.LBE3:
	.loc 1 250 7
	ldrh	r3, [fp, #-6]	@ movhi
	add	r3, r3, #1
	strh	r3, [fp, #-6]	@ movhi
.L11:
	.loc 1 250 5
	ldrsh	r3, [fp, #-6]
	cmp	r3, #255
	bgt	.L33
	.loc 1 250 27 discriminator 2
	b	.L3
.L33:
	.loc 1 250 3
	nop
.L12:
.LBE2:
.LBB4:
	.loc 1 251 7
	mov	r3, #0
	strh	r3, [fp, #-8]	@ movhi
.L13:
.LBB5:
	.loc 1 252 13
	ldrsh	r3, [fp, #-8]
	str	r3, [fp, #-52]
	.loc 1 252 18
	ldr	r0, [fp, #-52]
	movw	r3, #:lower16:.LC0
	movt	r3, #:upper16:.LC0
	mov	r2, #252
	mov	r1, #31
	bl	fb_ArraySngBoundChk
	str	r0, [fp, #-56]
	.loc 1 252 6
	ldr	r3, [fp, #-56]
	cmp	r3, #0
	beq	.L34
	.loc 1 252 4 discriminator 2
	ldr	r3, [fp, #-56]
	mov	pc, r3	@ indirect register jump
.L34:
	.loc 1 252 21
	nop
.L15:
	.loc 1 252 86
	ldrsh	r3, [fp, #-8]
	vmov	s15, r3	@ int
	vcvt.f64.s32	d6, s15
	.loc 1 252 105
	vldr.64	d5, .L38+8
	vdiv.f64	d7, d6, d5
	.loc 1 252 50
	ldr	r3, [fp, #-52]
	lsl	r3, r3, #2
	mov	r2, r3
	.loc 1 252 64
	movw	r3, #5096
	movt	r3, 153
	add	r3, r2, r3
	.loc 1 252 5
	ldr	r2, [fp, #-88]
	add	r3, r2, r3
	.loc 1 252 78
	vcvt.f32.f64	s15, d7
	.loc 1 252 76
	vstr.32	s15, [r3]
	.loc 1 253 13
	ldrsh	r3, [fp, #-8]
	str	r3, [fp, #-60]
	.loc 1 253 18
	ldr	r0, [fp, #-60]
	movw	r3, #:lower16:.LC0
	movt	r3, #:upper16:.LC0
	mov	r2, #253
	mov	r1, #31
	bl	fb_ArraySngBoundChk
	str	r0, [fp, #-64]
	.loc 1 253 6
	ldr	r3, [fp, #-64]
	cmp	r3, #0
	beq	.L35
	.loc 1 253 4 discriminator 2
	ldr	r3, [fp, #-64]
	mov	pc, r3	@ indirect register jump
.L35:
	.loc 1 253 21
	nop
.L17:
	.loc 1 253 13
	ldrsh	r3, [fp, #-8]
	str	r3, [fp, #-68]
	.loc 1 253 18
	ldr	r0, [fp, #-68]
	movw	r3, #:lower16:.LC0
	movt	r3, #:upper16:.LC0
	mov	r2, #253
	mov	r1, #31
	bl	fb_ArraySngBoundChk
	str	r0, [fp, #-72]
	.loc 1 253 6
	ldr	r3, [fp, #-72]
	cmp	r3, #0
	beq	.L36
	.loc 1 253 4 discriminator 5
	ldr	r3, [fp, #-72]
	mov	pc, r3	@ indirect register jump
.L36:
	.loc 1 253 21
	nop
.L19:
	.loc 1 253 126
	ldr	r3, [fp, #-60]
	lsl	r3, r3, #2
	mov	r2, r3
	.loc 1 253 140
	movw	r3, #5096
	movt	r3, 153
	add	r3, r2, r3
	.loc 1 253 81
	ldr	r2, [fp, #-88]
	add	r3, r2, r3
	.loc 1 253 80
	vldr.32	s15, [r3]
	.loc 1 253 50
	ldr	r3, [fp, #-68]
	lsl	r3, r3, #2
	mov	r2, r3
	.loc 1 253 64
	movw	r3, #6248
	movt	r3, 153
	add	r3, r2, r3
	.loc 1 253 5
	ldr	r2, [fp, #-88]
	add	r3, r2, r3
	.loc 1 253 153
	vldr.32	s14, .L38+16
	vsub.f32	s15, s14, s15
	.loc 1 253 76
	vstr.32	s15, [r3]
.L20:
.LBE5:
	.loc 1 254 7
	ldrh	r3, [fp, #-8]	@ movhi
	add	r3, r3, #1
	strh	r3, [fp, #-8]	@ movhi
.L21:
	.loc 1 254 5
	ldrsh	r3, [fp, #-8]
	cmp	r3, #31
	bgt	.L37
	.loc 1 254 26 discriminator 2
	b	.L13
.L37:
	.loc 1 254 3
	nop
.L22:
.LBE4:
	.loc 1 255 2
	mov	r1, #-16777216
	ldr	r0, [fp, #-88]
	bl	_ZN5XFONT9INTERFACE16FORECOLOR__set__Ej
	.loc 1 256 2
	mvn	r1, #0
	ldr	r0, [fp, #-88]
	bl	_ZN5XFONT9INTERFACE16BACKCOLOR__set__Ej
	.loc 1 257 10
	mov	r3, #0
	strb	r3, [fp, #-77]
	.loc 1 259 3
	ldr	r2, [fp, #-88]
	movw	r3, #6543
	movt	r3, 154
	add	r3, r2, r3
	.loc 1 259 38
	ldrsb	r2, [fp, #-77]
	strb	r2, [r3]
.L23:
	.loc 1 262 2
	ldr	r0, [fp, #-24]
	bl	fb_ErrorSetFuncName
	.loc 1 262 2
	ldr	r0, [fp, #-16]
	bl	fb_ErrorSetModName
	.loc 1 262 1
	nop
	sub	sp, fp, #4
	.cfi_def_cfa 13, 8
	@ sp needed
	pop	{fp, pc}
.L39:
	.align	3
.L38:
	.word	0
	.word	1081073664
	.word	0
	.word	1077870592
	.word	1065353216
	.cfi_endproc
.LFE0:
	.size	_ZN5XFONT9INTERFACEC1Ev, .-_ZN5XFONT9INTERFACEC1Ev
	.align	2
	.global	_ZN5XFONT9INTERFACED1Ev
	.syntax unified
	.arm
	.fpu vfp
	.type	_ZN5XFONT9INTERFACED1Ev, %function
_ZN5XFONT9INTERFACED1Ev:
.LFB1:
	.loc 1 265 1
	.cfi_startproc
	@ args = 0, pretend = 0, frame = 32
	@ frame_needed = 1, uses_anonymous_args = 0
	push	{fp, lr}
	.cfi_def_cfa_offset 8
	.cfi_offset 11, -8
	.cfi_offset 14, -4
	add	fp, sp, #4
	.cfi_def_cfa 11, 4
	sub	sp, sp, #32
	str	r0, [fp, #-32]
.L41:
	.loc 1 265 16
	movw	r0, #:lower16:.LC0
	movt	r0, #:upper16:.LC0
	bl	fb_ErrorSetModName
	str	r0, [fp, #-8]
	.loc 1 265 11
	ldr	r3, [fp, #-8]
	str	r3, [fp, #-12]
	.loc 1 265 16
	movw	r0, #:lower16:.LC1
	movt	r0, #:upper16:.LC1
	bl	fb_ErrorSetFuncName
	str	r0, [fp, #-16]
	.loc 1 265 11
	ldr	r3, [fp, #-16]
	str	r3, [fp, #-20]
	mov	r3, #0
	strb	r3, [fp, #-21]
	.loc 1 268 7
	mov	r3, #0
	strb	r3, [fp, #-21]
.L42:
	.loc 1 269 4
	ldrb	r3, [fp, #-21]	@ zero_extendqisi2
	mov	r1, r3
	ldr	r0, [fp, #-32]
	bl	_ZN5XFONT9INTERFACE18BACKEND_UNLOADFONTEh
.L43:
	.loc 1 270 28
	ldrb	r3, [fp, #-21]	@ zero_extendqisi2
	sxtb	r3, r3
	add	r3, r3, #1
	sxtb	r3, r3
	.loc 1 270 9
	uxtb	r3, r3
	.loc 1 270 7
	strb	r3, [fp, #-21]
.L44:
	.loc 1 270 18
	ldrb	r3, [fp, #-21]	@ zero_extendqisi2
	.loc 1 270 5
	cmp	r3, #8
	bhi	.L47
	.loc 1 270 25 discriminator 2
	b	.L42
.L45:
.L47:
	.loc 1 270 3
	nop
.L46:
	.loc 1 271 2
	ldr	r0, [fp, #-20]
	bl	fb_ErrorSetFuncName
	.loc 1 271 2
	ldr	r0, [fp, #-12]
	bl	fb_ErrorSetModName
	.loc 1 271 1
	nop
	sub	sp, fp, #4
	.cfi_def_cfa 13, 8
	@ sp needed
	pop	{fp, pc}
	.cfi_endproc
.LFE1:
	.size	_ZN5XFONT9INTERFACED1Ev, .-_ZN5XFONT9INTERFACED1Ev
	.section	.rodata
	.align	2
.LC2:
	.ascii	"ISLOADED\000"
	.text
	.align	2
	.global	_ZN5XFONT9INTERFACE15ISLOADED__get__Eh
	.syntax unified
	.arm
	.fpu vfp
	.type	_ZN5XFONT9INTERFACE15ISLOADED__get__Eh, %function
_ZN5XFONT9INTERFACE15ISLOADED__get__Eh:
.LFB2:
	.loc 1 273 1
	.cfi_startproc
	@ args = 0, pretend = 0, frame = 40
	@ frame_needed = 1, uses_anonymous_args = 0
	push	{fp, lr}
	.cfi_def_cfa_offset 8
	.cfi_offset 11, -8
	.cfi_offset 14, -4
	add	fp, sp, #4
	.cfi_def_cfa 11, 4
	sub	sp, sp, #40
	str	r0, [fp, #-40]
	mov	r3, r1
	strb	r3, [fp, #-41]
	mov	r3, #0
	strb	r3, [fp, #-29]
	.loc 1 273 16
	movw	r0, #:lower16:.LC0
	movt	r0, #:upper16:.LC0
	bl	fb_ErrorSetModName
	str	r0, [fp, #-8]
	.loc 1 273 11
	ldr	r3, [fp, #-8]
	str	r3, [fp, #-12]
	.loc 1 273 16
	movw	r0, #:lower16:.LC2
	movt	r0, #:upper16:.LC2
	bl	fb_ErrorSetFuncName
	str	r0, [fp, #-16]
	.loc 1 273 11
	ldr	r3, [fp, #-16]
	str	r3, [fp, #-20]
.L49:
	.loc 1 274 4
	ldrb	r3, [fp, #-41]	@ zero_extendqisi2
	cmp	r3, #8
	bls	.L59
	.loc 1 275 15
	mov	r3, #0
	strb	r3, [fp, #-29]
	.loc 1 275 3
	b	.L52
.L51:
.L59:
	.loc 1 274 71
	nop
.L53:
	.loc 1 277 11
	ldrb	r3, [fp, #-41]	@ zero_extendqisi2
	str	r3, [fp, #-24]
	.loc 1 277 15
	ldr	r0, [fp, #-24]
	movw	r3, #:lower16:.LC0
	movt	r3, #:upper16:.LC0
	movw	r2, #277
	mov	r1, #8
	bl	fb_ArraySngBoundChk
	str	r0, [fp, #-28]
	.loc 1 277 4
	ldr	r3, [fp, #-28]
	cmp	r3, #0
	beq	.L60
	.loc 1 277 2 discriminator 2
	ldr	r3, [fp, #-28]
	mov	pc, r3	@ indirect register jump
.L60:
	.loc 1 277 18
	nop
.L55:
	.loc 1 277 61
	ldr	r2, [fp, #-24]
	mov	r3, #452
	movt	r3, 17
	mul	r3, r3, r2
	.loc 1 277 73
	add	r3, r3, #1114112
	add	r3, r3, #448
	.loc 1 277 17
	ldr	r2, [fp, #-40]
	add	r3, r2, r3
	.loc 1 277 16
	ldrsb	r3, [r3]
	.loc 1 277 14
	strb	r3, [fp, #-29]
	.loc 1 277 2
	nop
.L52:
	.loc 1 278 2
	ldr	r0, [fp, #-20]
	bl	fb_ErrorSetFuncName
	.loc 1 278 2
	ldr	r0, [fp, #-12]
	bl	fb_ErrorSetModName
	.loc 1 278 9
	ldrsb	r3, [fp, #-29]
	.loc 1 278 1
	mov	r0, r3
	sub	sp, fp, #4
	.cfi_def_cfa 13, 8
	@ sp needed
	pop	{fp, pc}
	.cfi_endproc
.LFE2:
	.size	_ZN5XFONT9INTERFACE15ISLOADED__get__Eh, .-_ZN5XFONT9INTERFACE15ISLOADED__get__Eh
	.section	.rodata
	.align	2
.LC3:
	.ascii	"USEVIEWPORT\000"
	.text
	.align	2
	.global	_ZN5XFONT9INTERFACE18USEVIEWPORT__get__Ev
	.syntax unified
	.arm
	.fpu vfp
	.type	_ZN5XFONT9INTERFACE18USEVIEWPORT__get__Ev, %function
_ZN5XFONT9INTERFACE18USEVIEWPORT__get__Ev:
.LFB3:
	.loc 1 280 1
	.cfi_startproc
	@ args = 0, pretend = 0, frame = 32
	@ frame_needed = 1, uses_anonymous_args = 0
	push	{fp, lr}
	.cfi_def_cfa_offset 8
	.cfi_offset 11, -8
	.cfi_offset 14, -4
	add	fp, sp, #4
	.cfi_def_cfa 11, 4
	sub	sp, sp, #32
	str	r0, [fp, #-32]
	mov	r3, #0
	strb	r3, [fp, #-21]
	.loc 1 280 16
	movw	r0, #:lower16:.LC0
	movt	r0, #:upper16:.LC0
	bl	fb_ErrorSetModName
	str	r0, [fp, #-8]
	.loc 1 280 11
	ldr	r3, [fp, #-8]
	str	r3, [fp, #-12]
	.loc 1 280 16
	movw	r0, #:lower16:.LC3
	movt	r0, #:upper16:.LC3
	bl	fb_ErrorSetFuncName
	str	r0, [fp, #-16]
	.loc 1 280 11
	ldr	r3, [fp, #-16]
	str	r3, [fp, #-20]
.L62:
	.loc 1 281 14
	ldr	r3, [fp, #-32]
	add	r3, r3, #10092544
	add	r3, r3, #4096
	add	r3, r3, #2448
	ldrsb	r3, [r3]
	strb	r3, [fp, #-21]
	.loc 1 281 2
	nop
.L63:
	.loc 1 282 2
	ldr	r0, [fp, #-20]
	bl	fb_ErrorSetFuncName
	.loc 1 282 2
	ldr	r0, [fp, #-12]
	bl	fb_ErrorSetModName
	.loc 1 282 9
	ldrsb	r3, [fp, #-21]
	.loc 1 282 1
	mov	r0, r3
	sub	sp, fp, #4
	.cfi_def_cfa 13, 8
	@ sp needed
	pop	{fp, pc}
	.cfi_endproc
.LFE3:
	.size	_ZN5XFONT9INTERFACE18USEVIEWPORT__get__Ev, .-_ZN5XFONT9INTERFACE18USEVIEWPORT__get__Ev
	.align	2
	.global	_ZN5XFONT9INTERFACE18USEVIEWPORT__set__Ea
	.syntax unified
	.arm
	.fpu vfp
	.type	_ZN5XFONT9INTERFACE18USEVIEWPORT__set__Ea, %function
_ZN5XFONT9INTERFACE18USEVIEWPORT__set__Ea:
.LFB4:
	.loc 1 284 1
	.cfi_startproc
	@ args = 0, pretend = 0, frame = 24
	@ frame_needed = 1, uses_anonymous_args = 0
	push	{fp, lr}
	.cfi_def_cfa_offset 8
	.cfi_offset 11, -8
	.cfi_offset 14, -4
	add	fp, sp, #4
	.cfi_def_cfa 11, 4
	sub	sp, sp, #24
	str	r0, [fp, #-24]
	mov	r3, r1
	strb	r3, [fp, #-25]
.L66:
	.loc 1 284 16
	movw	r0, #:lower16:.LC0
	movt	r0, #:upper16:.LC0
	bl	fb_ErrorSetModName
	str	r0, [fp, #-8]
	.loc 1 284 11
	ldr	r3, [fp, #-8]
	str	r3, [fp, #-12]
	.loc 1 284 16
	movw	r0, #:lower16:.LC3
	movt	r0, #:upper16:.LC3
	bl	fb_ErrorSetFuncName
	str	r0, [fp, #-16]
	.loc 1 284 11
	ldr	r3, [fp, #-16]
	str	r3, [fp, #-20]
	.loc 1 285 4
	ldrsb	r3, [fp, #-25]
	cmp	r3, #0
	bne	.L72
	.loc 1 286 4
	ldr	r2, [fp, #-24]
	movw	r3, #6544
	movt	r3, 154
	add	r3, r2, r3
	.loc 1 286 39
	mov	r2, #0
	strb	r2, [r3]
	.loc 1 287 2
	b	.L70
.L72:
	.loc 1 285 33
	nop
.L68:
	.loc 1 288 4
	ldr	r2, [fp, #-24]
	movw	r3, #6544
	movt	r3, 154
	add	r3, r2, r3
	.loc 1 288 39
	mvn	r2, #0
	strb	r2, [r3]
.L69:
.L70:
	.loc 1 290 2
	ldr	r0, [fp, #-20]
	bl	fb_ErrorSetFuncName
	.loc 1 290 2
	ldr	r0, [fp, #-12]
	bl	fb_ErrorSetModName
	.loc 1 290 1
	nop
	sub	sp, fp, #4
	.cfi_def_cfa 13, 8
	@ sp needed
	pop	{fp, pc}
	.cfi_endproc
.LFE4:
	.size	_ZN5XFONT9INTERFACE18USEVIEWPORT__set__Ea, .-_ZN5XFONT9INTERFACE18USEVIEWPORT__set__Ea
	.section	.rodata
	.align	2
.LC4:
	.ascii	"AUTOREDRAW\000"
	.text
	.align	2
	.global	_ZN5XFONT9INTERFACE17AUTOREDRAW__get__Ev
	.syntax unified
	.arm
	.fpu vfp
	.type	_ZN5XFONT9INTERFACE17AUTOREDRAW__get__Ev, %function
_ZN5XFONT9INTERFACE17AUTOREDRAW__get__Ev:
.LFB5:
	.loc 1 293 1
	.cfi_startproc
	@ args = 0, pretend = 0, frame = 32
	@ frame_needed = 1, uses_anonymous_args = 0
	push	{fp, lr}
	.cfi_def_cfa_offset 8
	.cfi_offset 11, -8
	.cfi_offset 14, -4
	add	fp, sp, #4
	.cfi_def_cfa 11, 4
	sub	sp, sp, #32
	str	r0, [fp, #-32]
	mov	r3, #0
	strb	r3, [fp, #-21]
	.loc 1 293 16
	movw	r0, #:lower16:.LC0
	movt	r0, #:upper16:.LC0
	bl	fb_ErrorSetModName
	str	r0, [fp, #-8]
	.loc 1 293 11
	ldr	r3, [fp, #-8]
	str	r3, [fp, #-12]
	.loc 1 293 16
	movw	r0, #:lower16:.LC4
	movt	r0, #:upper16:.LC4
	bl	fb_ErrorSetFuncName
	str	r0, [fp, #-16]
	.loc 1 293 11
	ldr	r3, [fp, #-16]
	str	r3, [fp, #-20]
.L74:
	.loc 1 294 14
	ldr	r3, [fp, #-32]
	add	r3, r3, #10092544
	add	r3, r3, #4096
	add	r3, r3, #2432
	add	r3, r3, #15
	ldrsb	r3, [r3]
	strb	r3, [fp, #-21]
	.loc 1 294 2
	nop
.L75:
	.loc 1 295 2
	ldr	r0, [fp, #-20]
	bl	fb_ErrorSetFuncName
	.loc 1 295 2
	ldr	r0, [fp, #-12]
	bl	fb_ErrorSetModName
	.loc 1 295 9
	ldrsb	r3, [fp, #-21]
	.loc 1 295 1
	mov	r0, r3
	sub	sp, fp, #4
	.cfi_def_cfa 13, 8
	@ sp needed
	pop	{fp, pc}
	.cfi_endproc
.LFE5:
	.size	_ZN5XFONT9INTERFACE17AUTOREDRAW__get__Ev, .-_ZN5XFONT9INTERFACE17AUTOREDRAW__get__Ev
	.align	2
	.global	_ZN5XFONT9INTERFACE17AUTOREDRAW__set__Ea
	.syntax unified
	.arm
	.fpu vfp
	.type	_ZN5XFONT9INTERFACE17AUTOREDRAW__set__Ea, %function
_ZN5XFONT9INTERFACE17AUTOREDRAW__set__Ea:
.LFB6:
	.loc 1 298 1
	.cfi_startproc
	@ args = 0, pretend = 0, frame = 24
	@ frame_needed = 1, uses_anonymous_args = 0
	push	{fp, lr}
	.cfi_def_cfa_offset 8
	.cfi_offset 11, -8
	.cfi_offset 14, -4
	add	fp, sp, #4
	.cfi_def_cfa 11, 4
	sub	sp, sp, #24
	str	r0, [fp, #-24]
	mov	r3, r1
	strb	r3, [fp, #-25]
.L78:
	.loc 1 298 16
	movw	r0, #:lower16:.LC0
	movt	r0, #:upper16:.LC0
	bl	fb_ErrorSetModName
	str	r0, [fp, #-8]
	.loc 1 298 11
	ldr	r3, [fp, #-8]
	str	r3, [fp, #-12]
	.loc 1 298 16
	movw	r0, #:lower16:.LC4
	movt	r0, #:upper16:.LC4
	bl	fb_ErrorSetFuncName
	str	r0, [fp, #-16]
	.loc 1 298 11
	ldr	r3, [fp, #-16]
	str	r3, [fp, #-20]
	.loc 1 299 4
	ldrsb	r3, [fp, #-25]
	cmp	r3, #0
	bne	.L84
	.loc 1 300 4
	ldr	r2, [fp, #-24]
	movw	r3, #6543
	movt	r3, 154
	add	r3, r2, r3
	.loc 1 300 39
	mov	r2, #0
	strb	r2, [r3]
	.loc 1 301 2
	b	.L82
.L84:
	.loc 1 299 33
	nop
.L80:
	.loc 1 302 4
	ldr	r2, [fp, #-24]
	movw	r3, #6543
	movt	r3, 154
	add	r3, r2, r3
	.loc 1 302 39
	mvn	r2, #0
	strb	r2, [r3]
.L81:
.L82:
	.loc 1 304 2
	ldr	r0, [fp, #-20]
	bl	fb_ErrorSetFuncName
	.loc 1 304 2
	ldr	r0, [fp, #-12]
	bl	fb_ErrorSetModName
	.loc 1 304 1
	nop
	sub	sp, fp, #4
	.cfi_def_cfa 13, 8
	@ sp needed
	pop	{fp, pc}
	.cfi_endproc
.LFE6:
	.size	_ZN5XFONT9INTERFACE17AUTOREDRAW__set__Ea, .-_ZN5XFONT9INTERFACE17AUTOREDRAW__set__Ea
	.section	.rodata
	.align	2
.LC5:
	.ascii	"LASTERROR\000"
	.text
	.align	2
	.global	_ZN5XFONT9INTERFACE16LASTERROR__get__Ev
	.syntax unified
	.arm
	.fpu vfp
	.type	_ZN5XFONT9INTERFACE16LASTERROR__get__Ev, %function
_ZN5XFONT9INTERFACE16LASTERROR__get__Ev:
.LFB7:
	.loc 1 308 1
	.cfi_startproc
	@ args = 0, pretend = 0, frame = 32
	@ frame_needed = 1, uses_anonymous_args = 0
	push	{fp, lr}
	.cfi_def_cfa_offset 8
	.cfi_offset 11, -8
	.cfi_offset 14, -4
	add	fp, sp, #4
	.cfi_def_cfa 11, 4
	sub	sp, sp, #32
	str	r0, [fp, #-32]
	mov	r3, #0
	str	r3, [fp, #-24]
	.loc 1 308 16
	movw	r0, #:lower16:.LC0
	movt	r0, #:upper16:.LC0
	bl	fb_ErrorSetModName
	str	r0, [fp, #-8]
	.loc 1 308 11
	ldr	r3, [fp, #-8]
	str	r3, [fp, #-12]
	.loc 1 308 16
	movw	r0, #:lower16:.LC5
	movt	r0, #:upper16:.LC5
	bl	fb_ErrorSetFuncName
	str	r0, [fp, #-16]
	.loc 1 308 11
	ldr	r3, [fp, #-16]
	str	r3, [fp, #-20]
.L86:
	.loc 1 309 14
	ldr	r3, [fp, #-32]
	add	r3, r3, #10027008
	ldr	r3, [r3, #4068]
	str	r3, [fp, #-24]
	.loc 1 309 2
	nop
.L87:
	.loc 1 310 2
	ldr	r0, [fp, #-20]
	bl	fb_ErrorSetFuncName
	.loc 1 310 2
	ldr	r0, [fp, #-12]
	bl	fb_ErrorSetModName
	.loc 1 310 9
	ldr	r3, [fp, #-24]
	.loc 1 310 1
	mov	r0, r3
	sub	sp, fp, #4
	.cfi_def_cfa 13, 8
	@ sp needed
	pop	{fp, pc}
	.cfi_endproc
.LFE7:
	.size	_ZN5XFONT9INTERFACE16LASTERROR__get__Ev, .-_ZN5XFONT9INTERFACE16LASTERROR__get__Ev
	.section	.rodata
	.align	2
.LC6:
	.ascii	"CLEARERROR\000"
	.text
	.align	2
	.global	_ZN5XFONT9INTERFACE10CLEARERROREv
	.syntax unified
	.arm
	.fpu vfp
	.type	_ZN5XFONT9INTERFACE10CLEARERROREv, %function
_ZN5XFONT9INTERFACE10CLEARERROREv:
.LFB8:
	.loc 1 313 1
	.cfi_startproc
	@ args = 0, pretend = 0, frame = 24
	@ frame_needed = 1, uses_anonymous_args = 0
	push	{fp, lr}
	.cfi_def_cfa_offset 8
	.cfi_offset 11, -8
	.cfi_offset 14, -4
	add	fp, sp, #4
	.cfi_def_cfa 11, 4
	sub	sp, sp, #24
	str	r0, [fp, #-24]
.L90:
	.loc 1 313 16
	movw	r0, #:lower16:.LC0
	movt	r0, #:upper16:.LC0
	bl	fb_ErrorSetModName
	str	r0, [fp, #-8]
	.loc 1 313 11
	ldr	r3, [fp, #-8]
	str	r3, [fp, #-12]
	.loc 1 313 16
	movw	r0, #:lower16:.LC6
	movt	r0, #:upper16:.LC6
	bl	fb_ErrorSetFuncName
	str	r0, [fp, #-16]
	.loc 1 313 11
	ldr	r3, [fp, #-16]
	str	r3, [fp, #-20]
	.loc 1 314 3
	ldr	r2, [fp, #-24]
	movw	r3, #4068
	movt	r3, 153
	add	r3, r2, r3
	.loc 1 314 39
	mov	r2, #0
	str	r2, [r3]
.L91:
	.loc 1 315 2
	ldr	r0, [fp, #-20]
	bl	fb_ErrorSetFuncName
	.loc 1 315 2
	ldr	r0, [fp, #-12]
	bl	fb_ErrorSetModName
	.loc 1 315 1
	nop
	sub	sp, fp, #4
	.cfi_def_cfa 13, 8
	@ sp needed
	pop	{fp, pc}
	.cfi_endproc
.LFE8:
	.size	_ZN5XFONT9INTERFACE10CLEARERROREv, .-_ZN5XFONT9INTERFACE10CLEARERROREv
	.section	.rodata
	.align	2
.LC7:
	.ascii	"FONTINDEX\000"
	.text
	.align	2
	.global	_ZN5XFONT9INTERFACE16FONTINDEX__get__Ev
	.syntax unified
	.arm
	.fpu vfp
	.type	_ZN5XFONT9INTERFACE16FONTINDEX__get__Ev, %function
_ZN5XFONT9INTERFACE16FONTINDEX__get__Ev:
.LFB9:
	.loc 1 318 1
	.cfi_startproc
	@ args = 0, pretend = 0, frame = 32
	@ frame_needed = 1, uses_anonymous_args = 0
	push	{fp, lr}
	.cfi_def_cfa_offset 8
	.cfi_offset 11, -8
	.cfi_offset 14, -4
	add	fp, sp, #4
	.cfi_def_cfa 11, 4
	sub	sp, sp, #32
	str	r0, [fp, #-32]
	mov	r3, #0
	strb	r3, [fp, #-21]
	.loc 1 318 16
	movw	r0, #:lower16:.LC0
	movt	r0, #:upper16:.LC0
	bl	fb_ErrorSetModName
	str	r0, [fp, #-8]
	.loc 1 318 11
	ldr	r3, [fp, #-8]
	str	r3, [fp, #-12]
	.loc 1 318 16
	movw	r0, #:lower16:.LC7
	movt	r0, #:upper16:.LC7
	bl	fb_ErrorSetFuncName
	str	r0, [fp, #-16]
	.loc 1 318 11
	ldr	r3, [fp, #-16]
	str	r3, [fp, #-20]
.L93:
	.loc 1 319 24
	ldr	r2, [fp, #-32]
	movw	r3, #6540
	movt	r3, 154
	add	r3, r2, r3
	.loc 1 319 23
	ldrh	r3, [r3]
	.loc 1 319 16
	uxtb	r3, r3
	.loc 1 319 14
	strb	r3, [fp, #-21]
	.loc 1 319 2
	nop
.L94:
	.loc 1 320 2
	ldr	r0, [fp, #-20]
	bl	fb_ErrorSetFuncName
	.loc 1 320 2
	ldr	r0, [fp, #-12]
	bl	fb_ErrorSetModName
	.loc 1 320 9
	ldrb	r3, [fp, #-21]	@ zero_extendqisi2
	.loc 1 320 1
	mov	r0, r3
	sub	sp, fp, #4
	.cfi_def_cfa 13, 8
	@ sp needed
	pop	{fp, pc}
	.cfi_endproc
.LFE9:
	.size	_ZN5XFONT9INTERFACE16FONTINDEX__get__Ev, .-_ZN5XFONT9INTERFACE16FONTINDEX__get__Ev
	.align	2
	.global	_ZN5XFONT9INTERFACE16FONTINDEX__set__Eh
	.syntax unified
	.arm
	.fpu vfp
	.type	_ZN5XFONT9INTERFACE16FONTINDEX__set__Eh, %function
_ZN5XFONT9INTERFACE16FONTINDEX__set__Eh:
.LFB10:
	.loc 1 323 1
	.cfi_startproc
	@ args = 0, pretend = 0, frame = 32
	@ frame_needed = 1, uses_anonymous_args = 0
	push	{fp, lr}
	.cfi_def_cfa_offset 8
	.cfi_offset 11, -8
	.cfi_offset 14, -4
	add	fp, sp, #4
	.cfi_def_cfa 11, 4
	sub	sp, sp, #32
	str	r0, [fp, #-32]
	mov	r3, r1
	strb	r3, [fp, #-33]
.L97:
	.loc 1 323 16
	movw	r0, #:lower16:.LC0
	movt	r0, #:upper16:.LC0
	bl	fb_ErrorSetModName
	str	r0, [fp, #-8]
	.loc 1 323 11
	ldr	r3, [fp, #-8]
	str	r3, [fp, #-12]
	.loc 1 323 16
	movw	r0, #:lower16:.LC7
	movt	r0, #:upper16:.LC7
	bl	fb_ErrorSetFuncName
	str	r0, [fp, #-16]
	.loc 1 323 11
	ldr	r3, [fp, #-16]
	str	r3, [fp, #-20]
	.loc 1 324 4
	ldrb	r3, [fp, #-33]	@ zero_extendqisi2
	cmp	r3, #8
	bls	.L110
	.loc 1 325 4
	ldr	r2, [fp, #-32]
	movw	r3, #4068
	movt	r3, 153
	add	r3, r2, r3
	.loc 1 325 40
	mov	r2, #102
	str	r2, [r3]
	.loc 1 326 3
	b	.L100
.L99:
.L110:
	.loc 1 324 71
	nop
.L101:
	.loc 1 328 11
	ldrb	r3, [fp, #-33]	@ zero_extendqisi2
	str	r3, [fp, #-24]
	.loc 1 328 15
	ldr	r0, [fp, #-24]
	movw	r3, #:lower16:.LC0
	movt	r3, #:upper16:.LC0
	mov	r2, #328
	mov	r1, #8
	bl	fb_ArraySngBoundChk
	str	r0, [fp, #-28]
	.loc 1 328 4
	ldr	r3, [fp, #-28]
	cmp	r3, #0
	beq	.L111
	.loc 1 328 2 discriminator 2
	ldr	r3, [fp, #-28]
	mov	pc, r3	@ indirect register jump
.L111:
	.loc 1 328 18
	nop
.L103:
	.loc 1 328 59
	ldr	r2, [fp, #-24]
	mov	r3, #452
	movt	r3, 17
	mul	r3, r3, r2
	.loc 1 328 71
	add	r3, r3, #1114112
	add	r3, r3, #448
	.loc 1 328 15
	ldr	r2, [fp, #-32]
	add	r3, r2, r3
	.loc 1 328 14
	ldrsb	r3, [r3]
	.loc 1 328 4
	cmn	r3, #1
	beq	.L112
	.loc 1 329 4
	ldr	r2, [fp, #-32]
	movw	r3, #4068
	movt	r3, 153
	add	r3, r2, r3
	.loc 1 329 40
	mov	r2, #106
	str	r2, [r3]
	.loc 1 330 3
	b	.L100
.L105:
.L112:
	.loc 1 328 89
	nop
.L106:
	.loc 1 332 3
	ldr	r2, [fp, #-32]
	movw	r3, #6540
	movt	r3, 154
	add	r3, r2, r3
	.loc 1 332 42
	ldrb	r2, [fp, #-33]	@ zero_extendqisi2
	uxth	r2, r2
	.loc 1 332 40
	strh	r2, [r3]	@ movhi
.L100:
	.loc 1 333 2
	ldr	r0, [fp, #-20]
	bl	fb_ErrorSetFuncName
	.loc 1 333 2
	ldr	r0, [fp, #-12]
	bl	fb_ErrorSetModName
	.loc 1 333 1
	nop
	sub	sp, fp, #4
	.cfi_def_cfa 13, 8
	@ sp needed
	pop	{fp, pc}
	.cfi_endproc
.LFE10:
	.size	_ZN5XFONT9INTERFACE16FONTINDEX__set__Eh, .-_ZN5XFONT9INTERFACE16FONTINDEX__set__Eh
	.section	.rodata
	.align	2
.LC8:
	.ascii	"TEXTHEIGHT\000"
	.text
	.align	2
	.global	_ZN5XFONT9INTERFACE17TEXTHEIGHT__get__Ev
	.syntax unified
	.arm
	.fpu vfp
	.type	_ZN5XFONT9INTERFACE17TEXTHEIGHT__get__Ev, %function
_ZN5XFONT9INTERFACE17TEXTHEIGHT__get__Ev:
.LFB11:
	.loc 1 337 1
	.cfi_startproc
	@ args = 0, pretend = 0, frame = 40
	@ frame_needed = 1, uses_anonymous_args = 0
	push	{fp, lr}
	.cfi_def_cfa_offset 8
	.cfi_offset 11, -8
	.cfi_offset 14, -4
	add	fp, sp, #4
	.cfi_def_cfa 11, 4
	sub	sp, sp, #40
	str	r0, [fp, #-40]
	mov	r3, #0
	strh	r3, [fp, #-30]	@ movhi
	.loc 1 337 16
	movw	r0, #:lower16:.LC0
	movt	r0, #:upper16:.LC0
	bl	fb_ErrorSetModName
	str	r0, [fp, #-8]
	.loc 1 337 11
	ldr	r3, [fp, #-8]
	str	r3, [fp, #-12]
	.loc 1 337 16
	movw	r0, #:lower16:.LC8
	movt	r0, #:upper16:.LC8
	bl	fb_ErrorSetFuncName
	str	r0, [fp, #-16]
	.loc 1 337 11
	ldr	r3, [fp, #-16]
	str	r3, [fp, #-20]
.L114:
	.loc 1 338 21
	ldr	r2, [fp, #-40]
	movw	r3, #6540
	movt	r3, 154
	add	r3, r2, r3
	.loc 1 338 20
	ldrh	r3, [r3]
	.loc 1 338 11
	str	r3, [fp, #-24]
	.loc 1 338 15
	ldr	r0, [fp, #-24]
	movw	r3, #:lower16:.LC0
	movt	r3, #:upper16:.LC0
	movw	r2, #338
	mov	r1, #8
	bl	fb_ArraySngBoundChk
	str	r0, [fp, #-28]
	.loc 1 338 4
	ldr	r3, [fp, #-28]
	cmp	r3, #0
	beq	.L120
	.loc 1 338 2 discriminator 2
	ldr	r3, [fp, #-28]
	mov	pc, r3	@ indirect register jump
.L120:
	.loc 1 338 18
	nop
.L116:
	.loc 1 338 63
	ldr	r2, [fp, #-24]
	mov	r3, #452
	movt	r3, 17
	mul	r3, r3, r2
	.loc 1 338 75
	add	r3, r3, #412
	add	r3, r3, #3
	.loc 1 338 17
	ldr	r2, [fp, #-40]
	add	r3, r2, r3
	.loc 1 338 16
	ldrh	r3, [r3]
	.loc 1 338 14
	strh	r3, [fp, #-30]	@ movhi
	.loc 1 338 2
	nop
.L117:
	.loc 1 339 2
	ldr	r0, [fp, #-20]
	bl	fb_ErrorSetFuncName
	.loc 1 339 2
	ldr	r0, [fp, #-12]
	bl	fb_ErrorSetModName
	.loc 1 339 9
	ldrh	r3, [fp, #-30]
	.loc 1 339 1
	mov	r0, r3
	sub	sp, fp, #4
	.cfi_def_cfa 13, 8
	@ sp needed
	pop	{fp, pc}
	.cfi_endproc
.LFE11:
	.size	_ZN5XFONT9INTERFACE17TEXTHEIGHT__get__Ev, .-_ZN5XFONT9INTERFACE17TEXTHEIGHT__get__Ev
	.section	.rodata
	.align	2
.LC9:
	.ascii	"TEXTSIZE\000"
	.text
	.align	2
	.global	_ZN5XFONT9INTERFACE15TEXTSIZE__get__Ev
	.syntax unified
	.arm
	.fpu vfp
	.type	_ZN5XFONT9INTERFACE15TEXTSIZE__get__Ev, %function
_ZN5XFONT9INTERFACE15TEXTSIZE__get__Ev:
.LFB12:
	.loc 1 342 1
	.cfi_startproc
	@ args = 0, pretend = 0, frame = 40
	@ frame_needed = 1, uses_anonymous_args = 0
	push	{fp, lr}
	.cfi_def_cfa_offset 8
	.cfi_offset 11, -8
	.cfi_offset 14, -4
	add	fp, sp, #4
	.cfi_def_cfa 11, 4
	sub	sp, sp, #40
	str	r0, [fp, #-40]
	mov	r3, #0
	strh	r3, [fp, #-30]	@ movhi
	.loc 1 342 16
	movw	r0, #:lower16:.LC0
	movt	r0, #:upper16:.LC0
	bl	fb_ErrorSetModName
	str	r0, [fp, #-8]
	.loc 1 342 11
	ldr	r3, [fp, #-8]
	str	r3, [fp, #-12]
	.loc 1 342 16
	movw	r0, #:lower16:.LC9
	movt	r0, #:upper16:.LC9
	bl	fb_ErrorSetFuncName
	str	r0, [fp, #-16]
	.loc 1 342 11
	ldr	r3, [fp, #-16]
	str	r3, [fp, #-20]
.L122:
	.loc 1 343 21
	ldr	r2, [fp, #-40]
	movw	r3, #6540
	movt	r3, 154
	add	r3, r2, r3
	.loc 1 343 20
	ldrh	r3, [r3]
	.loc 1 343 11
	str	r3, [fp, #-24]
	.loc 1 343 15
	ldr	r0, [fp, #-24]
	movw	r3, #:lower16:.LC0
	movt	r3, #:upper16:.LC0
	movw	r2, #343
	mov	r1, #8
	bl	fb_ArraySngBoundChk
	str	r0, [fp, #-28]
	.loc 1 343 4
	ldr	r3, [fp, #-28]
	cmp	r3, #0
	beq	.L128
	.loc 1 343 2 discriminator 2
	ldr	r3, [fp, #-28]
	mov	pc, r3	@ indirect register jump
.L128:
	.loc 1 343 18
	nop
.L124:
	.loc 1 343 63
	ldr	r2, [fp, #-24]
	mov	r3, #452
	movt	r3, 17
	mul	r3, r3, r2
	.loc 1 343 75
	add	r3, r3, #412
	add	r3, r3, #1
	.loc 1 343 17
	ldr	r2, [fp, #-40]
	add	r3, r2, r3
	.loc 1 343 16
	ldrh	r3, [r3]
	.loc 1 343 14
	strh	r3, [fp, #-30]	@ movhi
	.loc 1 343 2
	nop
.L125:
	.loc 1 344 2
	ldr	r0, [fp, #-20]
	bl	fb_ErrorSetFuncName
	.loc 1 344 2
	ldr	r0, [fp, #-12]
	bl	fb_ErrorSetModName
	.loc 1 344 9
	ldrh	r3, [fp, #-30]
	.loc 1 344 1
	mov	r0, r3
	sub	sp, fp, #4
	.cfi_def_cfa 13, 8
	@ sp needed
	pop	{fp, pc}
	.cfi_endproc
.LFE12:
	.size	_ZN5XFONT9INTERFACE15TEXTSIZE__get__Ev, .-_ZN5XFONT9INTERFACE15TEXTSIZE__get__Ev
	.section	.rodata
	.align	2
.LC10:
	.ascii	"FONTNAME\000"
	.text
	.align	2
	.global	_ZN5XFONT9INTERFACE15FONTNAME__get__Ev
	.syntax unified
	.arm
	.fpu vfp
	.type	_ZN5XFONT9INTERFACE15FONTNAME__get__Ev, %function
_ZN5XFONT9INTERFACE15FONTNAME__get__Ev:
.LFB13:
	.loc 1 347 1
	.cfi_startproc
	@ args = 0, pretend = 0, frame = 64
	@ frame_needed = 1, uses_anonymous_args = 0
	push	{fp, lr}
	.cfi_def_cfa_offset 8
	.cfi_offset 11, -8
	.cfi_offset 14, -4
	add	fp, sp, #4
	.cfi_def_cfa 11, 4
	sub	sp, sp, #72
	str	r0, [fp, #-64]
	.loc 1 347 2
	sub	r3, fp, #56
	mov	r2, r3
	mov	r3, #0
	str	r3, [r2]
	str	r3, [r2, #4]
	str	r3, [r2, #8]
	.loc 1 347 16
	movw	r0, #:lower16:.LC0
	movt	r0, #:upper16:.LC0
	bl	fb_ErrorSetModName
	str	r0, [fp, #-8]
	.loc 1 347 11
	ldr	r3, [fp, #-8]
	str	r3, [fp, #-12]
	.loc 1 347 16
	movw	r0, #:lower16:.LC10
	movt	r0, #:upper16:.LC10
	bl	fb_ErrorSetFuncName
	str	r0, [fp, #-16]
	.loc 1 347 11
	ldr	r3, [fp, #-16]
	str	r3, [fp, #-20]
.L130:
.LBB6:
	.loc 1 348 22
	ldr	r2, [fp, #-64]
	movw	r3, #6540
	movt	r3, 154
	add	r3, r2, r3
	.loc 1 348 21
	ldrh	r3, [r3]
	.loc 1 348 12
	str	r3, [fp, #-24]
	.loc 1 348 16
	ldr	r0, [fp, #-24]
	movw	r3, #:lower16:.LC0
	movt	r3, #:upper16:.LC0
	mov	r2, #348
	mov	r1, #8
	bl	fb_ArraySngBoundChk
	str	r0, [fp, #-28]
	.loc 1 348 5
	ldr	r3, [fp, #-28]
	cmp	r3, #0
	beq	.L136
	.loc 1 348 3 discriminator 2
	ldr	r3, [fp, #-28]
	mov	pc, r3	@ indirect register jump
.L136:
	.loc 1 348 19
	nop
.L132:
	.loc 1 348 75
	ldr	r2, [fp, #-24]
	mov	r3, #452
	movt	r3, 17
	mul	r3, r3, r2
	mov	r2, r3
	.loc 1 348 12
	ldr	r3, [fp, #-64]
	add	r3, r3, r2
	str	r3, [fp, #-32]
	.loc 1 349 21
	ldr	r3, [fp, #-32]
	add	r3, r3, #219
	mov	r1, #193
	mov	r0, r3
	bl	fb_StrAllocTempDescF
	str	r0, [fp, #-36]
	.loc 1 349 56
	ldr	r3, [fp, #-32]
	add	r3, r3, #218
	.loc 1 349 55
	ldrb	r3, [r3]	@ zero_extendqisi2
	.loc 1 349 21
	mov	r1, r3
	ldr	r0, [fp, #-36]
	bl	fb_LEFT
	str	r0, [fp, #-40]
	.loc 1 349 3
	sub	r0, fp, #56
	mov	r3, #0
	str	r3, [sp]
	mvn	r3, #0
	ldr	r2, [fp, #-40]
	mvn	r1, #0
	bl	fb_StrInit
	.loc 1 349 3
	nop
.L133:
.LBE6:
	.loc 1 351 2
	ldr	r0, [fp, #-20]
	bl	fb_ErrorSetFuncName
	.loc 1 351 2
	ldr	r0, [fp, #-12]
	bl	fb_ErrorSetModName
	.loc 1 351 20
	sub	r3, fp, #56
	mov	r0, r3
	bl	fb_StrAllocTempResult
	str	r0, [fp, #-44]
	.loc 1 351 9
	ldr	r3, [fp, #-44]
	.loc 1 351 1
	mov	r0, r3
	sub	sp, fp, #4
	.cfi_def_cfa 13, 8
	@ sp needed
	pop	{fp, pc}
	.cfi_endproc
.LFE13:
	.size	_ZN5XFONT9INTERFACE15FONTNAME__get__Ev, .-_ZN5XFONT9INTERFACE15FONTNAME__get__Ev
	.section	.rodata
	.align	2
.LC11:
	.ascii	"BOLD\000"
	.text
	.align	2
	.global	_ZN5XFONT9INTERFACE11BOLD__get__Ev
	.syntax unified
	.arm
	.fpu vfp
	.type	_ZN5XFONT9INTERFACE11BOLD__get__Ev, %function
_ZN5XFONT9INTERFACE11BOLD__get__Ev:
.LFB14:
	.loc 1 353 1
	.cfi_startproc
	@ args = 0, pretend = 0, frame = 40
	@ frame_needed = 1, uses_anonymous_args = 0
	push	{fp, lr}
	.cfi_def_cfa_offset 8
	.cfi_offset 11, -8
	.cfi_offset 14, -4
	add	fp, sp, #4
	.cfi_def_cfa 11, 4
	sub	sp, sp, #40
	str	r0, [fp, #-40]
	mov	r3, #0
	strb	r3, [fp, #-33]
	.loc 1 353 16
	movw	r0, #:lower16:.LC0
	movt	r0, #:upper16:.LC0
	bl	fb_ErrorSetModName
	str	r0, [fp, #-8]
	.loc 1 353 11
	ldr	r3, [fp, #-8]
	str	r3, [fp, #-12]
	.loc 1 353 16
	movw	r0, #:lower16:.LC11
	movt	r0, #:upper16:.LC11
	bl	fb_ErrorSetFuncName
	str	r0, [fp, #-16]
	.loc 1 353 11
	ldr	r3, [fp, #-16]
	str	r3, [fp, #-20]
.L138:
.LBB7:
	.loc 1 354 22
	ldr	r2, [fp, #-40]
	movw	r3, #6540
	movt	r3, 154
	add	r3, r2, r3
	.loc 1 354 21
	ldrh	r3, [r3]
	.loc 1 354 12
	str	r3, [fp, #-24]
	.loc 1 354 16
	ldr	r0, [fp, #-24]
	movw	r3, #:lower16:.LC0
	movt	r3, #:upper16:.LC0
	movw	r2, #354
	mov	r1, #8
	bl	fb_ArraySngBoundChk
	str	r0, [fp, #-28]
	.loc 1 354 5
	ldr	r3, [fp, #-28]
	cmp	r3, #0
	beq	.L147
	.loc 1 354 3 discriminator 2
	ldr	r3, [fp, #-28]
	mov	pc, r3	@ indirect register jump
.L147:
	.loc 1 354 19
	nop
.L140:
	.loc 1 354 75
	ldr	r2, [fp, #-24]
	mov	r3, #452
	movt	r3, 17
	mul	r3, r3, r2
	mov	r2, r3
	.loc 1 354 12
	ldr	r3, [fp, #-40]
	add	r3, r3, r2
	str	r3, [fp, #-32]
	.loc 1 355 16
	ldr	r3, [fp, #-32]
	add	r3, r3, #416
	add	r3, r3, #1
	.loc 1 355 15
	ldrh	r3, [r3]
	.loc 1 355 50
	and	r3, r3, #1
	.loc 1 355 5
	cmp	r3, #0
	ble	.L148
	.loc 1 356 16
	mvn	r3, #0
	strb	r3, [fp, #-33]
	.loc 1 356 4
	b	.L143
.L148:
	.loc 1 355 62
	nop
.L142:
	.loc 1 358 16
	mov	r3, #0
	strb	r3, [fp, #-33]
	.loc 1 358 4
	nop
.L143:
.LBE7:
	.loc 1 361 2
	ldr	r0, [fp, #-20]
	bl	fb_ErrorSetFuncName
	.loc 1 361 2
	ldr	r0, [fp, #-12]
	bl	fb_ErrorSetModName
	.loc 1 361 9
	ldrsb	r3, [fp, #-33]
	.loc 1 361 1
	mov	r0, r3
	sub	sp, fp, #4
	.cfi_def_cfa 13, 8
	@ sp needed
	pop	{fp, pc}
	.cfi_endproc
.LFE14:
	.size	_ZN5XFONT9INTERFACE11BOLD__get__Ev, .-_ZN5XFONT9INTERFACE11BOLD__get__Ev
	.section	.rodata
	.align	2
.LC12:
	.ascii	"ITALIC\000"
	.text
	.align	2
	.global	_ZN5XFONT9INTERFACE13ITALIC__get__Ev
	.syntax unified
	.arm
	.fpu vfp
	.type	_ZN5XFONT9INTERFACE13ITALIC__get__Ev, %function
_ZN5XFONT9INTERFACE13ITALIC__get__Ev:
.LFB15:
	.loc 1 363 1
	.cfi_startproc
	@ args = 0, pretend = 0, frame = 40
	@ frame_needed = 1, uses_anonymous_args = 0
	push	{fp, lr}
	.cfi_def_cfa_offset 8
	.cfi_offset 11, -8
	.cfi_offset 14, -4
	add	fp, sp, #4
	.cfi_def_cfa 11, 4
	sub	sp, sp, #40
	str	r0, [fp, #-40]
	mov	r3, #0
	strb	r3, [fp, #-33]
	.loc 1 363 16
	movw	r0, #:lower16:.LC0
	movt	r0, #:upper16:.LC0
	bl	fb_ErrorSetModName
	str	r0, [fp, #-8]
	.loc 1 363 11
	ldr	r3, [fp, #-8]
	str	r3, [fp, #-12]
	.loc 1 363 16
	movw	r0, #:lower16:.LC12
	movt	r0, #:upper16:.LC12
	bl	fb_ErrorSetFuncName
	str	r0, [fp, #-16]
	.loc 1 363 11
	ldr	r3, [fp, #-16]
	str	r3, [fp, #-20]
.L150:
.LBB8:
	.loc 1 364 22
	ldr	r2, [fp, #-40]
	movw	r3, #6540
	movt	r3, 154
	add	r3, r2, r3
	.loc 1 364 21
	ldrh	r3, [r3]
	.loc 1 364 12
	str	r3, [fp, #-24]
	.loc 1 364 16
	ldr	r0, [fp, #-24]
	movw	r3, #:lower16:.LC0
	movt	r3, #:upper16:.LC0
	mov	r2, #364
	mov	r1, #8
	bl	fb_ArraySngBoundChk
	str	r0, [fp, #-28]
	.loc 1 364 5
	ldr	r3, [fp, #-28]
	cmp	r3, #0
	beq	.L159
	.loc 1 364 3 discriminator 2
	ldr	r3, [fp, #-28]
	mov	pc, r3	@ indirect register jump
.L159:
	.loc 1 364 19
	nop
.L152:
	.loc 1 364 75
	ldr	r2, [fp, #-24]
	mov	r3, #452
	movt	r3, 17
	mul	r3, r3, r2
	mov	r2, r3
	.loc 1 364 12
	ldr	r3, [fp, #-40]
	add	r3, r3, r2
	str	r3, [fp, #-32]
	.loc 1 365 16
	ldr	r3, [fp, #-32]
	add	r3, r3, #416
	add	r3, r3, #1
	.loc 1 365 15
	ldrh	r3, [r3]
	.loc 1 365 50
	and	r3, r3, #2
	.loc 1 365 5
	cmp	r3, #0
	ble	.L160
	.loc 1 366 16
	mvn	r3, #0
	strb	r3, [fp, #-33]
	.loc 1 366 4
	b	.L155
.L160:
	.loc 1 365 62
	nop
.L154:
	.loc 1 368 16
	mov	r3, #0
	strb	r3, [fp, #-33]
	.loc 1 368 4
	nop
.L155:
.LBE8:
	.loc 1 371 2
	ldr	r0, [fp, #-20]
	bl	fb_ErrorSetFuncName
	.loc 1 371 2
	ldr	r0, [fp, #-12]
	bl	fb_ErrorSetModName
	.loc 1 371 9
	ldrsb	r3, [fp, #-33]
	.loc 1 371 1
	mov	r0, r3
	sub	sp, fp, #4
	.cfi_def_cfa 13, 8
	@ sp needed
	pop	{fp, pc}
	.cfi_endproc
.LFE15:
	.size	_ZN5XFONT9INTERFACE13ITALIC__get__Ev, .-_ZN5XFONT9INTERFACE13ITALIC__get__Ev
	.section	.rodata
	.align	2
.LC13:
	.ascii	"UNDERLINE\000"
	.text
	.align	2
	.global	_ZN5XFONT9INTERFACE16UNDERLINE__get__Ev
	.syntax unified
	.arm
	.fpu vfp
	.type	_ZN5XFONT9INTERFACE16UNDERLINE__get__Ev, %function
_ZN5XFONT9INTERFACE16UNDERLINE__get__Ev:
.LFB16:
	.loc 1 373 1
	.cfi_startproc
	@ args = 0, pretend = 0, frame = 40
	@ frame_needed = 1, uses_anonymous_args = 0
	push	{fp, lr}
	.cfi_def_cfa_offset 8
	.cfi_offset 11, -8
	.cfi_offset 14, -4
	add	fp, sp, #4
	.cfi_def_cfa 11, 4
	sub	sp, sp, #40
	str	r0, [fp, #-40]
	mov	r3, #0
	strb	r3, [fp, #-33]
	.loc 1 373 16
	movw	r0, #:lower16:.LC0
	movt	r0, #:upper16:.LC0
	bl	fb_ErrorSetModName
	str	r0, [fp, #-8]
	.loc 1 373 11
	ldr	r3, [fp, #-8]
	str	r3, [fp, #-12]
	.loc 1 373 16
	movw	r0, #:lower16:.LC13
	movt	r0, #:upper16:.LC13
	bl	fb_ErrorSetFuncName
	str	r0, [fp, #-16]
	.loc 1 373 11
	ldr	r3, [fp, #-16]
	str	r3, [fp, #-20]
.L162:
.LBB9:
	.loc 1 374 22
	ldr	r2, [fp, #-40]
	movw	r3, #6540
	movt	r3, 154
	add	r3, r2, r3
	.loc 1 374 21
	ldrh	r3, [r3]
	.loc 1 374 12
	str	r3, [fp, #-24]
	.loc 1 374 16
	ldr	r0, [fp, #-24]
	movw	r3, #:lower16:.LC0
	movt	r3, #:upper16:.LC0
	movw	r2, #374
	mov	r1, #8
	bl	fb_ArraySngBoundChk
	str	r0, [fp, #-28]
	.loc 1 374 5
	ldr	r3, [fp, #-28]
	cmp	r3, #0
	beq	.L171
	.loc 1 374 3 discriminator 2
	ldr	r3, [fp, #-28]
	mov	pc, r3	@ indirect register jump
.L171:
	.loc 1 374 19
	nop
.L164:
	.loc 1 374 75
	ldr	r2, [fp, #-24]
	mov	r3, #452
	movt	r3, 17
	mul	r3, r3, r2
	mov	r2, r3
	.loc 1 374 12
	ldr	r3, [fp, #-40]
	add	r3, r3, r2
	str	r3, [fp, #-32]
	.loc 1 375 16
	ldr	r3, [fp, #-32]
	add	r3, r3, #416
	add	r3, r3, #1
	.loc 1 375 15
	ldrh	r3, [r3]
	.loc 1 375 50
	and	r3, r3, #4
	.loc 1 375 5
	cmp	r3, #0
	ble	.L172
	.loc 1 376 16
	mvn	r3, #0
	strb	r3, [fp, #-33]
	.loc 1 376 4
	b	.L167
.L172:
	.loc 1 375 62
	nop
.L166:
	.loc 1 378 16
	mov	r3, #0
	strb	r3, [fp, #-33]
	.loc 1 378 4
	nop
.L167:
.LBE9:
	.loc 1 381 2
	ldr	r0, [fp, #-20]
	bl	fb_ErrorSetFuncName
	.loc 1 381 2
	ldr	r0, [fp, #-12]
	bl	fb_ErrorSetModName
	.loc 1 381 9
	ldrsb	r3, [fp, #-33]
	.loc 1 381 1
	mov	r0, r3
	sub	sp, fp, #4
	.cfi_def_cfa 13, 8
	@ sp needed
	pop	{fp, pc}
	.cfi_endproc
.LFE16:
	.size	_ZN5XFONT9INTERFACE16UNDERLINE__get__Ev, .-_ZN5XFONT9INTERFACE16UNDERLINE__get__Ev
	.section	.rodata
	.align	2
.LC14:
	.ascii	"MESSAGE\000"
	.text
	.align	2
	.global	_ZN5XFONT9INTERFACE14MESSAGE__get__Ev
	.syntax unified
	.arm
	.fpu vfp
	.type	_ZN5XFONT9INTERFACE14MESSAGE__get__Ev, %function
_ZN5XFONT9INTERFACE14MESSAGE__get__Ev:
.LFB17:
	.loc 1 384 1
	.cfi_startproc
	@ args = 0, pretend = 0, frame = 64
	@ frame_needed = 1, uses_anonymous_args = 0
	push	{fp, lr}
	.cfi_def_cfa_offset 8
	.cfi_offset 11, -8
	.cfi_offset 14, -4
	add	fp, sp, #4
	.cfi_def_cfa 11, 4
	sub	sp, sp, #72
	str	r0, [fp, #-64]
	.loc 1 384 2
	sub	r3, fp, #56
	mov	r2, r3
	mov	r3, #0
	str	r3, [r2]
	str	r3, [r2, #4]
	str	r3, [r2, #8]
	.loc 1 384 16
	movw	r0, #:lower16:.LC0
	movt	r0, #:upper16:.LC0
	bl	fb_ErrorSetModName
	str	r0, [fp, #-8]
	.loc 1 384 11
	ldr	r3, [fp, #-8]
	str	r3, [fp, #-12]
	.loc 1 384 16
	movw	r0, #:lower16:.LC14
	movt	r0, #:upper16:.LC14
	bl	fb_ErrorSetFuncName
	str	r0, [fp, #-16]
	.loc 1 384 11
	ldr	r3, [fp, #-16]
	str	r3, [fp, #-20]
.L174:
.LBB10:
	.loc 1 385 22
	ldr	r2, [fp, #-64]
	movw	r3, #6540
	movt	r3, 154
	add	r3, r2, r3
	.loc 1 385 21
	ldrh	r3, [r3]
	.loc 1 385 12
	str	r3, [fp, #-24]
	.loc 1 385 16
	ldr	r0, [fp, #-24]
	movw	r3, #:lower16:.LC0
	movt	r3, #:upper16:.LC0
	movw	r2, #385
	mov	r1, #8
	bl	fb_ArraySngBoundChk
	str	r0, [fp, #-28]
	.loc 1 385 5
	ldr	r3, [fp, #-28]
	cmp	r3, #0
	beq	.L180
	.loc 1 385 3 discriminator 2
	ldr	r3, [fp, #-28]
	mov	pc, r3	@ indirect register jump
.L180:
	.loc 1 385 19
	nop
.L176:
	.loc 1 385 75
	ldr	r2, [fp, #-24]
	mov	r3, #452
	movt	r3, 17
	mul	r3, r3, r2
	mov	r2, r3
	.loc 1 385 12
	ldr	r3, [fp, #-64]
	add	r3, r3, r2
	str	r3, [fp, #-32]
	.loc 1 386 21
	ldr	r3, [fp, #-32]
	add	r3, r3, #24
	mov	r1, #193
	mov	r0, r3
	bl	fb_StrAllocTempDescF
	str	r0, [fp, #-36]
	.loc 1 386 56
	ldr	r3, [fp, #-32]
	add	r3, r3, #23
	.loc 1 386 55
	ldrb	r3, [r3]	@ zero_extendqisi2
	.loc 1 386 21
	mov	r1, r3
	ldr	r0, [fp, #-36]
	bl	fb_LEFT
	str	r0, [fp, #-40]
	.loc 1 386 3
	sub	r0, fp, #56
	mov	r3, #0
	str	r3, [sp]
	mvn	r3, #0
	ldr	r2, [fp, #-40]
	mvn	r1, #0
	bl	fb_StrInit
	.loc 1 386 3
	nop
.L177:
.LBE10:
	.loc 1 388 2
	ldr	r0, [fp, #-20]
	bl	fb_ErrorSetFuncName
	.loc 1 388 2
	ldr	r0, [fp, #-12]
	bl	fb_ErrorSetModName
	.loc 1 388 20
	sub	r3, fp, #56
	mov	r0, r3
	bl	fb_StrAllocTempResult
	str	r0, [fp, #-44]
	.loc 1 388 9
	ldr	r3, [fp, #-44]
	.loc 1 388 1
	mov	r0, r3
	sub	sp, fp, #4
	.cfi_def_cfa 13, 8
	@ sp needed
	pop	{fp, pc}
	.cfi_endproc
.LFE17:
	.size	_ZN5XFONT9INTERFACE14MESSAGE__get__Ev, .-_ZN5XFONT9INTERFACE14MESSAGE__get__Ev
	.section	.rodata
	.align	2
.LC15:
	.ascii	"COPYRIGHT\000"
	.align	2
.LC16:
	.ascii	"Copyright (c) Xaviorsoft Studios\000"
	.text
	.align	2
	.global	_ZN5XFONT9INTERFACE16COPYRIGHT__get__Ev
	.syntax unified
	.arm
	.fpu vfp
	.type	_ZN5XFONT9INTERFACE16COPYRIGHT__get__Ev, %function
_ZN5XFONT9INTERFACE16COPYRIGHT__get__Ev:
.LFB18:
	.loc 1 391 1
	.cfi_startproc
	@ args = 0, pretend = 0, frame = 40
	@ frame_needed = 1, uses_anonymous_args = 0
	push	{fp, lr}
	.cfi_def_cfa_offset 8
	.cfi_offset 11, -8
	.cfi_offset 14, -4
	add	fp, sp, #4
	.cfi_def_cfa 11, 4
	sub	sp, sp, #48
	str	r0, [fp, #-40]
	.loc 1 391 2
	sub	r3, fp, #36
	mov	r2, r3
	mov	r3, #0
	str	r3, [r2]
	str	r3, [r2, #4]
	str	r3, [r2, #8]
	.loc 1 391 16
	movw	r0, #:lower16:.LC0
	movt	r0, #:upper16:.LC0
	bl	fb_ErrorSetModName
	str	r0, [fp, #-8]
	.loc 1 391 11
	ldr	r3, [fp, #-8]
	str	r3, [fp, #-12]
	.loc 1 391 16
	movw	r0, #:lower16:.LC15
	movt	r0, #:upper16:.LC15
	bl	fb_ErrorSetFuncName
	str	r0, [fp, #-16]
	.loc 1 391 11
	ldr	r3, [fp, #-16]
	str	r3, [fp, #-20]
.L182:
	.loc 1 392 2
	sub	r0, fp, #36
	mov	r3, #0
	str	r3, [sp]
	mov	r3, #33
	movw	r2, #:lower16:.LC16
	movt	r2, #:upper16:.LC16
	mvn	r1, #0
	bl	fb_StrInit
	.loc 1 392 2
	nop
.L183:
	.loc 1 393 2
	ldr	r0, [fp, #-20]
	bl	fb_ErrorSetFuncName
	.loc 1 393 2
	ldr	r0, [fp, #-12]
	bl	fb_ErrorSetModName
	.loc 1 393 19
	sub	r3, fp, #36
	mov	r0, r3
	bl	fb_StrAllocTempResult
	str	r0, [fp, #-24]
	.loc 1 393 9
	ldr	r3, [fp, #-24]
	.loc 1 393 1
	mov	r0, r3
	sub	sp, fp, #4
	.cfi_def_cfa 13, 8
	@ sp needed
	pop	{fp, pc}
	.cfi_endproc
.LFE18:
	.size	_ZN5XFONT9INTERFACE16COPYRIGHT__get__Ev, .-_ZN5XFONT9INTERFACE16COPYRIGHT__get__Ev
	.section	.rodata
	.align	2
.LC17:
	.ascii	"MAJORVERSION\000"
	.text
	.align	2
	.global	_ZN5XFONT9INTERFACE19MAJORVERSION__get__Ev
	.syntax unified
	.arm
	.fpu vfp
	.type	_ZN5XFONT9INTERFACE19MAJORVERSION__get__Ev, %function
_ZN5XFONT9INTERFACE19MAJORVERSION__get__Ev:
.LFB19:
	.loc 1 396 1
	.cfi_startproc
	@ args = 0, pretend = 0, frame = 32
	@ frame_needed = 1, uses_anonymous_args = 0
	push	{fp, lr}
	.cfi_def_cfa_offset 8
	.cfi_offset 11, -8
	.cfi_offset 14, -4
	add	fp, sp, #4
	.cfi_def_cfa 11, 4
	sub	sp, sp, #32
	str	r0, [fp, #-32]
	mov	r3, #0
	strh	r3, [fp, #-22]	@ movhi
	.loc 1 396 16
	movw	r0, #:lower16:.LC0
	movt	r0, #:upper16:.LC0
	bl	fb_ErrorSetModName
	str	r0, [fp, #-8]
	.loc 1 396 11
	ldr	r3, [fp, #-8]
	str	r3, [fp, #-12]
	.loc 1 396 16
	movw	r0, #:lower16:.LC17
	movt	r0, #:upper16:.LC17
	bl	fb_ErrorSetFuncName
	str	r0, [fp, #-16]
	.loc 1 396 11
	ldr	r3, [fp, #-16]
	str	r3, [fp, #-20]
.L186:
	.loc 1 397 14
	mov	r3, #12
	strh	r3, [fp, #-22]	@ movhi
	.loc 1 397 2
	nop
.L187:
	.loc 1 398 2
	ldr	r0, [fp, #-20]
	bl	fb_ErrorSetFuncName
	.loc 1 398 2
	ldr	r0, [fp, #-12]
	bl	fb_ErrorSetModName
	.loc 1 398 9
	ldrh	r3, [fp, #-22]
	.loc 1 398 1
	mov	r0, r3
	sub	sp, fp, #4
	.cfi_def_cfa 13, 8
	@ sp needed
	pop	{fp, pc}
	.cfi_endproc
.LFE19:
	.size	_ZN5XFONT9INTERFACE19MAJORVERSION__get__Ev, .-_ZN5XFONT9INTERFACE19MAJORVERSION__get__Ev
	.section	.rodata
	.align	2
.LC18:
	.ascii	"MINORVERSION\000"
	.text
	.align	2
	.global	_ZN5XFONT9INTERFACE19MINORVERSION__get__Ev
	.syntax unified
	.arm
	.fpu vfp
	.type	_ZN5XFONT9INTERFACE19MINORVERSION__get__Ev, %function
_ZN5XFONT9INTERFACE19MINORVERSION__get__Ev:
.LFB20:
	.loc 1 401 1
	.cfi_startproc
	@ args = 0, pretend = 0, frame = 32
	@ frame_needed = 1, uses_anonymous_args = 0
	push	{fp, lr}
	.cfi_def_cfa_offset 8
	.cfi_offset 11, -8
	.cfi_offset 14, -4
	add	fp, sp, #4
	.cfi_def_cfa 11, 4
	sub	sp, sp, #32
	str	r0, [fp, #-32]
	mov	r3, #0
	strh	r3, [fp, #-22]	@ movhi
	.loc 1 401 16
	movw	r0, #:lower16:.LC0
	movt	r0, #:upper16:.LC0
	bl	fb_ErrorSetModName
	str	r0, [fp, #-8]
	.loc 1 401 11
	ldr	r3, [fp, #-8]
	str	r3, [fp, #-12]
	.loc 1 401 16
	movw	r0, #:lower16:.LC18
	movt	r0, #:upper16:.LC18
	bl	fb_ErrorSetFuncName
	str	r0, [fp, #-16]
	.loc 1 401 11
	ldr	r3, [fp, #-16]
	str	r3, [fp, #-20]
.L190:
	.loc 1 402 14
	mov	r3, #0
	strh	r3, [fp, #-22]	@ movhi
	.loc 1 402 2
	nop
.L191:
	.loc 1 403 2
	ldr	r0, [fp, #-20]
	bl	fb_ErrorSetFuncName
	.loc 1 403 2
	ldr	r0, [fp, #-12]
	bl	fb_ErrorSetModName
	.loc 1 403 9
	ldrh	r3, [fp, #-22]
	.loc 1 403 1
	mov	r0, r3
	sub	sp, fp, #4
	.cfi_def_cfa 13, 8
	@ sp needed
	pop	{fp, pc}
	.cfi_endproc
.LFE20:
	.size	_ZN5XFONT9INTERFACE19MINORVERSION__get__Ev, .-_ZN5XFONT9INTERFACE19MINORVERSION__get__Ev
	.section	.rodata
	.align	2
.LC19:
	.ascii	"REVISION\000"
	.text
	.align	2
	.global	_ZN5XFONT9INTERFACE15REVISION__get__Ev
	.syntax unified
	.arm
	.fpu vfp
	.type	_ZN5XFONT9INTERFACE15REVISION__get__Ev, %function
_ZN5XFONT9INTERFACE15REVISION__get__Ev:
.LFB21:
	.loc 1 406 1
	.cfi_startproc
	@ args = 0, pretend = 0, frame = 32
	@ frame_needed = 1, uses_anonymous_args = 0
	push	{fp, lr}
	.cfi_def_cfa_offset 8
	.cfi_offset 11, -8
	.cfi_offset 14, -4
	add	fp, sp, #4
	.cfi_def_cfa 11, 4
	sub	sp, sp, #32
	str	r0, [fp, #-32]
	mov	r3, #0
	strh	r3, [fp, #-22]	@ movhi
	.loc 1 406 16
	movw	r0, #:lower16:.LC0
	movt	r0, #:upper16:.LC0
	bl	fb_ErrorSetModName
	str	r0, [fp, #-8]
	.loc 1 406 11
	ldr	r3, [fp, #-8]
	str	r3, [fp, #-12]
	.loc 1 406 16
	movw	r0, #:lower16:.LC19
	movt	r0, #:upper16:.LC19
	bl	fb_ErrorSetFuncName
	str	r0, [fp, #-16]
	.loc 1 406 11
	ldr	r3, [fp, #-16]
	str	r3, [fp, #-20]
.L194:
	.loc 1 407 14
	mov	r3, #0
	strh	r3, [fp, #-22]	@ movhi
	.loc 1 407 2
	nop
.L195:
	.loc 1 408 2
	ldr	r0, [fp, #-20]
	bl	fb_ErrorSetFuncName
	.loc 1 408 2
	ldr	r0, [fp, #-12]
	bl	fb_ErrorSetModName
	.loc 1 408 9
	ldrh	r3, [fp, #-22]
	.loc 1 408 1
	mov	r0, r3
	sub	sp, fp, #4
	.cfi_def_cfa 13, 8
	@ sp needed
	pop	{fp, pc}
	.cfi_endproc
.LFE21:
	.size	_ZN5XFONT9INTERFACE15REVISION__get__Ev, .-_ZN5XFONT9INTERFACE15REVISION__get__Ev
	.section	.rodata
	.align	2
.LC20:
	.ascii	"QUERYHEADERCOMPAT\000"
	.text
	.align	2
	.global	_ZN5XFONT9INTERFACE17QUERYHEADERCOMPATERNS_12XFONT_HEADEREx
	.syntax unified
	.arm
	.fpu vfp
	.type	_ZN5XFONT9INTERFACE17QUERYHEADERCOMPATERNS_12XFONT_HEADEREx, %function
_ZN5XFONT9INTERFACE17QUERYHEADERCOMPATERNS_12XFONT_HEADEREx:
.LFB22:
	.loc 1 412 1
	.cfi_startproc
	@ args = 0, pretend = 0, frame = 80
	@ frame_needed = 1, uses_anonymous_args = 0
	push	{r4, r5, r6, r7, r8, r9, fp, lr}
	.cfi_def_cfa_offset 32
	.cfi_offset 4, -32
	.cfi_offset 5, -28
	.cfi_offset 6, -24
	.cfi_offset 7, -20
	.cfi_offset 8, -16
	.cfi_offset 9, -12
	.cfi_offset 11, -8
	.cfi_offset 14, -4
	add	fp, sp, #28
	.cfi_def_cfa 11, 4
	sub	sp, sp, #80
	str	r0, [fp, #-56]
	str	r1, [fp, #-60]
	strd	r2, [fp, #-68]
	mov	r3, #0
	str	r3, [fp, #-52]
	.loc 1 412 16
	movw	r0, #:lower16:.LC0
	movt	r0, #:upper16:.LC0
	bl	fb_ErrorSetModName
	str	r0, [fp, #-32]
	.loc 1 412 11
	ldr	r3, [fp, #-32]
	str	r3, [fp, #-36]
	.loc 1 412 16
	movw	r0, #:lower16:.LC20
	movt	r0, #:upper16:.LC20
	bl	fb_ErrorSetFuncName
	str	r0, [fp, #-40]
	.loc 1 412 11
	ldr	r3, [fp, #-40]
	str	r3, [fp, #-44]
.L198:
.LBB11:
	.loc 1 414 12
	ldr	r3, [fp, #-60]
	str	r3, [fp, #-48]
	.loc 1 415 14
	ldr	r3, [fp, #-48]
	ldrh	r2, [r3]
	.loc 1 415 5
	movw	r3, #18008
	cmp	r2, r3
	beq	.L263
	.loc 1 415 5 discriminator 2
	ldr	r2, [fp, #-56]
	movw	r3, #4068
	movt	r3, 153
	add	r3, r2, r3
	.loc 1 415 41 discriminator 2
	mov	r2, #104
	str	r2, [r3]
	.loc 1 415 16 discriminator 2
	mvn	r3, #0
	str	r3, [fp, #-52]
	.loc 1 415 4 discriminator 2
	b	.L201
.L263:
	.loc 1 415 44
	nop
.L200:
	.loc 1 416 15
	ldr	r3, [fp, #-48]
	add	r3, r3, #2
	.loc 1 416 14
	ldrh	r3, [r3]
	.loc 1 416 5
	cmp	r3, #0
	beq	.L264
	.loc 1 416 5 discriminator 2
	ldr	r2, [fp, #-56]
	movw	r3, #4068
	movt	r3, 153
	add	r3, r2, r3
	.loc 1 416 41 discriminator 2
	mov	r2, #105
	str	r2, [r3]
	.loc 1 416 16 discriminator 2
	mvn	r3, #0
	str	r3, [fp, #-52]
	.loc 1 416 4 discriminator 2
	b	.L201
.L264:
	.loc 1 416 54
	nop
.L203:
	.loc 1 417 15
	ldr	r3, [fp, #-48]
	add	r3, r3, #22
	.loc 1 417 14
	ldrb	r3, [r3]	@ zero_extendqisi2
	.loc 1 417 5
	cmp	r3, #1
	bls	.L265
	.loc 1 417 5 discriminator 2
	ldr	r2, [fp, #-56]
	movw	r3, #4068
	movt	r3, 153
	add	r3, r2, r3
	.loc 1 417 41 discriminator 2
	mov	r2, #106
	str	r2, [r3]
	.loc 1 417 16 discriminator 2
	mvn	r3, #0
	str	r3, [fp, #-52]
	.loc 1 417 4 discriminator 2
	b	.L201
.L265:
	.loc 1 417 54
	nop
.L205:
	.loc 1 418 15
	ldr	r3, [fp, #-48]
	add	r3, r3, #23
	.loc 1 418 14
	ldrb	r3, [r3]	@ zero_extendqisi2
	.loc 1 418 5
	cmp	r3, #192
	bls	.L266
	.loc 1 418 5 discriminator 2
	ldr	r2, [fp, #-56]
	movw	r3, #4068
	movt	r3, 153
	add	r3, r2, r3
	.loc 1 418 41 discriminator 2
	mov	r2, #106
	str	r2, [r3]
	.loc 1 418 16 discriminator 2
	mvn	r3, #0
	str	r3, [fp, #-52]
	.loc 1 418 4 discriminator 2
	b	.L201
.L266:
	.loc 1 418 56
	nop
.L207:
	.loc 1 419 15
	ldr	r3, [fp, #-48]
	add	r3, r3, #217
	.loc 1 419 14
	ldrb	r3, [r3]	@ zero_extendqisi2
	.loc 1 419 5
	cmp	r3, #1
	bls	.L267
	.loc 1 419 5 discriminator 2
	ldr	r2, [fp, #-56]
	movw	r3, #4068
	movt	r3, 153
	add	r3, r2, r3
	.loc 1 419 41 discriminator 2
	mov	r2, #106
	str	r2, [r3]
	.loc 1 419 16 discriminator 2
	mvn	r3, #0
	str	r3, [fp, #-52]
	.loc 1 419 4 discriminator 2
	b	.L201
.L267:
	.loc 1 419 55
	nop
.L209:
	.loc 1 420 15
	ldr	r3, [fp, #-48]
	add	r3, r3, #218
	.loc 1 420 14
	ldrb	r3, [r3]	@ zero_extendqisi2
	.loc 1 420 5
	cmp	r3, #192
	bls	.L268
	.loc 1 420 5 discriminator 2
	ldr	r2, [fp, #-56]
	movw	r3, #4068
	movt	r3, 153
	add	r3, r2, r3
	.loc 1 420 41 discriminator 2
	mov	r2, #106
	str	r2, [r3]
	.loc 1 420 16 discriminator 2
	mvn	r3, #0
	str	r3, [fp, #-52]
	.loc 1 420 4 discriminator 2
	b	.L201
.L268:
	.loc 1 420 57
	nop
.L211:
	.loc 1 421 15
	ldr	r3, [fp, #-48]
	add	r3, r3, #412
	.loc 1 421 14
	ldrb	r3, [r3]	@ zero_extendqisi2
	.loc 1 421 5
	cmp	r3, #1
	bls	.L269
	.loc 1 421 5 discriminator 2
	ldr	r2, [fp, #-56]
	movw	r3, #4068
	movt	r3, 153
	add	r3, r2, r3
	.loc 1 421 41 discriminator 2
	mov	r2, #106
	str	r2, [r3]
	.loc 1 421 16 discriminator 2
	mvn	r3, #0
	str	r3, [fp, #-52]
	.loc 1 421 4 discriminator 2
	b	.L201
.L269:
	.loc 1 421 55
	nop
.L213:
	.loc 1 422 8
	ldr	r3, [fp, #-48]
	add	r3, r3, #420
	.loc 1 422 7
	ldr	r3, [r3]
	.loc 1 422 5
	cmp	r3, #0
	bne	.L270
	.loc 1 422 5 discriminator 2
	ldr	r2, [fp, #-56]
	movw	r3, #4068
	movt	r3, 153
	add	r3, r2, r3
	.loc 1 422 41 discriminator 2
	mov	r2, #106
	str	r2, [r3]
	.loc 1 422 16 discriminator 2
	mvn	r3, #0
	str	r3, [fp, #-52]
	.loc 1 422 4 discriminator 2
	b	.L201
.L270:
	.loc 1 422 50
	nop
.L215:
	.loc 1 423 15
	ldr	r3, [fp, #-48]
	add	r3, r3, #428
	.loc 1 423 14
	ldrh	r3, [r3]
	.loc 1 423 5
	cmp	r3, #0
	beq	.L271
	.loc 1 423 5 discriminator 2
	ldr	r2, [fp, #-56]
	movw	r3, #4068
	movt	r3, 153
	add	r3, r2, r3
	.loc 1 423 41 discriminator 2
	mov	r2, #106
	str	r2, [r3]
	.loc 1 423 16 discriminator 2
	mvn	r3, #0
	str	r3, [fp, #-52]
	.loc 1 423 4 discriminator 2
	b	.L201
.L271:
	.loc 1 423 56
	nop
.L217:
	.loc 1 424 11
	ldr	r3, [fp, #-48]
	add	r3, r3, #428
	add	r3, r3, #2
	.loc 1 424 10
	ldr	r3, [r3]
	.loc 1 424 45
	cmp	r3, #0
	movne	r3, #1
	moveq	r3, #0
	uxtb	r3, r3
	.loc 1 424 8
	rsb	r2, r3, #0
	.loc 1 424 56
	ldr	r3, [fp, #-48]
	add	r3, r3, #428
	add	r3, r3, #2
	.loc 1 424 55
	ldr	r3, [r3]
	.loc 1 424 90
	cmp	r3, #444
	movls	r3, #1
	movhi	r3, #0
	uxtb	r3, r3
	.loc 1 424 53
	rsb	r3, r3, #0
	.loc 1 424 51
	and	r3, r3, r2
	.loc 1 424 5
	cmp	r3, #0
	beq	.L272
	.loc 1 424 5 discriminator 2
	ldr	r2, [fp, #-56]
	movw	r3, #4068
	movt	r3, 153
	add	r3, r2, r3
	.loc 1 424 41 discriminator 2
	mov	r2, #106
	str	r2, [r3]
	.loc 1 424 16 discriminator 2
	mvn	r3, #0
	str	r3, [fp, #-52]
	.loc 1 424 4 discriminator 2
	b	.L201
.L272:
	.loc 1 424 106
	nop
.L219:
	.loc 1 426 15
	ldr	r3, [fp, #-48]
	add	r3, r3, #428
	add	r3, r3, #2
	.loc 1 426 14
	ldr	r3, [r3]
	.loc 1 426 7
	mov	r2, #0
	mov	r6, r3
	mov	r7, r2
	.loc 1 426 5
	ldrd	r2, [fp, #-68]
	cmp	r2, r6
	sbcs	r3, r3, r7
	bge	.L273
	.loc 1 426 5 discriminator 2
	ldr	r2, [fp, #-56]
	movw	r3, #4068
	movt	r3, 153
	add	r3, r2, r3
	.loc 1 426 41 discriminator 2
	mov	r2, #106
	str	r2, [r3]
	.loc 1 426 16 discriminator 2
	mvn	r3, #0
	str	r3, [fp, #-52]
	.loc 1 426 4 discriminator 2
	b	.L201
.L273:
	.loc 1 426 65
	nop
.L221:
	.loc 1 428 15
	ldr	r3, [fp, #-48]
	add	r3, r3, #432
	add	r3, r3, #2
	.loc 1 428 14
	ldr	r3, [r3]
	.loc 1 428 7
	mov	r2, #0
	mov	r8, r3
	mov	r9, r2
	.loc 1 428 5
	ldrd	r2, [fp, #-68]
	cmp	r2, r8
	sbcs	r3, r3, r9
	bge	.L274
	.loc 1 428 5 discriminator 2
	ldr	r2, [fp, #-56]
	movw	r3, #4068
	movt	r3, 153
	add	r3, r2, r3
	.loc 1 428 41 discriminator 2
	mov	r2, #106
	str	r2, [r3]
	.loc 1 428 16 discriminator 2
	mvn	r3, #0
	str	r3, [fp, #-52]
	.loc 1 428 4 discriminator 2
	b	.L201
.L274:
	.loc 1 428 65
	nop
.L223:
	.loc 1 429 16
	ldr	r3, [fp, #-48]
	add	r3, r3, #428
	add	r3, r3, #2
	.loc 1 429 15
	ldr	r2, [r3]
	.loc 1 429 53
	ldr	r3, [fp, #-48]
	add	r3, r3, #432
	add	r3, r3, #2
	.loc 1 429 52
	ldr	r3, [r3]
	.loc 1 429 50
	add	r3, r2, r3
	.loc 1 429 7
	mov	r2, #0
	str	r3, [fp, #-76]
	str	r2, [fp, #-72]
	.loc 1 429 5
	ldrd	r2, [fp, #-68]
	ldrd	r0, [fp, #-76]
	mov	ip, r0
	cmp	r2, ip
	sbcs	r3, r3, r1
	bge	.L275
	.loc 1 429 5 discriminator 2
	ldr	r2, [fp, #-56]
	movw	r3, #4068
	movt	r3, 153
	add	r3, r2, r3
	.loc 1 429 41 discriminator 2
	mov	r2, #106
	str	r2, [r3]
	.loc 1 429 16 discriminator 2
	mvn	r3, #0
	str	r3, [fp, #-52]
	.loc 1 429 4 discriminator 2
	b	.L201
.L275:
	.loc 1 429 104
	nop
.L225:
	.loc 1 431 9
	ldr	r3, [fp, #-48]
	add	r3, r3, #424
	.loc 1 431 8
	ldr	r3, [r3]
	.loc 1 431 43
	lsr	r2, r3, #3
	.loc 1 431 61
	ldr	r3, [fp, #-48]
	add	r3, r3, #432
	add	r3, r3, #2
	.loc 1 431 60
	ldr	r3, [r3]
	.loc 1 431 5
	cmp	r2, r3
	bls	.L276
	.loc 1 431 5 discriminator 2
	ldr	r2, [fp, #-56]
	movw	r3, #4068
	movt	r3, 153
	add	r3, r2, r3
	.loc 1 431 41 discriminator 2
	mov	r2, #106
	str	r2, [r3]
	.loc 1 431 16 discriminator 2
	mvn	r3, #0
	str	r3, [fp, #-52]
	.loc 1 431 4 discriminator 2
	b	.L201
.L276:
	.loc 1 431 97
	nop
.L227:
	.loc 1 435 15
	ldr	r3, [fp, #-48]
	add	r3, r3, #436
	add	r3, r3, #2
	.loc 1 435 14
	ldrh	r3, [r3]
	.loc 1 435 5
	cmp	r3, #0
	beq	.L277
	.loc 1 435 5 discriminator 2
	ldr	r2, [fp, #-56]
	movw	r3, #4068
	movt	r3, 153
	add	r3, r2, r3
	.loc 1 435 41 discriminator 2
	mov	r2, #106
	str	r2, [r3]
	.loc 1 435 16 discriminator 2
	mvn	r3, #0
	str	r3, [fp, #-52]
	.loc 1 435 4 discriminator 2
	b	.L201
.L277:
	.loc 1 435 56
	nop
.L229:
	.loc 1 436 8
	ldr	r3, [fp, #-48]
	add	r3, r3, #440
	.loc 1 436 7
	ldr	r3, [r3]
	.loc 1 436 5
	cmp	r3, #444
	bhi	.L278
	.loc 1 436 5 discriminator 2
	ldr	r2, [fp, #-56]
	movw	r3, #4068
	movt	r3, 153
	add	r3, r2, r3
	.loc 1 436 41 discriminator 2
	mov	r2, #106
	str	r2, [r3]
	.loc 1 436 16 discriminator 2
	mvn	r3, #0
	str	r3, [fp, #-52]
	.loc 1 436 4 discriminator 2
	b	.L201
.L278:
	.loc 1 436 52
	nop
.L231:
	.loc 1 437 15
	ldr	r3, [fp, #-48]
	add	r3, r3, #440
	.loc 1 437 14
	ldr	r3, [r3]
	.loc 1 437 7
	mov	r2, #0
	str	r3, [fp, #-84]
	str	r2, [fp, #-80]
	.loc 1 437 5
	ldrd	r2, [fp, #-68]
	ldrd	r0, [fp, #-84]
	mov	ip, r0
	cmp	r2, ip
	sbcs	r3, r3, r1
	bge	.L279
	.loc 1 437 5 discriminator 2
	ldr	r2, [fp, #-56]
	movw	r3, #4068
	movt	r3, 153
	add	r3, r2, r3
	.loc 1 437 41 discriminator 2
	mov	r2, #106
	str	r2, [r3]
	.loc 1 437 16 discriminator 2
	mvn	r3, #0
	str	r3, [fp, #-52]
	.loc 1 437 4 discriminator 2
	b	.L201
.L279:
	.loc 1 437 65
	nop
.L233:
	.loc 1 438 15
	ldr	r3, [fp, #-48]
	add	r3, r3, #440
	.loc 1 438 14
	ldr	r3, [r3]
	.loc 1 438 7
	mov	r2, #0
	str	r3, [fp, #-92]
	str	r2, [fp, #-88]
	.loc 1 438 5
	ldrd	r2, [fp, #-68]
	ldrd	r0, [fp, #-92]
	mov	ip, r0
	cmp	r2, ip
	sbcs	r3, r3, r1
	bge	.L280
	.loc 1 438 5 discriminator 2
	ldr	r2, [fp, #-56]
	movw	r3, #4068
	movt	r3, 153
	add	r3, r2, r3
	.loc 1 438 41 discriminator 2
	mov	r2, #106
	str	r2, [r3]
	.loc 1 438 16 discriminator 2
	mvn	r3, #0
	str	r3, [fp, #-52]
	.loc 1 438 4 discriminator 2
	b	.L201
.L280:
	.loc 1 438 65
	nop
.L235:
	.loc 1 439 16
	ldr	r3, [fp, #-48]
	add	r3, r3, #440
	.loc 1 439 15
	ldr	r2, [r3]
	.loc 1 439 53
	ldr	r3, [fp, #-48]
	add	r3, r3, #444
	.loc 1 439 52
	ldr	r3, [r3]
	.loc 1 439 50
	add	r3, r2, r3
	.loc 1 439 7
	mov	r2, #0
	str	r3, [fp, #-100]
	str	r2, [fp, #-96]
	.loc 1 439 5
	ldrd	r2, [fp, #-68]
	ldrd	r0, [fp, #-100]
	mov	ip, r0
	cmp	r2, ip
	sbcs	r3, r3, r1
	bge	.L281
	.loc 1 439 5 discriminator 2
	ldr	r2, [fp, #-56]
	movw	r3, #4068
	movt	r3, 153
	add	r3, r2, r3
	.loc 1 439 41 discriminator 2
	mov	r2, #106
	str	r2, [r3]
	.loc 1 439 16 discriminator 2
	mvn	r3, #0
	str	r3, [fp, #-52]
	.loc 1 439 4 discriminator 2
	b	.L201
.L281:
	.loc 1 439 104
	nop
.L237:
	.loc 1 441 8
	ldr	r3, [fp, #-48]
	add	r3, r3, #444
	.loc 1 441 7
	ldr	r3, [r3]
	.loc 1 441 5
	cmp	r3, #444
	bhi	.L282
	.loc 1 441 5 discriminator 2
	ldr	r2, [fp, #-56]
	movw	r3, #4068
	movt	r3, 153
	add	r3, r2, r3
	.loc 1 441 41 discriminator 2
	mov	r2, #106
	str	r2, [r3]
	.loc 1 441 16 discriminator 2
	mvn	r3, #0
	str	r3, [fp, #-52]
	.loc 1 441 4 discriminator 2
	b	.L201
.L282:
	.loc 1 441 52
	nop
.L239:
	.loc 1 442 15
	ldr	r3, [fp, #-48]
	add	r3, r3, #440
	.loc 1 442 14
	ldr	r3, [r3]
	.loc 1 442 7
	mov	r2, #0
	str	r3, [fp, #-108]
	str	r2, [fp, #-104]
	.loc 1 442 64
	ldrd	r2, [fp, #-68]
	mvn	r1, #444
	adds	r4, r2, r1
	sbc	r5, r3, #0
	.loc 1 442 5
	ldrd	r2, [fp, #-108]
	mov	r1, r2
	cmp	r4, r1
	sbcs	r3, r5, r3
	bge	.L283
	.loc 1 442 5 discriminator 2
	ldr	r2, [fp, #-56]
	movw	r3, #4068
	movt	r3, 153
	add	r3, r2, r3
	.loc 1 442 41 discriminator 2
	mov	r2, #106
	str	r2, [r3]
	.loc 1 442 16 discriminator 2
	mvn	r3, #0
	str	r3, [fp, #-52]
	.loc 1 442 4 discriminator 2
	b	.L201
.L241:
.L283:
	.loc 1 442 76
	nop
.L201:
.LBE11:
	.loc 1 445 2
	ldr	r0, [fp, #-44]
	bl	fb_ErrorSetFuncName
	.loc 1 445 2
	ldr	r0, [fp, #-36]
	bl	fb_ErrorSetModName
	.loc 1 445 9
	ldr	r3, [fp, #-52]
	.loc 1 445 1
	mov	r0, r3
	sub	sp, fp, #28
	.cfi_def_cfa 13, 32
	@ sp needed
	pop	{r4, r5, r6, r7, r8, r9, fp, pc}
	.cfi_endproc
.LFE22:
	.size	_ZN5XFONT9INTERFACE17QUERYHEADERCOMPATERNS_12XFONT_HEADEREx, .-_ZN5XFONT9INTERFACE17QUERYHEADERCOMPATERNS_12XFONT_HEADEREx
	.section	.rodata
	.align	2
.LC21:
	.ascii	"BACKEND_LOADFONT\000"
	.text
	.align	2
	.global	_ZN5XFONT9INTERFACE16BACKEND_LOADFONTERPvmh
	.syntax unified
	.arm
	.fpu vfp
	.type	_ZN5XFONT9INTERFACE16BACKEND_LOADFONTERPvmh, %function
_ZN5XFONT9INTERFACE16BACKEND_LOADFONTERPvmh:
.LFB23:
	.loc 1 449 1
	.cfi_startproc
	@ args = 0, pretend = 0, frame = 672
	@ frame_needed = 1, uses_anonymous_args = 0
	push	{fp, lr}
	.cfi_def_cfa_offset 8
	.cfi_offset 11, -8
	.cfi_offset 14, -4
	add	fp, sp, #4
	.cfi_def_cfa 11, 4
	sub	sp, sp, #672
	str	r0, [fp, #-664]
	str	r1, [fp, #-668]
	str	r2, [fp, #-672]
	strb	r3, [fp, #-673]
	mov	r3, #0
	str	r3, [fp, #-172]
	.loc 1 449 16
	movw	r0, #:lower16:.LC0
	movt	r0, #:upper16:.LC0
	bl	fb_ErrorSetModName
	str	r0, [fp, #-8]
	.loc 1 449 12
	ldr	r3, [fp, #-8]
	str	r3, [fp, #-12]
	.loc 1 449 16
	movw	r0, #:lower16:.LC21
	movt	r0, #:upper16:.LC21
	bl	fb_ErrorSetFuncName
	str	r0, [fp, #-16]
	.loc 1 449 12
	ldr	r3, [fp, #-16]
	str	r3, [fp, #-20]
.L285:
	mov	r3, #0
	str	r3, [fp, #-176]
	mov	r3, #0
	str	r3, [fp, #-180]
	mov	r3, #0
	str	r3, [fp, #-184]
	mov	r3, #0
	strh	r3, [fp, #-186]	@ movhi
	mov	r3, #0
	strh	r3, [fp, #-188]	@ movhi
	mov	r3, #0
	strh	r3, [fp, #-190]	@ movhi
	mov	r3, #0
	strh	r3, [fp, #-192]	@ movhi
	mov	r3, #0
	strh	r3, [fp, #-194]	@ movhi
	mov	r3, #0
	strh	r3, [fp, #-196]	@ movhi
	mov	r3, #0
	strh	r3, [fp, #-198]	@ movhi
	mov	r3, #0
	str	r3, [fp, #-204]
	mov	r3, #0
	str	r3, [fp, #-208]
	.loc 1 460 25
	ldr	r3, [fp, #-668]
	ldr	r3, [r3]
	.loc 1 460 15
	str	r3, [fp, #-184]
.LBB12:
	.loc 1 462 12
	ldrb	r3, [fp, #-673]	@ zero_extendqisi2
	str	r3, [fp, #-24]
	.loc 1 462 17
	ldr	r0, [fp, #-24]
	movw	r3, #:lower16:.LC0
	movt	r3, #:upper16:.LC0
	movw	r2, #462
	mov	r1, #8
	bl	fb_ArraySngBoundChk
	str	r0, [fp, #-28]
	.loc 1 462 5
	ldr	r3, [fp, #-28]
	cmp	r3, #0
	beq	.L374
	.loc 1 462 3 discriminator 2
	ldr	r3, [fp, #-28]
	mov	pc, r3	@ indirect register jump
.L374:
	.loc 1 462 20
	nop
.L287:
	.loc 1 462 73
	ldr	r2, [fp, #-24]
	mov	r3, #452
	movt	r3, 17
	mul	r3, r3, r2
	mov	r2, r3
	.loc 1 462 12
	ldr	r3, [fp, #-664]
	add	r3, r3, r2
	str	r3, [fp, #-32]
	.loc 1 463 4
	ldr	r3, [fp, #-32]
	add	r3, r3, #1114112
	add	r3, r3, #448
	.loc 1 463 40
	mvn	r2, #0
	strb	r2, [r3]
	.loc 1 465 42
	sub	r3, fp, #656
	sub	r2, fp, #184
	ldr	r1, [fp, #-664]
	mov	r0, r3
	bl	_ZN5XFONT9INTERFACE22CREATECOMPATIBLEHEADERERPv
	.loc 1 465 46
	ldr	r3, [fp, #-32]
	mov	r0, r3
	sub	r3, fp, #656
	mov	r2, #448
	mov	r1, r3
	bl	memcpy
	.loc 1 467 4
	ldr	r3, [fp, #-32]
	add	r3, r3, #448
	.loc 1 467 36
	mvn	r2, #0
	strb	r2, [r3]
	.loc 1 468 24
	ldr	r3, [fp, #-32]
	add	r3, r3, #428
	add	r3, r3, #2
	.loc 1 468 23
	ldr	r3, [r3]
	.loc 1 468 15
	uxth	r3, r3
	.loc 1 468 13
	strh	r3, [fp, #-188]	@ movhi
.LBB13:
	.loc 1 469 8
	ldr	r3, [fp, #-32]
	ldr	r3, [r3, #420]
	str	r3, [fp, #-176]
	.loc 1 469 17
	ldr	r3, [fp, #-32]
	add	r3, r3, #420
	.loc 1 469 16
	ldr	r2, [r3]
	.loc 1 469 54
	ldr	r3, [fp, #-32]
	add	r3, r3, #424
	.loc 1 469 53
	ldr	r3, [r3]
	.loc 1 469 51
	add	r3, r2, r3
	.loc 1 469 13
	sub	r3, r3, #1
	str	r3, [fp, #-36]
	.loc 1 469 4
	b	.L288
.L378:
	.loc 1 476 26
	nop
.L289:
.LBB14:
	.loc 1 470 14
	ldr	r3, [fp, #-184]
	str	r3, [fp, #-156]
	.loc 1 470 19
	movw	r2, #:lower16:.LC0
	movt	r2, #:upper16:.LC0
	movw	r1, #470
	ldr	r0, [fp, #-156]
	bl	fb_NullPtrChk
	str	r0, [fp, #-160]
	.loc 1 470 7
	ldr	r3, [fp, #-160]
	cmp	r3, #0
	beq	.L375
	.loc 1 470 5 discriminator 2
	ldr	r3, [fp, #-160]
	mov	pc, r3	@ indirect register jump
.L375:
	.loc 1 470 22
	nop
.L291:
	.loc 1 470 16
	ldr	r3, [fp, #-176]
	.loc 1 470 14
	str	r3, [fp, #-164]
	.loc 1 470 19
	ldr	r0, [fp, #-164]
	movw	r3, #:lower16:.LC0
	movt	r3, #:upper16:.LC0
	movw	r2, #470
	movw	r1, #65535
	bl	fb_ArraySngBoundChk
	str	r0, [fp, #-168]
	.loc 1 470 7
	ldr	r3, [fp, #-168]
	cmp	r3, #0
	beq	.L376
	.loc 1 470 5 discriminator 5
	ldr	r3, [fp, #-168]
	mov	pc, r3	@ indirect register jump
.L376:
	.loc 1 470 22
	nop
.L293:
	.loc 1 470 98
	ldrh	r3, [fp, #-188]
	mov	r2, r3
	.loc 1 470 78
	ldr	r3, [fp, #-156]
	add	r3, r3, r2
	.loc 1 470 77
	ldrb	r3, [r3]	@ zero_extendqisi2
	.loc 1 470 70
	mov	r2, r3
	.loc 1 470 141
	ldrh	r3, [fp, #-186]
	and	r3, r3, #31
	.loc 1 470 149
	asr	r3, r2, r3
	and	r3, r3, #1
	cmp	r3, #0
	movne	r3, #1
	moveq	r3, #0
	uxtb	r3, r3
	.loc 1 470 61
	rsb	r3, r3, #0
	uxtb	r1, r3
	.loc 1 470 52
	ldr	r3, [fp, #-164]
	add	r3, r3, #448
	.loc 1 470 6
	ldr	r2, [fp, #-32]
	add	r3, r2, r3
	.loc 1 470 61
	sxtb	r2, r1
	.loc 1 470 59
	strb	r2, [r3]
	.loc 1 471 41
	ldrh	r3, [fp, #-186]
	sxth	r3, r3
	add	r3, r3, #1
	sxth	r3, r3
	.loc 1 471 16
	uxth	r3, r3
	.loc 1 471 14
	strh	r3, [fp, #-186]	@ movhi
	.loc 1 472 25
	ldrh	r3, [fp, #-186]
	.loc 1 472 7
	cmp	r3, #7
	bls	.L377
	.loc 1 473 15
	mov	r3, #0
	strh	r3, [fp, #-186]	@ movhi
	.loc 1 474 44
	ldrh	r3, [fp, #-188]
	sxth	r3, r3
	add	r3, r3, #1
	sxth	r3, r3
	.loc 1 474 18
	uxth	r3, r3
	.loc 1 474 16
	strh	r3, [fp, #-188]	@ movhi
	b	.L297
.L295:
.L296:
.L377:
	.loc 1 472 31
	nop
.L297:
.LBE14:
	.loc 1 476 14
	ldr	r3, [fp, #-176]
	add	r3, r3, #1
	.loc 1 476 8
	str	r3, [fp, #-176]
.L288:
	.loc 1 476 12 discriminator 1
	ldr	r3, [fp, #-176]
	.loc 1 476 6 discriminator 1
	ldr	r2, [fp, #-36]
	cmp	r2, r3
	bcs	.L378
	.loc 1 476 4
	nop
.L298:
.LBE13:
	.loc 1 478 10
	ldr	r3, [fp, #-32]
	ldr	r3, [r3, #440]
	str	r3, [fp, #-204]
	.loc 1 480 15
	ldr	r3, [fp, #-204]
	add	r3, r3, #10
	.loc 1 480 5
	ldr	r2, [fp, #-672]
	cmp	r2, r3
	bcs	.L379
	.loc 1 480 5 discriminator 2
	ldr	r2, [fp, #-664]
	movw	r3, #4068
	movt	r3, 153
	add	r3, r2, r3
	.loc 1 480 41 discriminator 2
	mov	r2, #102
	str	r2, [r3]
	.loc 1 480 16 discriminator 2
	mvn	r3, #0
	str	r3, [fp, #-172]
	.loc 1 480 4 discriminator 2
	b	.L350
.L379:
	.loc 1 480 38
	nop
.L300:
	.loc 1 481 40
	ldr	r3, [fp, #-668]
	ldr	r2, [r3]
	.loc 1 481 53
	ldr	r3, [fp, #-204]
	.loc 1 481 3
	add	r3, r2, r3
	ldrh	r3, [r3]	@ unaligned
	uxth	r3, r3
	strh	r3, [fp, #-194]	@ movhi
	.loc 1 482 49
	ldr	r3, [fp, #-668]
	ldr	r2, [r3]
	.loc 1 482 62
	ldr	r3, [fp, #-204]
	.loc 1 482 77
	add	r3, r3, #2
	.loc 1 482 3
	add	r3, r2, r3
	ldrh	r3, [r3]	@ unaligned
	uxth	r3, r3
	strh	r3, [fp, #-198]	@ movhi
	.loc 1 483 49
	ldr	r3, [fp, #-668]
	ldr	r2, [r3]
	.loc 1 483 62
	ldr	r3, [fp, #-204]
	.loc 1 483 77
	add	r3, r3, #4
	.loc 1 483 3
	add	r3, r2, r3
	ldrh	r3, [r3]	@ unaligned
	uxth	r3, r3
	strh	r3, [fp, #-196]	@ movhi
	.loc 1 484 49
	ldr	r3, [fp, #-668]
	ldr	r2, [r3]
	.loc 1 484 62
	ldr	r3, [fp, #-204]
	.loc 1 484 77
	add	r3, r3, #6
	.loc 1 484 3
	add	r3, r2, r3
	ldrh	r3, [r3]	@ unaligned
	uxth	r3, r3
	strh	r3, [fp, #-190]	@ movhi
	.loc 1 485 49
	ldr	r3, [fp, #-668]
	ldr	r2, [r3]
	.loc 1 485 62
	ldr	r3, [fp, #-204]
	.loc 1 485 77
	add	r3, r3, #8
	.loc 1 485 3
	add	r3, r2, r3
	ldrh	r3, [r3]	@ unaligned
	uxth	r3, r3
	strh	r3, [fp, #-192]	@ movhi
	.loc 1 486 19
	ldr	r3, [fp, #-204]
	add	r3, r3, #10
	.loc 1 486 10
	str	r3, [fp, #-204]
	.loc 1 487 14
	ldr	r3, [fp, #-176]
	.loc 1 487 12
	str	r3, [fp, #-40]
	.loc 1 487 17
	ldr	r0, [fp, #-40]
	movw	r3, #:lower16:.LC0
	movt	r3, #:upper16:.LC0
	movw	r2, #487
	movw	r1, #65535
	bl	fb_ArraySngBoundChk
	str	r0, [fp, #-44]
	.loc 1 487 5
	ldr	r3, [fp, #-44]
	cmp	r3, #0
	beq	.L380
	.loc 1 487 3 discriminator 2
	ldr	r3, [fp, #-44]
	mov	pc, r3	@ indirect register jump
.L380:
	.loc 1 487 20
	nop
.L303:
	.loc 1 487 52
	ldr	r3, [fp, #-40]
	lsl	r3, r3, #4
	mov	r2, r3
	.loc 1 487 66
	movw	r3, #454
	movt	r3, 1
	add	r3, r2, r3
	.loc 1 487 4
	ldr	r2, [fp, #-32]
	add	r3, r2, r3
	.loc 1 487 75
	ldrh	r2, [fp, #-190]
	strh	r2, [r3]	@ movhi
	.loc 1 488 15
	ldr	r3, [fp, #-176]
	.loc 1 488 13
	str	r3, [fp, #-48]
	.loc 1 488 17
	ldr	r0, [fp, #-48]
	movw	r3, #:lower16:.LC0
	movt	r3, #:upper16:.LC0
	mov	r2, #488
	movw	r1, #65535
	bl	fb_ArraySngBoundChk
	str	r0, [fp, #-52]
	.loc 1 488 5
	ldr	r3, [fp, #-52]
	cmp	r3, #0
	beq	.L381
	.loc 1 488 3 discriminator 2
	ldr	r3, [fp, #-52]
	mov	pc, r3	@ indirect register jump
.L381:
	.loc 1 488 20
	nop
.L305:
	.loc 1 488 53
	ldr	r3, [fp, #-48]
	lsl	r3, r3, #4
	.loc 1 488 67
	add	r3, r3, #65536
	add	r3, r3, #456
	.loc 1 488 4
	ldr	r2, [fp, #-32]
	add	r3, r2, r3
	.loc 1 488 76
	ldrh	r2, [fp, #-192]
	strh	r2, [r3]	@ movhi
	.loc 1 489 15
	ldr	r3, [fp, #-176]
	.loc 1 489 13
	str	r3, [fp, #-56]
	.loc 1 489 17
	ldr	r0, [fp, #-56]
	movw	r3, #:lower16:.LC0
	movt	r3, #:upper16:.LC0
	movw	r2, #489
	movw	r1, #65535
	bl	fb_ArraySngBoundChk
	str	r0, [fp, #-60]
	.loc 1 489 5
	ldr	r3, [fp, #-60]
	cmp	r3, #0
	beq	.L382
	.loc 1 489 3 discriminator 2
	ldr	r3, [fp, #-60]
	mov	pc, r3	@ indirect register jump
.L382:
	.loc 1 489 20
	nop
.L307:
	.loc 1 489 77
	ldrh	r1, [fp, #-198]
	.loc 1 489 52
	ldr	r3, [fp, #-56]
	lsl	r3, r3, #4
	mov	r2, r3
	.loc 1 489 66
	movw	r3, #450
	movt	r3, 1
	add	r3, r2, r3
	.loc 1 489 4
	ldr	r2, [fp, #-32]
	add	r3, r2, r3
	.loc 1 489 77
	sxth	r2, r1
	.loc 1 489 75
	strh	r2, [r3]	@ movhi
	.loc 1 490 15
	ldr	r3, [fp, #-176]
	.loc 1 490 13
	str	r3, [fp, #-64]
	.loc 1 490 17
	ldr	r0, [fp, #-64]
	movw	r3, #:lower16:.LC0
	movt	r3, #:upper16:.LC0
	movw	r2, #490
	movw	r1, #65535
	bl	fb_ArraySngBoundChk
	str	r0, [fp, #-68]
	.loc 1 490 5
	ldr	r3, [fp, #-68]
	cmp	r3, #0
	beq	.L383
	.loc 1 490 3 discriminator 2
	ldr	r3, [fp, #-68]
	mov	pc, r3	@ indirect register jump
.L383:
	.loc 1 490 20
	nop
.L309:
	.loc 1 490 53
	ldr	r3, [fp, #-64]
	lsl	r3, r3, #4
	.loc 1 490 67
	add	r3, r3, #65536
	add	r3, r3, #452
	.loc 1 490 4
	ldr	r2, [fp, #-32]
	add	r3, r2, r3
	.loc 1 490 76
	ldrh	r2, [fp, #-196]
	strh	r2, [r3]	@ movhi
	.loc 1 491 15
	ldr	r3, [fp, #-176]
	.loc 1 491 13
	str	r3, [fp, #-72]
	.loc 1 491 17
	ldr	r0, [fp, #-72]
	movw	r3, #:lower16:.LC0
	movt	r3, #:upper16:.LC0
	movw	r2, #491
	movw	r1, #65535
	bl	fb_ArraySngBoundChk
	str	r0, [fp, #-76]
	.loc 1 491 5
	ldr	r3, [fp, #-76]
	cmp	r3, #0
	beq	.L384
	.loc 1 491 3 discriminator 2
	ldr	r3, [fp, #-76]
	mov	pc, r3	@ indirect register jump
.L384:
	.loc 1 491 20
	nop
.L311:
	.loc 1 491 53
	ldr	r3, [fp, #-72]
	lsl	r3, r3, #4
	.loc 1 491 67
	add	r3, r3, #65536
	add	r3, r3, #448
	.loc 1 491 4
	ldr	r2, [fp, #-32]
	add	r3, r2, r3
	.loc 1 491 76
	ldrh	r2, [fp, #-194]
	strh	r2, [r3]	@ movhi
	.loc 1 492 20
	ldrh	r3, [fp, #-190]
	.loc 1 492 33
	ldrh	r2, [fp, #-192]
	.loc 1 492 31
	mul	r3, r2, r3
	.loc 1 492 9
	str	r3, [fp, #-208]
	.loc 1 493 13
	ldr	r3, [fp, #-208]
	.loc 1 493 5
	cmp	r3, #0
	beq	.L385
.LBB15:
	.loc 1 494 16
	ldr	r2, [fp, #-204]
	ldr	r3, [fp, #-208]
	add	r3, r2, r3
	.loc 1 494 6
	ldr	r2, [fp, #-672]
	cmp	r2, r3
	bcs	.L386
	.loc 1 495 6
	ldr	r2, [fp, #-664]
	movw	r3, #4068
	movt	r3, 153
	add	r3, r2, r3
	.loc 1 495 42
	mov	r2, #102
	str	r2, [r3]
	.loc 1 497 17
	mvn	r3, #0
	str	r3, [fp, #-172]
	.loc 1 497 5
	b	.L350
.L315:
.L386:
	.loc 1 494 41
	nop
.L316:
	.loc 1 499 18
	ldr	r3, [fp, #-208]
	mov	r0, r3
	bl	malloc
	mov	r3, r0
	str	r3, [fp, #-80]
	.loc 1 499 5
	ldr	r3, [fp, #-32]
	add	r3, r3, #65536
	add	r3, r3, #460
	.loc 1 499 41
	ldr	r2, [fp, #-80]
	str	r2, [r3]
	.loc 1 500 13
	ldr	r3, [fp, #-32]
	add	r3, r3, #65536
	add	r3, r3, #460
	.loc 1 500 4
	ldr	r0, [r3]
	.loc 1 500 65
	ldr	r3, [fp, #-668]
	ldr	r2, [r3]
	.loc 1 500 78
	ldr	r3, [fp, #-204]
	.loc 1 500 4
	add	r3, r2, r3
	ldr	r2, [fp, #-208]
	mov	r1, r3
	bl	memcpy
	.loc 1 501 20
	ldr	r2, [fp, #-204]
	ldr	r3, [fp, #-208]
	add	r3, r2, r3
	.loc 1 501 11
	str	r3, [fp, #-204]
	b	.L317
.L313:
.L385:
.LBE15:
	.loc 1 493 21
	nop
.L317:
.LBB16:
	.loc 1 506 8
	ldr	r3, [fp, #-32]
	ldr	r3, [r3, #420]
	str	r3, [fp, #-176]
	.loc 1 506 27
	ldr	r3, [fp, #-32]
	add	r3, r3, #420
	.loc 1 506 26
	ldr	r2, [r3]
	.loc 1 506 63
	ldr	r3, [fp, #-32]
	add	r3, r3, #424
	.loc 1 506 62
	ldr	r3, [r3]
	.loc 1 506 60
	add	r3, r2, r3
	.loc 1 506 97
	sub	r3, r3, #1
	.loc 1 506 14
	str	r3, [fp, #-84]
	.loc 1 506 4
	b	.L318
.L399:
	.loc 1 539 27
	nop
.L319:
.LBB17:
	.loc 1 508 17
	ldr	r3, [fp, #-176]
	.loc 1 508 15
	str	r3, [fp, #-88]
	.loc 1 508 20
	ldr	r0, [fp, #-88]
	movw	r3, #:lower16:.LC0
	movt	r3, #:upper16:.LC0
	mov	r2, #508
	movw	r1, #65535
	bl	fb_ArraySngBoundChk
	str	r0, [fp, #-92]
	.loc 1 508 7
	ldr	r3, [fp, #-92]
	cmp	r3, #0
	beq	.L387
	.loc 1 508 5 discriminator 2
	ldr	r3, [fp, #-92]
	mov	pc, r3	@ indirect register jump
.L387:
	.loc 1 508 23
	nop
.L321:
	.loc 1 508 64
	ldr	r3, [fp, #-88]
	add	r3, r3, #448
	.loc 1 508 17
	ldr	r2, [fp, #-32]
	add	r3, r2, r3
	.loc 1 508 16
	ldrsb	r3, [r3]
	.loc 1 508 7
	cmp	r3, #0
	beq	.L388
.LBB18:
	.loc 1 510 18
	ldr	r3, [fp, #-204]
	add	r3, r3, #10
	.loc 1 510 8
	ldr	r2, [fp, #-672]
	cmp	r2, r3
	bcs	.L389
	.loc 1 512 8
	ldr	r2, [fp, #-664]
	movw	r3, #4068
	movt	r3, 153
	add	r3, r2, r3
	.loc 1 512 44
	mov	r2, #102
	str	r2, [r3]
	.loc 1 514 19
	mvn	r3, #0
	str	r3, [fp, #-172]
	.loc 1 514 7
	b	.L350
.L325:
.L389:
	.loc 1 510 41
	nop
.L326:
	.loc 1 516 43
	ldr	r3, [fp, #-668]
	ldr	r2, [r3]
	.loc 1 516 56
	ldr	r3, [fp, #-204]
	.loc 1 516 6
	add	r3, r2, r3
	ldrh	r3, [r3]	@ unaligned
	uxth	r3, r3
	strh	r3, [fp, #-194]	@ movhi
	.loc 1 517 52
	ldr	r3, [fp, #-668]
	ldr	r2, [r3]
	.loc 1 517 65
	ldr	r3, [fp, #-204]
	.loc 1 517 80
	add	r3, r3, #2
	.loc 1 517 6
	add	r3, r2, r3
	ldrh	r3, [r3]	@ unaligned
	uxth	r3, r3
	strh	r3, [fp, #-198]	@ movhi
	.loc 1 518 52
	ldr	r3, [fp, #-668]
	ldr	r2, [r3]
	.loc 1 518 65
	ldr	r3, [fp, #-204]
	.loc 1 518 80
	add	r3, r3, #4
	.loc 1 518 6
	add	r3, r2, r3
	ldrh	r3, [r3]	@ unaligned
	uxth	r3, r3
	strh	r3, [fp, #-196]	@ movhi
	.loc 1 519 52
	ldr	r3, [fp, #-668]
	ldr	r2, [r3]
	.loc 1 519 65
	ldr	r3, [fp, #-204]
	.loc 1 519 80
	add	r3, r3, #6
	.loc 1 519 6
	add	r3, r2, r3
	ldrh	r3, [r3]	@ unaligned
	uxth	r3, r3
	strh	r3, [fp, #-190]	@ movhi
	.loc 1 520 52
	ldr	r3, [fp, #-668]
	ldr	r2, [r3]
	.loc 1 520 65
	ldr	r3, [fp, #-204]
	.loc 1 520 80
	add	r3, r3, #8
	.loc 1 520 6
	add	r3, r2, r3
	ldrh	r3, [r3]	@ unaligned
	uxth	r3, r3
	strh	r3, [fp, #-192]	@ movhi
	.loc 1 521 22
	ldr	r3, [fp, #-204]
	add	r3, r3, #10
	.loc 1 521 13
	str	r3, [fp, #-204]
	.loc 1 522 18
	ldr	r3, [fp, #-176]
	.loc 1 522 16
	str	r3, [fp, #-96]
	.loc 1 522 21
	ldr	r0, [fp, #-96]
	movw	r3, #:lower16:.LC0
	movt	r3, #:upper16:.LC0
	movw	r2, #522
	movw	r1, #65535
	bl	fb_ArraySngBoundChk
	str	r0, [fp, #-100]
	.loc 1 522 8
	ldr	r3, [fp, #-100]
	cmp	r3, #0
	beq	.L390
	.loc 1 522 6 discriminator 2
	ldr	r3, [fp, #-100]
	mov	pc, r3	@ indirect register jump
.L390:
	.loc 1 522 24
	nop
.L328:
	.loc 1 522 56
	ldr	r3, [fp, #-96]
	lsl	r3, r3, #4
	mov	r2, r3
	.loc 1 522 70
	movw	r3, #454
	movt	r3, 1
	add	r3, r2, r3
	.loc 1 522 7
	ldr	r2, [fp, #-32]
	add	r3, r2, r3
	.loc 1 522 79
	ldrh	r2, [fp, #-190]
	strh	r2, [r3]	@ movhi
	.loc 1 523 18
	ldr	r3, [fp, #-176]
	.loc 1 523 16
	str	r3, [fp, #-104]
	.loc 1 523 21
	ldr	r0, [fp, #-104]
	movw	r3, #:lower16:.LC0
	movt	r3, #:upper16:.LC0
	movw	r2, #523
	movw	r1, #65535
	bl	fb_ArraySngBoundChk
	str	r0, [fp, #-108]
	.loc 1 523 8
	ldr	r3, [fp, #-108]
	cmp	r3, #0
	beq	.L391
	.loc 1 523 6 discriminator 2
	ldr	r3, [fp, #-108]
	mov	pc, r3	@ indirect register jump
.L391:
	.loc 1 523 24
	nop
.L330:
	.loc 1 523 56
	ldr	r3, [fp, #-104]
	lsl	r3, r3, #4
	.loc 1 523 70
	add	r3, r3, #65536
	add	r3, r3, #456
	.loc 1 523 7
	ldr	r2, [fp, #-32]
	add	r3, r2, r3
	.loc 1 523 79
	ldrh	r2, [fp, #-192]
	strh	r2, [r3]	@ movhi
	.loc 1 524 18
	ldr	r3, [fp, #-176]
	.loc 1 524 16
	str	r3, [fp, #-112]
	.loc 1 524 21
	ldr	r0, [fp, #-112]
	movw	r3, #:lower16:.LC0
	movt	r3, #:upper16:.LC0
	mov	r2, #524
	movw	r1, #65535
	bl	fb_ArraySngBoundChk
	str	r0, [fp, #-116]
	.loc 1 524 8
	ldr	r3, [fp, #-116]
	cmp	r3, #0
	beq	.L392
	.loc 1 524 6 discriminator 2
	ldr	r3, [fp, #-116]
	mov	pc, r3	@ indirect register jump
.L392:
	.loc 1 524 24
	nop
.L332:
	.loc 1 524 80
	ldrh	r1, [fp, #-198]
	.loc 1 524 55
	ldr	r3, [fp, #-112]
	lsl	r3, r3, #4
	mov	r2, r3
	.loc 1 524 69
	movw	r3, #450
	movt	r3, 1
	add	r3, r2, r3
	.loc 1 524 7
	ldr	r2, [fp, #-32]
	add	r3, r2, r3
	.loc 1 524 80
	sxth	r2, r1
	.loc 1 524 78
	strh	r2, [r3]	@ movhi
	.loc 1 525 18
	ldr	r3, [fp, #-176]
	.loc 1 525 16
	str	r3, [fp, #-120]
	.loc 1 525 21
	ldr	r0, [fp, #-120]
	movw	r3, #:lower16:.LC0
	movt	r3, #:upper16:.LC0
	movw	r2, #525
	movw	r1, #65535
	bl	fb_ArraySngBoundChk
	str	r0, [fp, #-124]
	.loc 1 525 8
	ldr	r3, [fp, #-124]
	cmp	r3, #0
	beq	.L393
	.loc 1 525 6 discriminator 2
	ldr	r3, [fp, #-124]
	mov	pc, r3	@ indirect register jump
.L393:
	.loc 1 525 24
	nop
.L334:
	.loc 1 525 56
	ldr	r3, [fp, #-120]
	lsl	r3, r3, #4
	.loc 1 525 70
	add	r3, r3, #65536
	add	r3, r3, #452
	.loc 1 525 7
	ldr	r2, [fp, #-32]
	add	r3, r2, r3
	.loc 1 525 79
	ldrh	r2, [fp, #-196]
	strh	r2, [r3]	@ movhi
	.loc 1 526 18
	ldr	r3, [fp, #-176]
	.loc 1 526 16
	str	r3, [fp, #-128]
	.loc 1 526 21
	ldr	r0, [fp, #-128]
	movw	r3, #:lower16:.LC0
	movt	r3, #:upper16:.LC0
	movw	r2, #526
	movw	r1, #65535
	bl	fb_ArraySngBoundChk
	str	r0, [fp, #-132]
	.loc 1 526 8
	ldr	r3, [fp, #-132]
	cmp	r3, #0
	beq	.L394
	.loc 1 526 6 discriminator 2
	ldr	r3, [fp, #-132]
	mov	pc, r3	@ indirect register jump
.L394:
	.loc 1 526 24
	nop
.L336:
	.loc 1 526 56
	ldr	r3, [fp, #-128]
	lsl	r3, r3, #4
	.loc 1 526 70
	add	r3, r3, #65536
	add	r3, r3, #448
	.loc 1 526 7
	ldr	r2, [fp, #-32]
	add	r3, r2, r3
	.loc 1 526 79
	ldrh	r2, [fp, #-194]
	strh	r2, [r3]	@ movhi
	.loc 1 527 23
	ldrh	r3, [fp, #-190]
	.loc 1 527 36
	ldrh	r2, [fp, #-192]
	.loc 1 527 34
	mul	r3, r2, r3
	.loc 1 527 12
	str	r3, [fp, #-208]
	.loc 1 528 16
	ldr	r3, [fp, #-208]
	.loc 1 528 8
	cmp	r3, #0
	beq	.L395
.LBB19:
	.loc 1 529 19
	ldr	r2, [fp, #-204]
	ldr	r3, [fp, #-208]
	add	r3, r2, r3
	.loc 1 529 9
	ldr	r2, [fp, #-672]
	cmp	r2, r3
	bcs	.L396
	.loc 1 530 9
	ldr	r2, [fp, #-664]
	movw	r3, #4068
	movt	r3, 153
	add	r3, r2, r3
	.loc 1 530 45
	mov	r2, #102
	str	r2, [r3]
	.loc 1 532 20
	mvn	r3, #0
	str	r3, [fp, #-172]
	.loc 1 532 8
	b	.L350
.L340:
.L396:
	.loc 1 529 44
	nop
.L341:
	.loc 1 534 22
	ldr	r3, [fp, #-208]
	mov	r0, r3
	bl	malloc
	mov	r3, r0
	str	r3, [fp, #-136]
	.loc 1 534 19
	ldr	r3, [fp, #-176]
	.loc 1 534 17
	str	r3, [fp, #-140]
	.loc 1 534 22
	ldr	r0, [fp, #-140]
	movw	r3, #:lower16:.LC0
	movt	r3, #:upper16:.LC0
	movw	r2, #534
	movw	r1, #65535
	bl	fb_ArraySngBoundChk
	str	r0, [fp, #-144]
	.loc 1 534 9
	ldr	r3, [fp, #-144]
	cmp	r3, #0
	beq	.L397
	.loc 1 534 7 discriminator 2
	ldr	r3, [fp, #-144]
	mov	pc, r3	@ indirect register jump
.L397:
	.loc 1 534 25
	nop
.L343:
	.loc 1 534 57
	ldr	r3, [fp, #-140]
	lsl	r3, r3, #4
	.loc 1 534 71
	add	r3, r3, #65536
	add	r3, r3, #460
	.loc 1 534 8
	ldr	r2, [fp, #-32]
	add	r3, r2, r3
	.loc 1 534 80
	ldr	r2, [fp, #-136]
	str	r2, [r3]
	.loc 1 535 19
	ldr	r3, [fp, #-176]
	.loc 1 535 17
	str	r3, [fp, #-148]
	.loc 1 535 22
	ldr	r0, [fp, #-148]
	movw	r3, #:lower16:.LC0
	movt	r3, #:upper16:.LC0
	movw	r2, #535
	movw	r1, #65535
	bl	fb_ArraySngBoundChk
	str	r0, [fp, #-152]
	.loc 1 535 9
	ldr	r3, [fp, #-152]
	cmp	r3, #0
	beq	.L398
	.loc 1 535 7 discriminator 2
	ldr	r3, [fp, #-152]
	mov	pc, r3	@ indirect register jump
.L398:
	.loc 1 535 25
	nop
.L345:
	.loc 1 535 64
	ldr	r3, [fp, #-148]
	lsl	r3, r3, #4
	.loc 1 535 78
	add	r3, r3, #65536
	add	r3, r3, #460
	.loc 1 535 16
	ldr	r2, [fp, #-32]
	add	r3, r2, r3
	.loc 1 535 7
	ldr	r0, [r3]
	.loc 1 535 104
	ldr	r3, [fp, #-668]
	ldr	r2, [r3]
	.loc 1 535 117
	ldr	r3, [fp, #-204]
	.loc 1 535 7
	add	r3, r2, r3
	ldr	r2, [fp, #-208]
	mov	r1, r3
	bl	memcpy
	.loc 1 536 23
	ldr	r2, [fp, #-204]
	ldr	r3, [fp, #-208]
	add	r3, r2, r3
	.loc 1 536 14
	str	r3, [fp, #-204]
	b	.L348
.L338:
.L346:
.L323:
.L347:
.L388:
.LBE19:
.LBE18:
	.loc 1 508 78
	nop
	b	.L348
.L395:
.LBB20:
	.loc 1 528 24
	nop
.L348:
.LBE20:
.LBE17:
	.loc 1 539 14
	ldr	r3, [fp, #-176]
	add	r3, r3, #1
	.loc 1 539 8
	str	r3, [fp, #-176]
.L318:
	.loc 1 539 12 discriminator 1
	ldr	r3, [fp, #-176]
	.loc 1 539 6 discriminator 1
	ldr	r2, [fp, #-84]
	cmp	r2, r3
	bcs	.L399
.L349:
	.loc 1 539 4
	nop
.L350:
.LBE16:
.LBE12:
	.loc 1 542 2
	ldr	r0, [fp, #-20]
	bl	fb_ErrorSetFuncName
	.loc 1 542 2
	ldr	r0, [fp, #-12]
	bl	fb_ErrorSetModName
	.loc 1 542 9
	ldr	r3, [fp, #-172]
	.loc 1 542 1
	mov	r0, r3
	sub	sp, fp, #4
	.cfi_def_cfa 13, 8
	@ sp needed
	pop	{fp, pc}
	.cfi_endproc
.LFE23:
	.size	_ZN5XFONT9INTERFACE16BACKEND_LOADFONTERPvmh, .-_ZN5XFONT9INTERFACE16BACKEND_LOADFONTERPvmh
	.section	.rodata
	.align	2
.LC22:
	.ascii	"UNLOADFONT\000"
	.text
	.align	2
	.global	_ZN5XFONT9INTERFACE10UNLOADFONTEh
	.syntax unified
	.arm
	.fpu vfp
	.type	_ZN5XFONT9INTERFACE10UNLOADFONTEh, %function
_ZN5XFONT9INTERFACE10UNLOADFONTEh:
.LFB24:
	.loc 1 545 1
	.cfi_startproc
	@ args = 0, pretend = 0, frame = 32
	@ frame_needed = 1, uses_anonymous_args = 0
	push	{fp, lr}
	.cfi_def_cfa_offset 8
	.cfi_offset 11, -8
	.cfi_offset 14, -4
	add	fp, sp, #4
	.cfi_def_cfa 11, 4
	sub	sp, sp, #32
	str	r0, [fp, #-32]
	mov	r3, r1
	strb	r3, [fp, #-33]
	mov	r3, #0
	str	r3, [fp, #-28]
	.loc 1 545 16
	movw	r0, #:lower16:.LC0
	movt	r0, #:upper16:.LC0
	bl	fb_ErrorSetModName
	str	r0, [fp, #-8]
	.loc 1 545 12
	ldr	r3, [fp, #-8]
	str	r3, [fp, #-12]
	.loc 1 545 16
	movw	r0, #:lower16:.LC22
	movt	r0, #:upper16:.LC22
	bl	fb_ErrorSetFuncName
	str	r0, [fp, #-16]
	.loc 1 545 12
	ldr	r3, [fp, #-16]
	str	r3, [fp, #-20]
.L401:
	.loc 1 546 26
	ldrb	r3, [fp, #-33]	@ zero_extendqisi2
	cmp	r3, #0
	moveq	r3, #1
	movne	r3, #0
	uxtb	r3, r3
	.loc 1 546 7
	rsb	r2, r3, #0
	.loc 1 546 52
	ldrb	r3, [fp, #-33]	@ zero_extendqisi2
	cmp	r3, #8
	movhi	r3, #1
	movls	r3, #0
	uxtb	r3, r3
	.loc 1 546 33
	rsb	r3, r3, #0
	.loc 1 546 31
	orr	r3, r2, r3
	.loc 1 546 4
	cmp	r3, #0
	beq	.L409
	.loc 1 546 4 discriminator 2
	ldr	r2, [fp, #-32]
	movw	r3, #4068
	movt	r3, 153
	add	r3, r2, r3
	.loc 1 546 40 discriminator 2
	mov	r2, #102
	str	r2, [r3]
	.loc 1 546 15 discriminator 2
	mov	r3, #0
	str	r3, [fp, #-28]
	.loc 1 546 3 discriminator 2
	b	.L404
.L409:
	.loc 1 546 65
	nop
.L403:
	.loc 1 547 23
	ldrb	r3, [fp, #-33]	@ zero_extendqisi2
	uxth	r2, r3
	.loc 1 547 34
	ldr	r1, [fp, #-32]
	movw	r3, #6540
	movt	r3, 154
	add	r3, r1, r3
	.loc 1 547 33
	ldrh	r3, [r3]
	.loc 1 547 4
	cmp	r2, r3
	bne	.L410
	.loc 1 547 4 discriminator 2
	ldr	r2, [fp, #-32]
	movw	r3, #6540
	movt	r3, 154
	add	r3, r2, r3
	.loc 1 547 41 discriminator 2
	mov	r2, #0
	strh	r2, [r3]	@ movhi
	b	.L406
.L410:
	.loc 1 547 73
	nop
.L406:
	.loc 1 548 16
	ldrb	r3, [fp, #-33]	@ zero_extendqisi2
	mov	r1, r3
	ldr	r0, [fp, #-32]
	bl	_ZN5XFONT9INTERFACE18BACKEND_UNLOADFONTEh
	str	r0, [fp, #-24]
	.loc 1 548 14
	ldr	r3, [fp, #-24]
	str	r3, [fp, #-28]
	.loc 1 548 2
	nop
.L404:
	.loc 1 549 2
	ldr	r0, [fp, #-20]
	bl	fb_ErrorSetFuncName
	.loc 1 549 2
	ldr	r0, [fp, #-12]
	bl	fb_ErrorSetModName
	.loc 1 549 9
	ldr	r3, [fp, #-28]
	.loc 1 549 1
	mov	r0, r3
	sub	sp, fp, #4
	.cfi_def_cfa 13, 8
	@ sp needed
	pop	{fp, pc}
	.cfi_endproc
.LFE24:
	.size	_ZN5XFONT9INTERFACE10UNLOADFONTEh, .-_ZN5XFONT9INTERFACE10UNLOADFONTEh
	.section	.rodata
	.align	2
.LC23:
	.ascii	"BACKEND_UNLOADFONT\000"
	.text
	.align	2
	.global	_ZN5XFONT9INTERFACE18BACKEND_UNLOADFONTEh
	.syntax unified
	.arm
	.fpu vfp
	.type	_ZN5XFONT9INTERFACE18BACKEND_UNLOADFONTEh, %function
_ZN5XFONT9INTERFACE18BACKEND_UNLOADFONTEh:
.LFB25:
	.loc 1 552 1
	.cfi_startproc
	@ args = 0, pretend = 0, frame = 552
	@ frame_needed = 1, uses_anonymous_args = 0
	push	{fp, lr}
	.cfi_def_cfa_offset 8
	.cfi_offset 11, -8
	.cfi_offset 14, -4
	add	fp, sp, #4
	.cfi_def_cfa 11, 4
	sub	sp, sp, #552
	str	r0, [fp, #-552]
	mov	r3, r1
	strb	r3, [fp, #-553]
	mov	r3, #0
	str	r3, [fp, #-60]
	.loc 1 552 16
	movw	r0, #:lower16:.LC0
	movt	r0, #:upper16:.LC0
	bl	fb_ErrorSetModName
	str	r0, [fp, #-8]
	.loc 1 552 12
	ldr	r3, [fp, #-8]
	str	r3, [fp, #-12]
	.loc 1 552 16
	movw	r0, #:lower16:.LC23
	movt	r0, #:upper16:.LC23
	bl	fb_ErrorSetFuncName
	str	r0, [fp, #-16]
	.loc 1 552 12
	ldr	r3, [fp, #-16]
	str	r3, [fp, #-20]
.L412:
	mov	r3, #0
	str	r3, [fp, #-64]
	.loc 1 554 2
	sub	r3, fp, #512
	mov	r0, r3
	mov	r3, #448
	mov	r2, r3
	mov	r1, #0
	bl	memset
.LBB21:
	.loc 1 555 13
	ldrb	r3, [fp, #-553]	@ zero_extendqisi2
	str	r3, [fp, #-24]
	.loc 1 555 16
	ldr	r0, [fp, #-24]
	movw	r3, #:lower16:.LC0
	movt	r3, #:upper16:.LC0
	movw	r2, #555
	mov	r1, #8
	bl	fb_ArraySngBoundChk
	str	r0, [fp, #-28]
	.loc 1 555 5
	ldr	r3, [fp, #-28]
	cmp	r3, #0
	beq	.L437
	.loc 1 555 3 discriminator 2
	ldr	r3, [fp, #-28]
	mov	pc, r3	@ indirect register jump
.L437:
	.loc 1 555 19
	nop
.L414:
	.loc 1 555 75
	ldr	r2, [fp, #-24]
	mov	r3, #452
	movt	r3, 17
	mul	r3, r3, r2
	mov	r2, r3
	.loc 1 555 13
	ldr	r3, [fp, #-552]
	add	r3, r3, r2
	str	r3, [fp, #-32]
	.loc 1 556 16
	ldr	r3, [fp, #-32]
	add	r3, r3, #1114112
	add	r3, r3, #448
	.loc 1 556 15
	ldrsb	r3, [r3]
	.loc 1 556 5
	cmn	r3, #1
	beq	.L438
	.loc 1 556 5 discriminator 2
	ldr	r2, [fp, #-552]
	movw	r3, #4068
	movt	r3, 153
	add	r3, r2, r3
	.loc 1 556 41 discriminator 2
	mov	r2, #106
	str	r2, [r3]
	.loc 1 556 16 discriminator 2
	mov	r3, #0
	str	r3, [fp, #-60]
	b	.L417
.L438:
	.loc 1 556 60
	nop
.L416:
	.loc 1 557 3
	ldr	r3, [fp, #-32]
	mov	r0, r3
	sub	r3, fp, #512
	mov	r2, #448
	mov	r1, r3
	bl	memcpy
	.loc 1 559 8
	mov	r3, #0
	str	r3, [fp, #-64]
.L418:
.LBB22:
	.loc 1 560 17
	ldr	r3, [fp, #-64]
	.loc 1 560 15
	str	r3, [fp, #-36]
	.loc 1 560 19
	ldr	r0, [fp, #-36]
	movw	r3, #:lower16:.LC0
	movt	r3, #:upper16:.LC0
	mov	r2, #560
	movw	r1, #65535
	bl	fb_ArraySngBoundChk
	str	r0, [fp, #-40]
	.loc 1 560 7
	ldr	r3, [fp, #-40]
	cmp	r3, #0
	beq	.L439
	.loc 1 560 5 discriminator 2
	ldr	r3, [fp, #-40]
	mov	pc, r3	@ indirect register jump
.L439:
	.loc 1 560 22
	nop
.L420:
	.loc 1 560 17
	ldr	r3, [fp, #-64]
	.loc 1 560 15
	str	r3, [fp, #-44]
	.loc 1 560 19
	ldr	r0, [fp, #-44]
	movw	r3, #:lower16:.LC0
	movt	r3, #:upper16:.LC0
	mov	r2, #560
	movw	r1, #65535
	bl	fb_ArraySngBoundChk
	str	r0, [fp, #-48]
	.loc 1 560 7
	ldr	r3, [fp, #-48]
	cmp	r3, #0
	beq	.L440
	.loc 1 560 5 discriminator 5
	ldr	r3, [fp, #-48]
	mov	pc, r3	@ indirect register jump
.L440:
	.loc 1 560 22
	nop
.L422:
	.loc 1 560 70
	ldr	r3, [fp, #-36]
	lsl	r3, r3, #4
	mov	r2, r3
	.loc 1 560 84
	movw	r3, #454
	movt	r3, 1
	add	r3, r2, r3
	.loc 1 560 20
	ldr	r2, [fp, #-32]
	add	r3, r2, r3
	.loc 1 560 19
	ldrh	r3, [r3]
	.loc 1 560 93
	cmp	r3, #0
	movne	r3, #1
	moveq	r3, #0
	uxtb	r3, r3
	.loc 1 560 10
	rsb	r3, r3, #0
	.loc 1 560 156
	ldr	r2, [fp, #-44]
	add	r2, r2, #448
	.loc 1 560 108
	ldr	r1, [fp, #-32]
	add	r2, r1, r2
	.loc 1 560 107
	ldrsb	r2, [r2]
	.loc 1 560 98
	and	r3, r3, r2
	.loc 1 560 7
	cmp	r3, #0
	beq	.L441
.LBB23:
	.loc 1 561 18
	ldr	r3, [fp, #-64]
	.loc 1 561 16
	str	r3, [fp, #-52]
	.loc 1 561 20
	ldr	r0, [fp, #-52]
	movw	r3, #:lower16:.LC0
	movt	r3, #:upper16:.LC0
	movw	r2, #561
	movw	r1, #65535
	bl	fb_ArraySngBoundChk
	str	r0, [fp, #-56]
	.loc 1 561 8
	ldr	r3, [fp, #-56]
	cmp	r3, #0
	beq	.L442
	.loc 1 561 6 discriminator 2
	ldr	r3, [fp, #-56]
	mov	pc, r3	@ indirect register jump
.L442:
	.loc 1 561 23
	nop
.L426:
	.loc 1 561 62
	ldr	r3, [fp, #-52]
	lsl	r3, r3, #4
	.loc 1 561 76
	add	r3, r3, #65536
	add	r3, r3, #460
	.loc 1 561 13
	ldr	r2, [fp, #-32]
	add	r3, r2, r3
	.loc 1 561 6
	ldr	r3, [r3]
	mov	r0, r3
	bl	free
	b	.L428
.L424:
.L427:
.L441:
.LBE23:
	.loc 1 560 171
	nop
.L428:
.LBE22:
	.loc 1 564 14
	ldr	r3, [fp, #-64]
	add	r3, r3, #1
	.loc 1 564 8
	str	r3, [fp, #-64]
.L429:
	.loc 1 564 12
	ldr	r3, [fp, #-64]
	.loc 1 564 6
	cmp	r3, #65536
	bcs	.L443
	.loc 1 564 24 discriminator 2
	b	.L418
.L443:
	.loc 1 564 4
	nop
.L430:
	.loc 1 565 12
	sub	r3, fp, #544
	.loc 1 565 25
	ldr	r2, [fp, #-32]
	add	r2, r2, #448
	.loc 1 565 23
	str	r2, [r3]
	.loc 1 565 4
	sub	r3, fp, #544
	add	r3, r3, #4
	.loc 1 565 39
	ldr	r2, [fp, #-32]
	add	r2, r2, #448
	.loc 1 565 37
	str	r2, [r3]
	.loc 1 565 4
	sub	r3, fp, #544
	add	r3, r3, #8
	.loc 1 565 37
	mov	r2, #65536
	str	r2, [r3]
	.loc 1 565 4
	sub	r3, fp, #544
	add	r3, r3, #12
	.loc 1 565 38
	mov	r2, #1
	str	r2, [r3]
	.loc 1 565 4
	sub	r3, fp, #544
	add	r3, r3, #16
	.loc 1 565 38
	mov	r2, #1
	str	r2, [r3]
	.loc 1 565 4
	sub	r3, fp, #544
	add	r3, r3, #20
	.loc 1 565 38
	mov	r2, #65536
	str	r2, [r3]
	.loc 1 565 4
	sub	r3, fp, #544
	add	r3, r3, #24
	.loc 1 565 38
	mov	r2, #0
	str	r2, [r3]
	.loc 1 565 4
	sub	r3, fp, #544
	add	r3, r3, #28
	.loc 1 565 38
	movw	r2, #65535
	str	r2, [r3]
	.loc 1 565 3
	sub	r3, fp, #544
	mov	r1, #0
	mov	r0, r3
	bl	fb_ArrayClear
	.loc 1 566 4
	ldr	r3, [fp, #-32]
	add	r3, r3, #1114112
	add	r3, r3, #448
	.loc 1 566 41
	mov	r2, #0
	strb	r2, [r3]
.L417:
.LBE21:
	.loc 1 568 2
	ldr	r0, [fp, #-20]
	bl	fb_ErrorSetFuncName
	.loc 1 568 2
	ldr	r0, [fp, #-12]
	bl	fb_ErrorSetModName
	.loc 1 568 9
	ldr	r3, [fp, #-60]
	.loc 1 568 1
	mov	r0, r3
	sub	sp, fp, #4
	.cfi_def_cfa 13, 8
	@ sp needed
	pop	{fp, pc}
	.cfi_endproc
.LFE25:
	.size	_ZN5XFONT9INTERFACE18BACKEND_UNLOADFONTEh, .-_ZN5XFONT9INTERFACE18BACKEND_UNLOADFONTEh
	.section	.rodata
	.align	2
.LC24:
	.ascii	"CREATECOMPATIBLEHEADER\000"
	.text
	.align	2
	.global	_ZN5XFONT9INTERFACE22CREATECOMPATIBLEHEADERERPv
	.syntax unified
	.arm
	.fpu vfp
	.type	_ZN5XFONT9INTERFACE22CREATECOMPATIBLEHEADERERPv, %function
_ZN5XFONT9INTERFACE22CREATECOMPATIBLEHEADERERPv:
.LFB26:
	.loc 1 571 1
	.cfi_startproc
	@ args = 0, pretend = 0, frame = 928
	@ frame_needed = 1, uses_anonymous_args = 0
	push	{fp, lr}
	.cfi_def_cfa_offset 8
	.cfi_offset 11, -8
	.cfi_offset 14, -4
	add	fp, sp, #4
	.cfi_def_cfa 11, 4
	sub	sp, sp, #928
	str	r0, [fp, #-920]
	str	r1, [fp, #-924]
	str	r2, [fp, #-928]
	.loc 1 571 2
	sub	r3, fp, #468
	mov	r0, r3
	mov	r3, #448
	mov	r2, r3
	mov	r1, #0
	bl	memset
	.loc 1 571 16
	movw	r0, #:lower16:.LC0
	movt	r0, #:upper16:.LC0
	bl	fb_ErrorSetModName
	str	r0, [fp, #-8]
	.loc 1 571 12
	ldr	r3, [fp, #-8]
	str	r3, [fp, #-12]
	.loc 1 571 16
	movw	r0, #:lower16:.LC24
	movt	r0, #:upper16:.LC24
	bl	fb_ErrorSetFuncName
	str	r0, [fp, #-16]
	.loc 1 571 12
	ldr	r3, [fp, #-16]
	str	r3, [fp, #-20]
.L445:
	.loc 1 574 2
	sub	r3, fp, #916
	mov	r0, r3
	mov	r3, #448
	mov	r2, r3
	mov	r1, #0
	bl	memset
	.loc 1 577 3
	ldr	r3, [fp, #-928]
	ldr	r3, [r3]
	ldrh	r3, [r3]	@ unaligned
	uxth	r2, r3
	sub	r3, fp, #4
	sub	r3, r3, #912
	strh	r2, [r3]	@ movhi
	.loc 1 578 3
	sub	r3, fp, #916
	add	r3, r3, #2
	.loc 1 578 62
	ldr	r2, [fp, #-928]
	ldr	r2, [r2]
	.loc 1 578 3
	add	r2, r2, #2
	ldrh	r2, [r2]	@ unaligned
	uxth	r2, r2
	strh	r2, [r3]	@ unaligned
	.loc 1 579 3
	sub	r3, fp, #916
	add	r3, r3, #4
	.loc 1 579 62
	ldr	r2, [fp, #-928]
	ldr	r2, [r2]
	.loc 1 579 3
	add	r2, r2, #4
	ldrb	r2, [r2]	@ zero_extendqisi2
	strb	r2, [r3]
	.loc 1 580 3
	sub	r3, fp, #916
	add	r3, r3, #5
	.loc 1 580 62
	ldr	r2, [fp, #-928]
	ldr	r2, [r2]
	.loc 1 580 3
	add	r1, r2, #5
	mov	r2, #16
	mov	r0, r3
	bl	memcpy
	.loc 1 581 3
	sub	r3, fp, #916
	add	r3, r3, #22
	.loc 1 581 63
	ldr	r2, [fp, #-928]
	ldr	r2, [r2]
	.loc 1 581 3
	add	r2, r2, #21
	ldrb	r2, [r2]	@ zero_extendqisi2
	strb	r2, [r3]
	.loc 1 582 3
	sub	r3, fp, #916
	add	r3, r3, #23
	.loc 1 582 63
	ldr	r2, [fp, #-928]
	ldr	r2, [r2]
	.loc 1 582 3
	add	r2, r2, #22
	ldrb	r2, [r2]	@ zero_extendqisi2
	strb	r2, [r3]
	.loc 1 583 3
	sub	r3, fp, #916
	add	r3, r3, #24
	.loc 1 583 63
	ldr	r2, [fp, #-928]
	ldr	r2, [r2]
	.loc 1 583 3
	add	r1, r2, #23
	mov	r2, #192
	mov	r0, r3
	bl	memcpy
	.loc 1 584 3
	sub	r3, fp, #916
	add	r3, r3, #217
	.loc 1 584 64
	ldr	r2, [fp, #-928]
	ldr	r2, [r2]
	.loc 1 584 3
	add	r2, r2, #215
	ldrb	r2, [r2]	@ zero_extendqisi2
	strb	r2, [r3]
	.loc 1 585 3
	sub	r3, fp, #916
	add	r3, r3, #218
	.loc 1 585 64
	ldr	r2, [fp, #-928]
	ldr	r2, [r2]
	.loc 1 585 3
	add	r2, r2, #216
	ldrb	r2, [r2]	@ zero_extendqisi2
	strb	r2, [r3]
	.loc 1 586 3
	sub	r3, fp, #916
	add	r3, r3, #219
	.loc 1 586 64
	ldr	r2, [fp, #-928]
	ldr	r2, [r2]
	.loc 1 586 3
	add	r1, r2, #217
	mov	r2, #192
	mov	r0, r3
	bl	memcpy
	.loc 1 587 3
	sub	r3, fp, #916
	add	r3, r3, #412
	.loc 1 587 64
	ldr	r2, [fp, #-928]
	ldr	r2, [r2]
	.loc 1 587 3
	add	r2, r2, #408
	add	r2, r2, #1
	ldrb	r2, [r2]	@ zero_extendqisi2
	strb	r2, [r3]
	.loc 1 588 3
	sub	r2, fp, #916
	add	r3, r2, #412
	add	r3, r3, #1
	mov	r2, r3
	.loc 1 588 64
	ldr	r3, [fp, #-928]
	ldr	r3, [r3]
	.loc 1 588 3
	add	r3, r3, #408
	add	r3, r3, #2
	ldrh	r3, [r3]	@ unaligned
	uxth	r3, r3
	strh	r3, [r2]	@ unaligned
	.loc 1 589 3
	sub	r3, fp, #916
	add	r3, r3, #412
	add	r3, r3, #3
	.loc 1 589 64
	ldr	r2, [fp, #-928]
	ldr	r2, [r2]
	.loc 1 589 3
	add	r2, r2, #412
	ldrh	r2, [r2]	@ unaligned
	uxth	r2, r2
	strh	r2, [r3]	@ unaligned
	.loc 1 590 3
	sub	r2, fp, #916
	add	r3, r2, #416
	add	r3, r3, #1
	mov	r2, r3
	.loc 1 590 64
	ldr	r3, [fp, #-928]
	ldr	r3, [r3]
	.loc 1 590 3
	add	r3, r3, #412
	add	r3, r3, #2
	ldrh	r3, [r3]	@ unaligned
	uxth	r3, r3
	strh	r3, [r2]	@ unaligned
	.loc 1 591 3
	sub	r3, fp, #916
	add	r3, r3, #416
	add	r3, r3, #3
	.loc 1 591 64
	ldr	r2, [fp, #-928]
	ldr	r2, [r2]
	.loc 1 591 3
	add	r2, r2, #416
	ldrb	r2, [r2]	@ zero_extendqisi2
	strb	r2, [r3]
	.loc 1 592 3
	sub	r3, fp, #916
	add	r3, r3, #420
	.loc 1 592 64
	ldr	r2, [fp, #-928]
	ldr	r2, [r2]
	.loc 1 592 3
	add	r2, r2, #416
	add	r2, r2, #1
	ldr	r2, [r2]	@ unaligned
	str	r2, [r3]	@ unaligned
	.loc 1 593 3
	sub	r3, fp, #916
	add	r3, r3, #424
	.loc 1 593 64
	ldr	r2, [fp, #-928]
	ldr	r2, [r2]
	.loc 1 593 3
	add	r2, r2, #420
	add	r2, r2, #1
	ldr	r2, [r2]	@ unaligned
	str	r2, [r3]	@ unaligned
	.loc 1 594 3
	sub	r3, fp, #916
	add	r3, r3, #428
	.loc 1 594 64
	ldr	r2, [fp, #-928]
	ldr	r2, [r2]
	.loc 1 594 3
	add	r2, r2, #424
	add	r2, r2, #1
	ldrh	r2, [r2]	@ unaligned
	uxth	r2, r2
	strh	r2, [r3]	@ unaligned
	.loc 1 595 3
	sub	r2, fp, #916
	add	r3, r2, #428
	add	r3, r3, #2
	mov	r2, r3
	.loc 1 595 64
	ldr	r3, [fp, #-928]
	ldr	r3, [r3]
	.loc 1 595 3
	add	r3, r3, #424
	add	r3, r3, #3
	ldr	r3, [r3]	@ unaligned
	str	r3, [r2]	@ unaligned
	.loc 1 596 3
	sub	r2, fp, #916
	add	r3, r2, #432
	add	r3, r3, #2
	mov	r2, r3
	.loc 1 596 64
	ldr	r3, [fp, #-928]
	ldr	r3, [r3]
	.loc 1 596 3
	add	r3, r3, #428
	add	r3, r3, #3
	ldr	r3, [r3]	@ unaligned
	str	r3, [r2]	@ unaligned
	.loc 1 597 3
	sub	r2, fp, #916
	add	r3, r2, #436
	add	r3, r3, #2
	mov	r2, r3
	.loc 1 597 64
	ldr	r3, [fp, #-928]
	ldr	r3, [r3]
	.loc 1 597 3
	add	r3, r3, #432
	add	r3, r3, #3
	ldrh	r3, [r3]	@ unaligned
	uxth	r3, r3
	strh	r3, [r2]	@ unaligned
	.loc 1 598 3
	sub	r3, fp, #916
	add	r3, r3, #440
	.loc 1 598 64
	ldr	r2, [fp, #-928]
	ldr	r2, [r2]
	.loc 1 598 3
	add	r2, r2, #436
	add	r2, r2, #1
	ldr	r2, [r2]	@ unaligned
	str	r2, [r3]	@ unaligned
	.loc 1 599 3
	sub	r3, fp, #916
	add	r3, r3, #444
	.loc 1 599 64
	ldr	r2, [fp, #-928]
	ldr	r2, [r2]
	.loc 1 599 3
	add	r2, r2, #440
	add	r2, r2, #1
	ldr	r2, [r2]	@ unaligned
	str	r2, [r3]	@ unaligned
	.loc 1 602 2
	sub	r3, fp, #468
	sub	r1, fp, #916
	mov	r2, #448
	mov	r0, r3
	bl	memcpy
	.loc 1 602 2
	nop
.L446:
	.loc 1 603 2
	ldr	r0, [fp, #-20]
	bl	fb_ErrorSetFuncName
	.loc 1 603 2
	ldr	r0, [fp, #-12]
	bl	fb_ErrorSetModName
	.loc 1 603 9
	ldr	r3, [fp, #-920]
	mov	r0, r3
	sub	r3, fp, #468
	mov	r2, #448
	mov	r1, r3
	bl	memcpy
	.loc 1 603 1
	ldr	r0, [fp, #-920]
	sub	sp, fp, #4
	.cfi_def_cfa 13, 8
	@ sp needed
	pop	{fp, pc}
	.cfi_endproc
.LFE26:
	.size	_ZN5XFONT9INTERFACE22CREATECOMPATIBLEHEADERERPv, .-_ZN5XFONT9INTERFACE22CREATECOMPATIBLEHEADERERPv
	.section	.rodata
	.align	2
.LC25:
	.ascii	"LOADFONT\000"
	.text
	.align	2
	.global	_ZN5XFONT9INTERFACE8LOADFONTER8FBSTRINGh
	.syntax unified
	.arm
	.fpu vfp
	.type	_ZN5XFONT9INTERFACE8LOADFONTER8FBSTRINGh, %function
_ZN5XFONT9INTERFACE8LOADFONTER8FBSTRINGh:
.LFB27:
	.loc 1 607 1
	.cfi_startproc
	@ args = 0, pretend = 0, frame = 1520
	@ frame_needed = 1, uses_anonymous_args = 0
	push	{r4, r5, fp, lr}
	.cfi_def_cfa_offset 16
	.cfi_offset 4, -16
	.cfi_offset 5, -12
	.cfi_offset 11, -8
	.cfi_offset 14, -4
	add	fp, sp, #12
	.cfi_def_cfa 11, 4
	sub	sp, sp, #1520
	sub	sp, sp, #8
	str	r0, [fp, #-1520]
	str	r1, [fp, #-1524]
	mov	r3, r2
	strb	r3, [fp, #-1525]
	mov	r3, #0
	str	r3, [fp, #-116]
	.loc 1 607 16
	movw	r0, #:lower16:.LC0
	movt	r0, #:upper16:.LC0
	bl	fb_ErrorSetModName
	str	r0, [fp, #-16]
	.loc 1 607 12
	ldr	r3, [fp, #-16]
	str	r3, [fp, #-20]
	.loc 1 607 16
	movw	r0, #:lower16:.LC25
	movt	r0, #:upper16:.LC25
	bl	fb_ErrorSetFuncName
	str	r0, [fp, #-24]
	.loc 1 607 12
	ldr	r3, [fp, #-24]
	str	r3, [fp, #-28]
.L449:
	mov	r3, #0
	str	r3, [fp, #-120]
	mov	r2, #0
	mov	r3, #0
	strd	r2, [fp, #-132]
	mov	r3, #0
	str	r3, [fp, #-136]
	.loc 1 613 2
	sub	r3, fp, #584
	mov	r0, r3
	movw	r3, #445
	mov	r2, r3
	mov	r1, #0
	bl	memset
	.loc 1 613 12
	sub	r3, fp, #616
	.loc 1 613 23
	sub	r2, fp, #584
	str	r2, [r3]
	.loc 1 613 3
	sub	r3, fp, #616
	add	r3, r3, #4
	.loc 1 613 37
	sub	r2, fp, #584
	str	r2, [r3]
	.loc 1 613 3
	sub	r3, fp, #616
	add	r3, r3, #8
	.loc 1 613 36
	movw	r2, #445
	str	r2, [r3]
	.loc 1 613 3
	sub	r3, fp, #616
	add	r3, r3, #12
	.loc 1 613 37
	mov	r2, #1
	str	r2, [r3]
	.loc 1 613 3
	sub	r3, fp, #616
	add	r3, r3, #16
	.loc 1 613 37
	mov	r2, #1
	str	r2, [r3]
	.loc 1 613 3
	sub	r3, fp, #616
	add	r3, r3, #20
	.loc 1 613 37
	movw	r2, #445
	str	r2, [r3]
	.loc 1 613 3
	sub	r3, fp, #616
	add	r3, r3, #24
	.loc 1 613 37
	mov	r2, #0
	str	r2, [r3]
	.loc 1 613 3
	sub	r3, fp, #616
	add	r3, r3, #28
	.loc 1 613 37
	mov	r2, #444
	str	r2, [r3]
	.loc 1 614 2
	sub	r3, fp, #1040
	sub	r3, r3, #12
	sub	r3, r3, #12
	mov	r0, r3
	mov	r3, #448
	mov	r2, r3
	mov	r1, #0
	bl	memset
	mov	r3, #0
	str	r3, [fp, #-1068]
	.loc 1 618 26
	ldrb	r3, [fp, #-1525]	@ zero_extendqisi2
	cmp	r3, #0
	moveq	r3, #1
	movne	r3, #0
	uxtb	r3, r3
	.loc 1 618 7
	rsb	r2, r3, #0
	.loc 1 618 52
	ldrb	r3, [fp, #-1525]	@ zero_extendqisi2
	cmp	r3, #8
	movhi	r3, #1
	movls	r3, #0
	uxtb	r3, r3
	.loc 1 618 33
	rsb	r3, r3, #0
	.loc 1 618 31
	orr	r3, r2, r3
	.loc 1 618 4
	cmp	r3, #0
	beq	.L488
	.loc 1 618 4 discriminator 2
	ldr	r2, [fp, #-1520]
	movw	r3, #4068
	movt	r3, 153
	add	r3, r2, r3
	.loc 1 618 40 discriminator 2
	mov	r2, #102
	str	r2, [r3]
	.loc 1 618 15 discriminator 2
	mvn	r3, #0
	str	r3, [fp, #-116]
	.loc 1 618 3 discriminator 2
	b	.L452
.L488:
	.loc 1 618 65
	nop
.L451:
	.loc 1 619 12
	ldrb	r3, [fp, #-1525]	@ zero_extendqisi2
	str	r3, [fp, #-32]
	.loc 1 619 16
	ldr	r0, [fp, #-32]
	movw	r3, #:lower16:.LC0
	movt	r3, #:upper16:.LC0
	movw	r2, #619
	mov	r1, #8
	bl	fb_ArraySngBoundChk
	str	r0, [fp, #-36]
	.loc 1 619 4
	ldr	r3, [fp, #-36]
	cmp	r3, #0
	beq	.L489
	ldr	r3, [fp, #-36]
	.loc 1 619 2
	b	.L455
.L489:
	.loc 1 619 19
	nop
.L454:
	.loc 1 619 59
	ldr	r2, [fp, #-32]
	mov	r3, #452
	movt	r3, 17
	mul	r3, r3, r2
	.loc 1 619 71
	add	r3, r3, #1114112
	add	r3, r3, #448
	.loc 1 619 14
	ldr	r2, [fp, #-1520]
	add	r3, r2, r3
	.loc 1 619 13
	ldrsb	r3, [r3]
	.loc 1 619 4
	cmp	r3, #0
	beq	.L490
	.loc 1 619 4 discriminator 4
	ldr	r2, [fp, #-1520]
	movw	r3, #4068
	movt	r3, 153
	add	r3, r2, r3
	.loc 1 619 40 discriminator 4
	mov	r2, #106
	str	r2, [r3]
	.loc 1 619 15 discriminator 4
	mvn	r3, #0
	str	r3, [fp, #-116]
	.loc 1 619 3 discriminator 4
	b	.L452
.L490:
	.loc 1 619 89
	nop
.L457:
	.loc 1 623 16
	ldr	r3, [fp, #-1524]
	ldr	r3, [r3]
	mov	r0, r3
	bl	fb_FileExists
	str	r0, [fp, #-40]
	.loc 1 623 4
	ldr	r3, [fp, #-40]
	cmn	r3, #1
	beq	.L491
	.loc 1 623 4 discriminator 2
	ldr	r2, [fp, #-1520]
	movw	r3, #4068
	movt	r3, 153
	add	r3, r2, r3
	.loc 1 623 40 discriminator 2
	mov	r2, #101
	str	r2, [r3]
	.loc 1 623 15 discriminator 2
	mvn	r3, #0
	str	r3, [fp, #-116]
	.loc 1 623 3 discriminator 2
	b	.L452
.L491:
	.loc 1 623 20
	nop
.L459:
	.loc 1 624 16
	ldr	r3, [fp, #-1524]
	ldr	r3, [r3]
	mov	r0, r3
	bl	fb_FileLen
	strd	r0, [fp, #-52]
	.loc 1 624 7
	ldrd	r2, [fp, #-52]
	strd	r2, [fp, #-132]
	.loc 1 625 11
	ldrd	r2, [fp, #-132]
	.loc 1 625 4
	movw	r1, #446
	cmp	r2, r1
	sbcs	r3, r3, #0
	bge	.L492
	.loc 1 625 4 discriminator 2
	ldr	r2, [fp, #-1520]
	movw	r3, #4068
	movt	r3, 153
	add	r3, r2, r3
	.loc 1 625 40 discriminator 2
	mov	r2, #103
	str	r2, [r3]
	.loc 1 625 15 discriminator 2
	mvn	r3, #0
	str	r3, [fp, #-116]
	.loc 1 625 3 discriminator 2
	b	.L452
.L492:
	.loc 1 625 21
	nop
.L461:
	.loc 1 628 16
	bl	fb_FileFree
	str	r0, [fp, #-56]
	.loc 1 628 7
	ldr	r3, [fp, #-56]
	str	r3, [fp, #-120]
.L462:
	.loc 1 629 16
	ldr	r3, [fp, #-120]
	mov	r2, #0
	str	r2, [sp, #4]
	str	r3, [sp]
	mov	r3, #0
	mov	r2, #0
	mov	r1, #0
	ldr	r0, [fp, #-1524]
	bl	fb_FileOpen
	str	r0, [fp, #-60]
	.loc 1 629 4
	ldr	r3, [fp, #-60]
	cmp	r3, #0
	beq	.L493
	b	.L486
.L455:
	mov	pc, r3	@ indirect register jump
.L486:
	.loc 1 629 16 discriminator 2
	ldr	r3, .L499
	ldr	r2, .L499+4
	movw	r1, #:lower16:.LC0
	movt	r1, #:upper16:.LC0
	movw	r0, #629
	bl	fb_ErrorThrowAt
	str	r0, [fp, #-64]
	ldr	r3, [fp, #-64]
	.loc 1 629 2 discriminator 2
	b	.L455
.L465:
	b	.L466
.L493:
	.loc 1 629 19
	nop
.L466:
	.loc 1 630 16
	ldr	r3, [fp, #-120]
	sub	r2, fp, #616
	mov	r1, #1
	mov	r0, r3
	bl	fb_FileGetArray
	str	r0, [fp, #-68]
	.loc 1 630 4
	ldr	r3, [fp, #-68]
	cmp	r3, #0
	beq	.L494
	.loc 1 630 16 discriminator 2
	ldr	r3, .L499+8
	ldr	r2, .L499+12
	movw	r1, #:lower16:.LC0
	movt	r1, #:upper16:.LC0
	movw	r0, #630
	bl	fb_ErrorThrowAt
	str	r0, [fp, #-72]
	ldr	r3, [fp, #-72]
	.loc 1 630 2 discriminator 2
	b	.L455
.L494:
	.loc 1 630 19
	nop
.L468:
	.loc 1 631 12
	sub	r3, fp, #584
	str	r3, [fp, #-112]
	.loc 1 631 41
	sub	r3, fp, #1504
	sub	r3, r3, #12
	sub	r2, fp, #112
	ldr	r1, [fp, #-1520]
	mov	r0, r3
	bl	_ZN5XFONT9INTERFACE22CREATECOMPATIBLEHEADERERPv
	.loc 1 631 14
	sub	r3, fp, #1040
	sub	r3, r3, #12
	sub	r3, r3, #12
	sub	r1, fp, #1504
	sub	r1, r1, #12
	mov	r2, #448
	mov	r0, r3
	bl	memcpy
	.loc 1 632 16
	ldrd	r2, [fp, #-132]
	sub	r1, fp, #1040
	sub	r1, r1, #12
	sub	r1, r1, #12
	ldr	r0, [fp, #-1520]
	bl	_ZN5XFONT9INTERFACE17QUERYHEADERCOMPATERNS_12XFONT_HEADEREx
	str	r0, [fp, #-76]
	.loc 1 632 4
	ldr	r3, [fp, #-76]
	cmp	r3, #0
	beq	.L495
.L469:
.LBB24:
	.loc 1 633 17
	ldr	r3, [fp, #-120]
	mov	r0, r3
	bl	fb_FileClose
	str	r0, [fp, #-100]
	.loc 1 633 5
	ldr	r3, [fp, #-100]
	cmp	r3, #0
	beq	.L496
	.loc 1 633 17 discriminator 2
	ldr	r3, .L499+16
	ldr	r2, .L499+20
	movw	r1, #:lower16:.LC0
	movt	r1, #:upper16:.LC0
	movw	r0, #633
	bl	fb_ErrorThrowAt
	str	r0, [fp, #-104]
	ldr	r3, [fp, #-104]
	.loc 1 633 3 discriminator 2
	b	.L455
.L496:
	.loc 1 633 20
	nop
.L472:
	.loc 1 634 4
	ldr	r2, [fp, #-1520]
	movw	r3, #4068
	movt	r3, 153
	add	r3, r2, r3
	.loc 1 634 40
	mov	r2, #106
	str	r2, [r3]
	.loc 1 634 15
	mvn	r3, #0
	str	r3, [fp, #-116]
	.loc 1 634 3
	b	.L452
.L470:
.L495:
.LBE24:
	.loc 1 632 19
	nop
.L473:
	.loc 1 637 18
	sub	r3, fp, #1040
	sub	r3, r3, #12
	sub	r3, r3, #12
	add	r3, r3, #440
	.loc 1 637 17
	ldr	r2, [r3]
	.loc 1 637 59
	sub	r3, fp, #1040
	sub	r3, r3, #12
	sub	r3, r3, #12
	add	r3, r3, #444
	.loc 1 637 58
	ldr	r3, [r3]
	.loc 1 637 56
	add	r3, r2, r3
	.loc 1 637 9
	mov	r2, #0
	mov	r4, r3
	mov	r5, r2
	.loc 1 637 7
	strd	r4, [fp, #-132]
	.loc 1 638 16
	ldrd	r2, [fp, #-132]
	mov	r3, r2
	mov	r0, r3
	bl	malloc
	mov	r3, r0
	str	r3, [fp, #-80]
	.loc 1 638 10
	ldr	r3, [fp, #-80]
	str	r3, [fp, #-136]
.L474:
	.loc 1 639 16
	ldr	r0, [fp, #-120]
	ldr	r1, [fp, #-136]
	ldrd	r2, [fp, #-132]
	mov	r3, r2
	mov	r2, r1
	mov	r1, #1
	bl	fb_FileGet
	str	r0, [fp, #-84]
	.loc 1 639 4
	ldr	r3, [fp, #-84]
	cmp	r3, #0
	beq	.L497
	.loc 1 639 16 discriminator 2
	ldr	r3, .L499+24
	ldr	r2, .L499+28
	movw	r1, #:lower16:.LC0
	movt	r1, #:upper16:.LC0
	movw	r0, #639
	bl	fb_ErrorThrowAt
	str	r0, [fp, #-88]
	ldr	r3, [fp, #-88]
	.loc 1 639 2 discriminator 2
	b	.L455
.L476:
	b	.L477
.L497:
	.loc 1 639 19
	nop
.L477:
	.loc 1 640 16
	ldr	r3, [fp, #-120]
	mov	r0, r3
	bl	fb_FileClose
	str	r0, [fp, #-92]
	.loc 1 640 4
	ldr	r3, [fp, #-92]
	cmp	r3, #0
	beq	.L498
	.loc 1 640 16 discriminator 2
	ldr	r3, .L499+32
	ldr	r2, .L499+36
	movw	r1, #:lower16:.LC0
	movt	r1, #:upper16:.LC0
	mov	r0, #640
	bl	fb_ErrorThrowAt
	str	r0, [fp, #-96]
	ldr	r3, [fp, #-96]
	.loc 1 640 2 discriminator 2
	b	.L455
.L498:
	.loc 1 640 19
	nop
.L479:
	.loc 1 641 16
	ldrd	r2, [fp, #-132]
	ldrb	r3, [fp, #-1525]	@ zero_extendqisi2
	sub	r1, fp, #136
	ldr	r0, [fp, #-1520]
	bl	_ZN5XFONT9INTERFACE16BACKEND_LOADFONTERPvmh
	str	r0, [fp, #-108]
	.loc 1 641 8
	ldr	r3, [fp, #-108]
	str	r3, [fp, #-1068]
	.loc 1 642 2
	ldr	r3, [fp, #-136]
	mov	r0, r3
	bl	free
	.loc 1 643 14
	ldr	r3, [fp, #-1068]
	str	r3, [fp, #-116]
	.loc 1 643 2
	nop
.L452:
	.loc 1 644 2
	ldr	r0, [fp, #-28]
	bl	fb_ErrorSetFuncName
	.loc 1 644 2
	ldr	r0, [fp, #-20]
	bl	fb_ErrorSetModName
	.loc 1 644 9
	ldr	r3, [fp, #-116]
	.loc 1 644 1
	mov	r0, r3
	sub	sp, fp, #12
	.cfi_def_cfa 13, 16
	@ sp needed
	pop	{r4, r5, fp, pc}
.L500:
	.align	2
.L499:
	.word	.L465
	.word	.L462
	.word	.L468
	.word	.L466
	.word	.L472
	.word	.L469
	.word	.L476
	.word	.L474
	.word	.L479
	.word	.L477
	.cfi_endproc
.LFE27:
	.size	_ZN5XFONT9INTERFACE8LOADFONTER8FBSTRINGh, .-_ZN5XFONT9INTERFACE8LOADFONTER8FBSTRINGh
	.align	2
	.global	_ZN5XFONT9INTERFACE8LOADFONTERPhh
	.syntax unified
	.arm
	.fpu vfp
	.type	_ZN5XFONT9INTERFACE8LOADFONTERPhh, %function
_ZN5XFONT9INTERFACE8LOADFONTERPhh:
.LFB28:
	.loc 1 647 1
	.cfi_startproc
	@ args = 0, pretend = 0, frame = 952
	@ frame_needed = 1, uses_anonymous_args = 0
	push	{r4, r5, fp, lr}
	.cfi_def_cfa_offset 16
	.cfi_offset 4, -16
	.cfi_offset 5, -12
	.cfi_offset 11, -8
	.cfi_offset 14, -4
	add	fp, sp, #12
	.cfi_def_cfa 11, 4
	sub	sp, sp, #952
	str	r0, [fp, #-952]
	str	r1, [fp, #-956]
	mov	r3, r2
	strb	r3, [fp, #-957]
	mov	r3, #0
	str	r3, [fp, #-40]
	.loc 1 647 16
	movw	r0, #:lower16:.LC0
	movt	r0, #:upper16:.LC0
	bl	fb_ErrorSetModName
	str	r0, [fp, #-16]
	.loc 1 647 12
	ldr	r3, [fp, #-16]
	str	r3, [fp, #-20]
	.loc 1 647 16
	movw	r0, #:lower16:.LC25
	movt	r0, #:upper16:.LC25
	bl	fb_ErrorSetFuncName
	str	r0, [fp, #-24]
	.loc 1 647 12
	ldr	r3, [fp, #-24]
	str	r3, [fp, #-28]
.L502:
	.loc 1 648 2
	sub	r3, fp, #488
	mov	r0, r3
	mov	r3, #448
	mov	r2, r3
	mov	r1, #0
	bl	memset
	sub	r3, fp, #492
	mov	r1, r3
	mov	r2, #0
	mov	r3, #0
	strd	r2, [r1, #-8]
	.loc 1 650 26
	ldrb	r3, [fp, #-957]	@ zero_extendqisi2
	cmp	r3, #0
	moveq	r3, #1
	movne	r3, #0
	uxtb	r3, r3
	.loc 1 650 7
	rsb	r2, r3, #0
	.loc 1 650 52
	ldrb	r3, [fp, #-957]	@ zero_extendqisi2
	cmp	r3, #8
	movhi	r3, #1
	movls	r3, #0
	uxtb	r3, r3
	.loc 1 650 33
	rsb	r3, r3, #0
	.loc 1 650 31
	orr	r3, r2, r3
	.loc 1 650 4
	cmp	r3, #0
	beq	.L512
	.loc 1 650 4 discriminator 2
	ldr	r2, [fp, #-952]
	movw	r3, #4068
	movt	r3, 153
	add	r3, r2, r3
	.loc 1 650 40 discriminator 2
	mov	r2, #102
	str	r2, [r3]
	.loc 1 650 15 discriminator 2
	mvn	r3, #0
	str	r3, [fp, #-40]
	.loc 1 650 3 discriminator 2
	b	.L505
.L512:
	.loc 1 650 65
	nop
.L504:
	.loc 1 651 41
	sub	r3, fp, #948
	ldr	r2, [fp, #-956]
	ldr	r1, [fp, #-952]
	mov	r0, r3
	bl	_ZN5XFONT9INTERFACE22CREATECOMPATIBLEHEADERERPv
	.loc 1 651 14
	sub	r3, fp, #488
	sub	r1, fp, #948
	mov	r2, #448
	mov	r0, r3
	bl	memcpy
	.loc 1 652 18
	sub	r3, fp, #488
	add	r3, r3, #440
	.loc 1 652 17
	ldr	r2, [r3]
	.loc 1 652 59
	sub	r3, fp, #488
	add	r3, r3, #444
	.loc 1 652 58
	ldr	r3, [r3]
	.loc 1 652 56
	add	r3, r2, r3
	.loc 1 652 9
	mov	r2, #0
	mov	r4, r3
	mov	r5, r2
	.loc 1 652 7
	sub	r3, fp, #492
	strd	r4, [r3, #-8]
	.loc 1 654 16
	sub	r3, fp, #492
	ldrd	r2, [r3, #-8]
	sub	r1, fp, #488
	ldr	r0, [fp, #-952]
	bl	_ZN5XFONT9INTERFACE17QUERYHEADERCOMPATERNS_12XFONT_HEADEREx
	str	r0, [fp, #-32]
	.loc 1 654 4
	ldr	r3, [fp, #-32]
	cmp	r3, #0
	beq	.L513
	.loc 1 655 4
	ldr	r2, [fp, #-952]
	movw	r3, #4068
	movt	r3, 153
	add	r3, r2, r3
	.loc 1 655 40
	mov	r2, #106
	str	r2, [r3]
	.loc 1 655 15
	mvn	r3, #0
	str	r3, [fp, #-40]
	.loc 1 655 3
	b	.L505
.L507:
.L513:
	.loc 1 654 19
	nop
.L508:
	.loc 1 658 16
	sub	r3, fp, #492
	ldrd	r2, [r3, #-8]
	ldrb	r3, [fp, #-957]	@ zero_extendqisi2
	ldr	r1, [fp, #-956]
	ldr	r0, [fp, #-952]
	bl	_ZN5XFONT9INTERFACE16BACKEND_LOADFONTERPvmh
	str	r0, [fp, #-36]
	.loc 1 658 14
	ldr	r3, [fp, #-36]
	str	r3, [fp, #-40]
	.loc 1 658 2
	nop
.L505:
	.loc 1 659 2
	ldr	r0, [fp, #-28]
	bl	fb_ErrorSetFuncName
	.loc 1 659 2
	ldr	r0, [fp, #-20]
	bl	fb_ErrorSetModName
	.loc 1 659 9
	ldr	r3, [fp, #-40]
	.loc 1 659 1
	mov	r0, r3
	sub	sp, fp, #12
	.cfi_def_cfa 13, 16
	@ sp needed
	pop	{r4, r5, fp, pc}
	.cfi_endproc
.LFE28:
	.size	_ZN5XFONT9INTERFACE8LOADFONTERPhh, .-_ZN5XFONT9INTERFACE8LOADFONTERPhh
	.section	.rodata
	.align	2
.LC36:
	.ascii	"STRINGWIDTH\000"
	.text
	.align	2
	.global	_ZN5XFONT9INTERFACE11STRINGWIDTHERPj
	.syntax unified
	.arm
	.fpu vfp
	.type	_ZN5XFONT9INTERFACE11STRINGWIDTHERPj, %function
_ZN5XFONT9INTERFACE11STRINGWIDTHERPj:
.LFB29:
	.loc 1 662 1
	.cfi_startproc
	@ args = 0, pretend = 0, frame = 104
	@ frame_needed = 1, uses_anonymous_args = 0
	push	{fp, lr}
	.cfi_def_cfa_offset 8
	.cfi_offset 11, -8
	.cfi_offset 14, -4
	add	fp, sp, #4
	.cfi_def_cfa 11, 4
	sub	sp, sp, #104
	str	r0, [fp, #-104]
	str	r1, [fp, #-108]
	mov	r3, #0
	strh	r3, [fp, #-88]	@ movhi
	.loc 1 662 16
	movw	r0, #:lower16:.LC0
	movt	r0, #:upper16:.LC0
	bl	fb_ErrorSetModName
	str	r0, [fp, #-8]
	.loc 1 662 12
	ldr	r3, [fp, #-8]
	str	r3, [fp, #-12]
	.loc 1 662 16
	movw	r0, #:lower16:.LC36
	movt	r0, #:upper16:.LC36
	bl	fb_ErrorSetFuncName
	str	r0, [fp, #-16]
	.loc 1 662 12
	ldr	r3, [fp, #-16]
	str	r3, [fp, #-20]
.L515:
	mov	r3, #0
	strh	r3, [fp, #-90]	@ movhi
	mov	r3, #0
	str	r3, [fp, #-96]
	mov	r3, #0
	strb	r3, [fp, #-97]
	.loc 1 667 71
	ldr	r2, [fp, #-104]
	movw	r3, #6540
	movt	r3, 154
	add	r3, r2, r3
	.loc 1 667 70
	ldrh	r3, [r3]
	.loc 1 667 4
	cmp	r3, #8
	bls	.L568
	.loc 1 668 4
	ldr	r2, [fp, #-104]
	movw	r3, #4068
	movt	r3, 153
	add	r3, r2, r3
	.loc 1 668 40
	mov	r2, #102
	str	r2, [r3]
	.loc 1 669 15
	mov	r3, #0
	strh	r3, [fp, #-88]	@ movhi
	.loc 1 669 3
	b	.L518
.L568:
	.loc 1 667 121
	nop
.L517:
.LBB25:
	.loc 1 671 23
	ldr	r2, [fp, #-104]
	movw	r3, #6540
	movt	r3, 154
	add	r3, r2, r3
	.loc 1 671 22
	ldrh	r3, [r3]
	.loc 1 671 13
	str	r3, [fp, #-24]
	.loc 1 671 17
	ldr	r0, [fp, #-24]
	movw	r3, #:lower16:.LC0
	movt	r3, #:upper16:.LC0
	movw	r2, #671
	mov	r1, #8
	bl	fb_ArraySngBoundChk
	str	r0, [fp, #-28]
	.loc 1 671 5
	ldr	r3, [fp, #-28]
	cmp	r3, #0
	beq	.L569
	.loc 1 671 3 discriminator 2
	ldr	r3, [fp, #-28]
	mov	pc, r3	@ indirect register jump
.L569:
	.loc 1 671 20
	nop
.L520:
	.loc 1 671 61
	ldr	r2, [fp, #-24]
	mov	r3, #452
	movt	r3, 17
	mul	r3, r3, r2
	.loc 1 671 73
	add	r3, r3, #1114112
	add	r3, r3, #448
	.loc 1 671 16
	ldr	r2, [fp, #-104]
	add	r3, r2, r3
	.loc 1 671 15
	ldrsb	r3, [r3]
	.loc 1 671 5
	cmn	r3, #1
	beq	.L570
	.loc 1 672 5
	ldr	r2, [fp, #-104]
	movw	r3, #4068
	movt	r3, 153
	add	r3, r2, r3
	.loc 1 672 41
	mov	r2, #106
	str	r2, [r3]
	.loc 1 673 16
	mov	r3, #0
	strh	r3, [fp, #-88]	@ movhi
	.loc 1 673 4
	b	.L518
.L570:
	.loc 1 671 91
	nop
.L522:
.LBB26:
	.loc 1 676 24
	ldr	r2, [fp, #-104]
	movw	r3, #6540
	movt	r3, 154
	add	r3, r2, r3
	.loc 1 676 23
	ldrh	r3, [r3]
	.loc 1 676 14
	str	r3, [fp, #-32]
	.loc 1 676 18
	ldr	r0, [fp, #-32]
	movw	r3, #:lower16:.LC0
	movt	r3, #:upper16:.LC0
	mov	r2, #676
	mov	r1, #8
	bl	fb_ArraySngBoundChk
	str	r0, [fp, #-36]
	.loc 1 676 6
	ldr	r3, [fp, #-36]
	cmp	r3, #0
	beq	.L571
	.loc 1 676 4 discriminator 2
	ldr	r3, [fp, #-36]
	mov	pc, r3	@ indirect register jump
.L571:
	.loc 1 676 21
	nop
.L524:
	.loc 1 676 63
	ldr	r2, [fp, #-32]
	mov	r3, #452
	movt	r3, 17
	mul	r3, r3, r2
	.loc 1 676 75
	add	r3, r3, #412
	add	r3, r3, #3
	.loc 1 676 16
	ldr	r2, [fp, #-104]
	add	r3, r2, r3
	.loc 1 676 15
	ldrh	r3, [r3]
	.loc 1 676 6
	cmp	r3, #0
	bne	.L572
	.loc 1 676 17 discriminator 5
	mov	r3, #0
	strh	r3, [fp, #-88]	@ movhi
	.loc 1 676 5 discriminator 5
	b	.L518
.L526:
.L527:
.L572:
	.loc 1 676 89
	nop
.L528:
.L529:
.LBE26:
.LBE25:
	.loc 1 681 24
	ldrsb	r3, [fp, #-97]
	.loc 1 681 4
	cmn	r3, #1
	beq	.L573
.LBB27:
	.loc 1 682 13
	ldr	r3, [fp, #-108]
	ldr	r3, [r3]
	str	r3, [fp, #-40]
	.loc 1 682 17
	movw	r2, #:lower16:.LC0
	movt	r2, #:upper16:.LC0
	movw	r1, #682
	ldr	r0, [fp, #-40]
	bl	fb_NullPtrChk
	str	r0, [fp, #-44]
	.loc 1 682 5
	ldr	r3, [fp, #-44]
	cmp	r3, #0
	beq	.L574
	.loc 1 682 3 discriminator 2
	ldr	r3, [fp, #-44]
	mov	pc, r3	@ indirect register jump
.L574:
	.loc 1 682 20
	nop
.L533:
	.loc 1 682 39
	ldrh	r3, [fp, #-90]
	.loc 1 682 50
	lsl	r3, r3, #2
	mov	r2, r3
	.loc 1 682 8
	ldr	r3, [fp, #-40]
	add	r3, r3, r2
	.loc 1 682 7
	ldr	r3, [r3]
	.loc 1 682 5
	cmp	r3, #0
	beq	.L575
.LBB28:
	.loc 1 683 14
	ldr	r3, [fp, #-108]
	ldr	r3, [r3]
	str	r3, [fp, #-48]
	.loc 1 683 18
	movw	r2, #:lower16:.LC0
	movt	r2, #:upper16:.LC0
	movw	r1, #683
	ldr	r0, [fp, #-48]
	bl	fb_NullPtrChk
	str	r0, [fp, #-52]
	.loc 1 683 6
	ldr	r3, [fp, #-52]
	cmp	r3, #0
	beq	.L576
	.loc 1 683 4 discriminator 2
	ldr	r3, [fp, #-52]
	mov	pc, r3	@ indirect register jump
.L576:
	.loc 1 683 21
	nop
.L537:
	.loc 1 683 40
	ldrh	r3, [fp, #-90]
	.loc 1 683 51
	lsl	r3, r3, #2
	mov	r2, r3
	.loc 1 683 9
	ldr	r3, [fp, #-48]
	add	r3, r3, r2
	.loc 1 683 8
	ldr	r3, [r3]
	.loc 1 683 6
	cmp	r3, #65536
	bcs	.L577
.LBB29:
	.loc 1 684 15
	ldr	r3, [fp, #-108]
	ldr	r3, [r3]
	str	r3, [fp, #-56]
	.loc 1 684 19
	movw	r2, #:lower16:.LC0
	movt	r2, #:upper16:.LC0
	mov	r1, #684
	ldr	r0, [fp, #-56]
	bl	fb_NullPtrChk
	str	r0, [fp, #-60]
	.loc 1 684 7
	ldr	r3, [fp, #-60]
	cmp	r3, #0
	beq	.L578
	.loc 1 684 5 discriminator 2
	ldr	r3, [fp, #-60]
	mov	pc, r3	@ indirect register jump
.L578:
	.loc 1 684 22
	nop
.L541:
	.loc 1 684 17
	ldrh	r3, [fp, #-90]
	.loc 1 684 15
	str	r3, [fp, #-64]
	.loc 1 684 19
	ldr	r0, [fp, #-64]
	movw	r3, #:lower16:.LC0
	movt	r3, #:upper16:.LC0
	mov	r2, #684
	movw	r1, #32767
	bl	fb_ArraySngBoundChk
	str	r0, [fp, #-68]
	.loc 1 684 7
	ldr	r3, [fp, #-68]
	cmp	r3, #0
	beq	.L579
	.loc 1 684 5 discriminator 5
	ldr	r3, [fp, #-68]
	mov	pc, r3	@ indirect register jump
.L579:
	.loc 1 684 22
	nop
.L543:
	.loc 1 684 121
	ldrh	r3, [fp, #-90]
	.loc 1 684 132
	lsl	r3, r3, #2
	mov	r2, r3
	.loc 1 684 90
	ldr	r3, [fp, #-56]
	add	r3, r3, r2
	.loc 1 684 89
	ldr	r1, [r3]
	.loc 1 684 53
	ldr	r3, [fp, #-64]
	lsl	r3, r3, #1
	mov	r2, r3
	.loc 1 684 67
	movw	r3, #6520
	movt	r3, 153
	add	r3, r2, r3
	.loc 1 684 6
	ldr	r2, [fp, #-104]
	add	r3, r2, r3
	.loc 1 684 81
	uxth	r2, r1
	.loc 1 684 79
	strh	r2, [r3]	@ movhi
.LBE29:
	.loc 1 685 4
	b	.L544
.L577:
	.loc 1 683 76
	nop
.L539:
.LBB30:
	.loc 1 686 17
	ldrh	r3, [fp, #-90]
	.loc 1 686 15
	str	r3, [fp, #-72]
	.loc 1 686 19
	ldr	r0, [fp, #-72]
	movw	r3, #:lower16:.LC0
	movt	r3, #:upper16:.LC0
	movw	r2, #686
	movw	r1, #32767
	bl	fb_ArraySngBoundChk
	str	r0, [fp, #-76]
	.loc 1 686 7
	ldr	r3, [fp, #-76]
	cmp	r3, #0
	beq	.L580
	.loc 1 686 5 discriminator 2
	ldr	r3, [fp, #-76]
	mov	pc, r3	@ indirect register jump
.L580:
	.loc 1 686 22
	nop
.L546:
	.loc 1 686 53
	ldr	r3, [fp, #-72]
	lsl	r3, r3, #1
	mov	r2, r3
	.loc 1 686 67
	movw	r3, #6520
	movt	r3, 153
	add	r3, r2, r3
	.loc 1 686 6
	ldr	r2, [fp, #-104]
	add	r3, r2, r3
	.loc 1 686 79
	mov	r2, #0
	strh	r2, [r3]	@ movhi
.L544:
.LBE30:
	.loc 1 688 30
	ldrh	r3, [fp, #-90]
	sxth	r3, r3
	add	r3, r3, #1
	sxth	r3, r3
	.loc 1 688 10
	uxth	r3, r3
	.loc 1 688 8
	strh	r3, [fp, #-90]	@ movhi
.LBE28:
	.loc 1 689 3
	b	.L547
.L575:
	.loc 1 682 72
	nop
.L535:
.LBB31:
	.loc 1 690 16
	ldrh	r3, [fp, #-90]
	.loc 1 690 14
	str	r3, [fp, #-80]
	.loc 1 690 18
	ldr	r0, [fp, #-80]
	movw	r3, #:lower16:.LC0
	movt	r3, #:upper16:.LC0
	movw	r2, #690
	movw	r1, #32767
	bl	fb_ArraySngBoundChk
	str	r0, [fp, #-84]
	.loc 1 690 6
	ldr	r3, [fp, #-84]
	cmp	r3, #0
	beq	.L581
	.loc 1 690 4 discriminator 2
	ldr	r3, [fp, #-84]
	mov	pc, r3	@ indirect register jump
.L581:
	.loc 1 690 21
	nop
.L549:
	.loc 1 690 52
	ldr	r3, [fp, #-80]
	lsl	r3, r3, #1
	mov	r2, r3
	.loc 1 690 66
	movw	r3, #6520
	movt	r3, 153
	add	r3, r2, r3
	.loc 1 690 5
	ldr	r2, [fp, #-104]
	add	r3, r2, r3
	.loc 1 690 78
	mov	r2, #0
	strh	r2, [r3]	@ movhi
	.loc 1 691 5
	ldr	r2, [fp, #-104]
	movw	r3, #6520
	movt	r3, 154
	add	r3, r2, r3
	.loc 1 691 42
	ldrh	r2, [fp, #-90]
	strh	r2, [r3]	@ movhi
	.loc 1 692 14
	mvn	r3, #0
	strb	r3, [fp, #-97]
.L547:
.LBE31:
.LBE27:
	.loc 1 694 2
	b	.L529
.L573:
	.loc 1 681 31
	nop
.L531:
	.loc 1 696 14
	ldr	r2, [fp, #-104]
	movw	r3, #6520
	movt	r3, 154
	add	r3, r2, r3
	.loc 1 696 13
	ldrh	r3, [r3]
	.loc 1 696 4
	cmp	r3, #0
	bne	.L582
	.loc 1 696 15 discriminator 2
	mov	r3, #0
	strh	r3, [fp, #-88]	@ movhi
	.loc 1 696 3 discriminator 2
	b	.L518
.L582:
	.loc 1 696 58
	nop
.L551:
	.loc 1 697 17
	ldr	r0, [fp, #-104]
	bl	_ZN5XFONT9INTERFACE18BACKENDSTRINGWIDTHEv
	mov	r3, r0
	strh	r3, [fp, #-86]	@ movhi
	.loc 1 697 14
	ldrh	r3, [fp, #-86]	@ movhi
	strh	r3, [fp, #-88]	@ movhi
	.loc 1 697 2
	nop
.L518:
	.loc 1 700 2
	ldr	r0, [fp, #-20]
	bl	fb_ErrorSetFuncName
	.loc 1 700 2
	ldr	r0, [fp, #-12]
	bl	fb_ErrorSetModName
	.loc 1 700 9
	ldrh	r3, [fp, #-88]
	.loc 1 700 1
	mov	r0, r3
	sub	sp, fp, #4
	.cfi_def_cfa 13, 8
	@ sp needed
	pop	{fp, pc}
	.cfi_endproc
.LFE29:
	.size	_ZN5XFONT9INTERFACE11STRINGWIDTHERPj, .-_ZN5XFONT9INTERFACE11STRINGWIDTHERPj
	.section	.rodata
	.align	2
.LC37:
	.ascii	"DRAWSTRING\000"
	.text
	.align	2
	.global	_ZN5XFONT9INTERFACE10DRAWSTRINGEPvRPjssffh
	.syntax unified
	.arm
	.fpu vfp
	.type	_ZN5XFONT9INTERFACE10DRAWSTRINGEPvRPjssffh, %function
_ZN5XFONT9INTERFACE10DRAWSTRINGEPvRPjssffh:
.LFB30:
	.loc 1 706 1
	.cfi_startproc
	@ args = 8, pretend = 0, frame = 120
	@ frame_needed = 1, uses_anonymous_args = 0
	push	{fp, lr}
	.cfi_def_cfa_offset 8
	.cfi_offset 11, -8
	.cfi_offset 14, -4
	add	fp, sp, #4
	.cfi_def_cfa 11, 4
	sub	sp, sp, #128
	str	r0, [fp, #-104]
	str	r1, [fp, #-108]
	str	r2, [fp, #-112]
	vstr.32	s0, [fp, #-120]
	vstr.32	s1, [fp, #-124]
	strh	r3, [fp, #-114]	@ movhi
.L584:
	.loc 1 706 16
	movw	r0, #:lower16:.LC0
	movt	r0, #:upper16:.LC0
	bl	fb_ErrorSetModName
	str	r0, [fp, #-8]
	.loc 1 706 12
	ldr	r3, [fp, #-8]
	str	r3, [fp, #-12]
	.loc 1 706 16
	movw	r0, #:lower16:.LC37
	movt	r0, #:upper16:.LC37
	bl	fb_ErrorSetFuncName
	str	r0, [fp, #-16]
	.loc 1 706 12
	ldr	r3, [fp, #-16]
	str	r3, [fp, #-20]
	mov	r3, #0
	strh	r3, [fp, #-88]	@ movhi
	mov	r3, #0
	str	r3, [fp, #-92]
	mov	r3, #0
	strb	r3, [fp, #-93]
	.loc 1 711 71
	ldr	r2, [fp, #-104]
	movw	r3, #6540
	movt	r3, 154
	add	r3, r2, r3
	.loc 1 711 70
	ldrh	r3, [r3]
	.loc 1 711 4
	cmp	r3, #8
	bls	.L636
	.loc 1 712 4
	ldr	r2, [fp, #-104]
	movw	r3, #4068
	movt	r3, 153
	add	r3, r2, r3
	.loc 1 712 40
	mov	r2, #102
	str	r2, [r3]
	.loc 1 713 3
	b	.L587
.L636:
	.loc 1 711 121
	nop
.L586:
.LBB32:
	.loc 1 715 23
	ldr	r2, [fp, #-104]
	movw	r3, #6540
	movt	r3, 154
	add	r3, r2, r3
	.loc 1 715 22
	ldrh	r3, [r3]
	.loc 1 715 13
	str	r3, [fp, #-24]
	.loc 1 715 17
	ldr	r0, [fp, #-24]
	movw	r3, #:lower16:.LC0
	movt	r3, #:upper16:.LC0
	movw	r2, #715
	mov	r1, #8
	bl	fb_ArraySngBoundChk
	str	r0, [fp, #-28]
	.loc 1 715 5
	ldr	r3, [fp, #-28]
	cmp	r3, #0
	beq	.L637
	.loc 1 715 3 discriminator 2
	ldr	r3, [fp, #-28]
	mov	pc, r3	@ indirect register jump
.L637:
	.loc 1 715 20
	nop
.L589:
	.loc 1 715 61
	ldr	r2, [fp, #-24]
	mov	r3, #452
	movt	r3, 17
	mul	r3, r3, r2
	.loc 1 715 73
	add	r3, r3, #1114112
	add	r3, r3, #448
	.loc 1 715 16
	ldr	r2, [fp, #-104]
	add	r3, r2, r3
	.loc 1 715 15
	ldrsb	r3, [r3]
	.loc 1 715 5
	cmn	r3, #1
	beq	.L638
	.loc 1 716 5
	ldr	r2, [fp, #-104]
	movw	r3, #4068
	movt	r3, 153
	add	r3, r2, r3
	.loc 1 716 41
	mov	r2, #106
	str	r2, [r3]
	.loc 1 717 4
	b	.L587
.L638:
	.loc 1 715 91
	nop
.L591:
.LBB33:
	.loc 1 720 24
	ldr	r2, [fp, #-104]
	movw	r3, #6540
	movt	r3, 154
	add	r3, r2, r3
	.loc 1 720 23
	ldrh	r3, [r3]
	.loc 1 720 14
	str	r3, [fp, #-32]
	.loc 1 720 18
	ldr	r0, [fp, #-32]
	movw	r3, #:lower16:.LC0
	movt	r3, #:upper16:.LC0
	mov	r2, #720
	mov	r1, #8
	bl	fb_ArraySngBoundChk
	str	r0, [fp, #-36]
	.loc 1 720 6
	ldr	r3, [fp, #-36]
	cmp	r3, #0
	beq	.L639
	.loc 1 720 4 discriminator 2
	ldr	r3, [fp, #-36]
	mov	pc, r3	@ indirect register jump
.L639:
	.loc 1 720 21
	nop
.L593:
	.loc 1 720 63
	ldr	r2, [fp, #-32]
	mov	r3, #452
	movt	r3, 17
	mul	r3, r3, r2
	.loc 1 720 75
	add	r3, r3, #412
	add	r3, r3, #3
	.loc 1 720 16
	ldr	r2, [fp, #-104]
	add	r3, r2, r3
	.loc 1 720 15
	ldrh	r3, [r3]
	.loc 1 720 6
	cmp	r3, #0
	beq	.L640
	.loc 1 720 89 discriminator 4
	nop
.L595:
.L596:
.L597:
.L598:
.LBE33:
.LBE32:
	.loc 1 725 24
	ldrsb	r3, [fp, #-93]
	.loc 1 725 4
	cmn	r3, #1
	beq	.L641
.LBB35:
	.loc 1 726 13
	ldr	r3, [fp, #-112]
	ldr	r3, [r3]
	str	r3, [fp, #-40]
	.loc 1 726 17
	movw	r2, #:lower16:.LC0
	movt	r2, #:upper16:.LC0
	movw	r1, #726
	ldr	r0, [fp, #-40]
	bl	fb_NullPtrChk
	str	r0, [fp, #-44]
	.loc 1 726 5
	ldr	r3, [fp, #-44]
	cmp	r3, #0
	beq	.L642
	.loc 1 726 3 discriminator 2
	ldr	r3, [fp, #-44]
	mov	pc, r3	@ indirect register jump
.L642:
	.loc 1 726 20
	nop
.L602:
	.loc 1 726 39
	ldrh	r3, [fp, #-88]
	.loc 1 726 50
	lsl	r3, r3, #2
	mov	r2, r3
	.loc 1 726 8
	ldr	r3, [fp, #-40]
	add	r3, r3, r2
	.loc 1 726 7
	ldr	r3, [r3]
	.loc 1 726 5
	cmp	r3, #0
	beq	.L643
.LBB36:
	.loc 1 727 14
	ldr	r3, [fp, #-112]
	ldr	r3, [r3]
	str	r3, [fp, #-48]
	.loc 1 727 18
	movw	r2, #:lower16:.LC0
	movt	r2, #:upper16:.LC0
	movw	r1, #727
	ldr	r0, [fp, #-48]
	bl	fb_NullPtrChk
	str	r0, [fp, #-52]
	.loc 1 727 6
	ldr	r3, [fp, #-52]
	cmp	r3, #0
	beq	.L644
	.loc 1 727 4 discriminator 2
	ldr	r3, [fp, #-52]
	mov	pc, r3	@ indirect register jump
.L644:
	.loc 1 727 21
	nop
.L606:
	.loc 1 727 40
	ldrh	r3, [fp, #-88]
	.loc 1 727 51
	lsl	r3, r3, #2
	mov	r2, r3
	.loc 1 727 9
	ldr	r3, [fp, #-48]
	add	r3, r3, r2
	.loc 1 727 8
	ldr	r3, [r3]
	.loc 1 727 6
	cmp	r3, #65536
	bcs	.L645
.LBB37:
	.loc 1 728 15
	ldr	r3, [fp, #-112]
	ldr	r3, [r3]
	str	r3, [fp, #-56]
	.loc 1 728 19
	movw	r2, #:lower16:.LC0
	movt	r2, #:upper16:.LC0
	mov	r1, #728
	ldr	r0, [fp, #-56]
	bl	fb_NullPtrChk
	str	r0, [fp, #-60]
	.loc 1 728 7
	ldr	r3, [fp, #-60]
	cmp	r3, #0
	beq	.L646
	.loc 1 728 5 discriminator 2
	ldr	r3, [fp, #-60]
	mov	pc, r3	@ indirect register jump
.L646:
	.loc 1 728 22
	nop
.L610:
	.loc 1 728 17
	ldrh	r3, [fp, #-88]
	.loc 1 728 15
	str	r3, [fp, #-64]
	.loc 1 728 19
	ldr	r0, [fp, #-64]
	movw	r3, #:lower16:.LC0
	movt	r3, #:upper16:.LC0
	mov	r2, #728
	movw	r1, #32767
	bl	fb_ArraySngBoundChk
	str	r0, [fp, #-68]
	.loc 1 728 7
	ldr	r3, [fp, #-68]
	cmp	r3, #0
	beq	.L647
	.loc 1 728 5 discriminator 5
	ldr	r3, [fp, #-68]
	mov	pc, r3	@ indirect register jump
.L647:
	.loc 1 728 22
	nop
.L612:
	.loc 1 728 121
	ldrh	r3, [fp, #-88]
	.loc 1 728 132
	lsl	r3, r3, #2
	mov	r2, r3
	.loc 1 728 90
	ldr	r3, [fp, #-56]
	add	r3, r3, r2
	.loc 1 728 89
	ldr	r1, [r3]
	.loc 1 728 53
	ldr	r3, [fp, #-64]
	lsl	r3, r3, #1
	mov	r2, r3
	.loc 1 728 67
	movw	r3, #6520
	movt	r3, 153
	add	r3, r2, r3
	.loc 1 728 6
	ldr	r2, [fp, #-104]
	add	r3, r2, r3
	.loc 1 728 81
	uxth	r2, r1
	.loc 1 728 79
	strh	r2, [r3]	@ movhi
.LBE37:
	.loc 1 729 4
	b	.L613
.L645:
	.loc 1 727 76
	nop
.L608:
.LBB38:
	.loc 1 730 17
	ldrh	r3, [fp, #-88]
	.loc 1 730 15
	str	r3, [fp, #-72]
	.loc 1 730 19
	ldr	r0, [fp, #-72]
	movw	r3, #:lower16:.LC0
	movt	r3, #:upper16:.LC0
	movw	r2, #730
	movw	r1, #32767
	bl	fb_ArraySngBoundChk
	str	r0, [fp, #-76]
	.loc 1 730 7
	ldr	r3, [fp, #-76]
	cmp	r3, #0
	beq	.L648
	.loc 1 730 5 discriminator 2
	ldr	r3, [fp, #-76]
	mov	pc, r3	@ indirect register jump
.L648:
	.loc 1 730 22
	nop
.L615:
	.loc 1 730 53
	ldr	r3, [fp, #-72]
	lsl	r3, r3, #1
	mov	r2, r3
	.loc 1 730 67
	movw	r3, #6520
	movt	r3, 153
	add	r3, r2, r3
	.loc 1 730 6
	ldr	r2, [fp, #-104]
	add	r3, r2, r3
	.loc 1 730 79
	mov	r2, #0
	strh	r2, [r3]	@ movhi
.L613:
.LBE38:
	.loc 1 732 30
	ldrh	r3, [fp, #-88]
	sxth	r3, r3
	add	r3, r3, #1
	sxth	r3, r3
	.loc 1 732 10
	uxth	r3, r3
	.loc 1 732 8
	strh	r3, [fp, #-88]	@ movhi
.LBE36:
	.loc 1 733 3
	b	.L616
.L643:
	.loc 1 726 72
	nop
.L604:
.LBB39:
	.loc 1 734 16
	ldrh	r3, [fp, #-88]
	.loc 1 734 14
	str	r3, [fp, #-80]
	.loc 1 734 18
	ldr	r0, [fp, #-80]
	movw	r3, #:lower16:.LC0
	movt	r3, #:upper16:.LC0
	movw	r2, #734
	movw	r1, #32767
	bl	fb_ArraySngBoundChk
	str	r0, [fp, #-84]
	.loc 1 734 6
	ldr	r3, [fp, #-84]
	cmp	r3, #0
	beq	.L649
	.loc 1 734 4 discriminator 2
	ldr	r3, [fp, #-84]
	mov	pc, r3	@ indirect register jump
.L649:
	.loc 1 734 21
	nop
.L618:
	.loc 1 734 52
	ldr	r3, [fp, #-80]
	lsl	r3, r3, #1
	mov	r2, r3
	.loc 1 734 66
	movw	r3, #6520
	movt	r3, 153
	add	r3, r2, r3
	.loc 1 734 5
	ldr	r2, [fp, #-104]
	add	r3, r2, r3
	.loc 1 734 78
	mov	r2, #0
	strh	r2, [r3]	@ movhi
	.loc 1 735 5
	ldr	r2, [fp, #-104]
	movw	r3, #6520
	movt	r3, 154
	add	r3, r2, r3
	.loc 1 735 42
	ldrh	r2, [fp, #-88]
	strh	r2, [r3]	@ movhi
	.loc 1 736 14
	mvn	r3, #0
	strb	r3, [fp, #-93]
.L616:
.LBE39:
.LBE35:
	.loc 1 738 2
	b	.L598
.L641:
	.loc 1 725 31
	nop
.L600:
	.loc 1 740 14
	ldr	r2, [fp, #-104]
	movw	r3, #6520
	movt	r3, 154
	add	r3, r2, r3
	.loc 1 740 13
	ldrh	r3, [r3]
	.loc 1 740 4
	cmp	r3, #0
	beq	.L650
	.loc 1 740 58 discriminator 1
	nop
.L620:
	.loc 1 741 17 discriminator 1
	ldr	r0, [fp, #-104]
	bl	_ZN5XFONT9INTERFACE18BACKENDSTRINGWIDTHEv
	mov	r3, r0
	strh	r3, [fp, #-86]	@ movhi
	.loc 1 741 4 discriminator 1
	ldrh	r3, [fp, #-86]
	cmp	r3, #0
	beq	.L651
	.loc 1 741 26 discriminator 1
	nop
.L622:
	.loc 1 743 2 discriminator 1
	ldrsh	r1, [fp, #4]
	ldrsh	r2, [fp, #-114]
	ldrb	r3, [fp, #8]	@ zero_extendqisi2
	str	r3, [sp]
	vldr.32	s1, [fp, #-124]
	vldr.32	s0, [fp, #-120]
	mov	r3, r1
	ldr	r1, [fp, #-108]
	ldr	r0, [fp, #-104]
	bl	_ZN5XFONT9INTERFACE18BACKEND_DRAWSTRINGEPvssffh
	b	.L587
.L640:
.LBB40:
.LBB34:
	.loc 1 720 5
	nop
	b	.L587
.L650:
.LBE34:
.LBE40:
	.loc 1 740 3
	nop
	b	.L587
.L651:
	.loc 1 741 3
	nop
.L587:
	.loc 1 744 2
	ldr	r0, [fp, #-20]
	bl	fb_ErrorSetFuncName
	.loc 1 744 2
	ldr	r0, [fp, #-12]
	bl	fb_ErrorSetModName
	.loc 1 744 1
	nop
	sub	sp, fp, #4
	.cfi_def_cfa 13, 8
	@ sp needed
	pop	{fp, pc}
	.cfi_endproc
.LFE30:
	.size	_ZN5XFONT9INTERFACE10DRAWSTRINGEPvRPjssffh, .-_ZN5XFONT9INTERFACE10DRAWSTRINGEPvRPjssffh
	.align	2
	.global	_ZN5XFONT9INTERFACE11STRINGWIDTHERPw
	.syntax unified
	.arm
	.fpu vfp
	.type	_ZN5XFONT9INTERFACE11STRINGWIDTHERPw, %function
_ZN5XFONT9INTERFACE11STRINGWIDTHERPw:
.LFB31:
	.loc 1 747 1
	.cfi_startproc
	@ args = 0, pretend = 0, frame = 104
	@ frame_needed = 1, uses_anonymous_args = 0
	push	{fp, lr}
	.cfi_def_cfa_offset 8
	.cfi_offset 11, -8
	.cfi_offset 14, -4
	add	fp, sp, #4
	.cfi_def_cfa 11, 4
	sub	sp, sp, #104
	str	r0, [fp, #-104]
	str	r1, [fp, #-108]
	mov	r3, #0
	strh	r3, [fp, #-90]	@ movhi
	.loc 1 747 16
	movw	r0, #:lower16:.LC0
	movt	r0, #:upper16:.LC0
	bl	fb_ErrorSetModName
	str	r0, [fp, #-8]
	.loc 1 747 12
	ldr	r3, [fp, #-8]
	str	r3, [fp, #-12]
	.loc 1 747 16
	movw	r0, #:lower16:.LC36
	movt	r0, #:upper16:.LC36
	bl	fb_ErrorSetFuncName
	str	r0, [fp, #-16]
	.loc 1 747 12
	ldr	r3, [fp, #-16]
	str	r3, [fp, #-20]
.L653:
	mov	r3, #0
	strh	r3, [fp, #-92]	@ movhi
	mov	r3, #0
	str	r3, [fp, #-96]
	.loc 1 751 71
	ldr	r2, [fp, #-104]
	movw	r3, #6540
	movt	r3, 154
	add	r3, r2, r3
	.loc 1 751 70
	ldrh	r3, [r3]
	.loc 1 751 4
	cmp	r3, #8
	bls	.L705
	.loc 1 752 4
	ldr	r2, [fp, #-104]
	movw	r3, #4068
	movt	r3, 153
	add	r3, r2, r3
	.loc 1 752 40
	mov	r2, #102
	str	r2, [r3]
	.loc 1 753 15
	mov	r3, #0
	strh	r3, [fp, #-90]	@ movhi
	.loc 1 753 3
	b	.L656
.L705:
	.loc 1 751 121
	nop
.L655:
.LBB41:
	.loc 1 755 23
	ldr	r2, [fp, #-104]
	movw	r3, #6540
	movt	r3, 154
	add	r3, r2, r3
	.loc 1 755 22
	ldrh	r3, [r3]
	.loc 1 755 13
	str	r3, [fp, #-24]
	.loc 1 755 17
	ldr	r0, [fp, #-24]
	movw	r3, #:lower16:.LC0
	movt	r3, #:upper16:.LC0
	movw	r2, #755
	mov	r1, #8
	bl	fb_ArraySngBoundChk
	str	r0, [fp, #-28]
	.loc 1 755 5
	ldr	r3, [fp, #-28]
	cmp	r3, #0
	beq	.L706
	.loc 1 755 3 discriminator 2
	ldr	r3, [fp, #-28]
	mov	pc, r3	@ indirect register jump
.L706:
	.loc 1 755 20
	nop
.L658:
	.loc 1 755 61
	ldr	r2, [fp, #-24]
	mov	r3, #452
	movt	r3, 17
	mul	r3, r3, r2
	.loc 1 755 73
	add	r3, r3, #1114112
	add	r3, r3, #448
	.loc 1 755 16
	ldr	r2, [fp, #-104]
	add	r3, r2, r3
	.loc 1 755 15
	ldrsb	r3, [r3]
	.loc 1 755 5
	cmn	r3, #1
	beq	.L707
	.loc 1 756 5
	ldr	r2, [fp, #-104]
	movw	r3, #4068
	movt	r3, 153
	add	r3, r2, r3
	.loc 1 756 41
	mov	r2, #106
	str	r2, [r3]
	.loc 1 757 16
	mov	r3, #0
	strh	r3, [fp, #-90]	@ movhi
	.loc 1 757 4
	b	.L656
.L707:
	.loc 1 755 91
	nop
.L660:
.LBB42:
	.loc 1 760 24
	ldr	r2, [fp, #-104]
	movw	r3, #6540
	movt	r3, 154
	add	r3, r2, r3
	.loc 1 760 23
	ldrh	r3, [r3]
	.loc 1 760 14
	str	r3, [fp, #-32]
	.loc 1 760 18
	ldr	r0, [fp, #-32]
	movw	r3, #:lower16:.LC0
	movt	r3, #:upper16:.LC0
	mov	r2, #760
	mov	r1, #8
	bl	fb_ArraySngBoundChk
	str	r0, [fp, #-36]
	.loc 1 760 6
	ldr	r3, [fp, #-36]
	cmp	r3, #0
	beq	.L708
	.loc 1 760 4 discriminator 2
	ldr	r3, [fp, #-36]
	mov	pc, r3	@ indirect register jump
.L708:
	.loc 1 760 21
	nop
.L662:
	.loc 1 760 63
	ldr	r2, [fp, #-32]
	mov	r3, #452
	movt	r3, 17
	mul	r3, r3, r2
	.loc 1 760 75
	add	r3, r3, #412
	add	r3, r3, #3
	.loc 1 760 16
	ldr	r2, [fp, #-104]
	add	r3, r2, r3
	.loc 1 760 15
	ldrh	r3, [r3]
	.loc 1 760 6
	cmp	r3, #0
	bne	.L709
	.loc 1 760 17 discriminator 5
	mov	r3, #0
	strh	r3, [fp, #-90]	@ movhi
	.loc 1 760 5 discriminator 5
	b	.L656
.L664:
.L665:
.L709:
	.loc 1 760 89
	nop
.L666:
.LBE42:
.LBE41:
	.loc 1 765 16
	ldr	r3, [fp, #-108]
	ldr	r3, [r3]
	mov	r0, r3
	bl	fb_WstrLen
	str	r0, [fp, #-40]
	.loc 1 765 6
	ldr	r3, [fp, #-40]
	str	r3, [fp, #-96]
	.loc 1 767 10
	ldr	r3, [fp, #-96]
	.loc 1 767 4
	cmp	r3, #0
	bne	.L710
	.loc 1 767 15 discriminator 2
	mov	r3, #0
	strh	r3, [fp, #-90]	@ movhi
	.loc 1 767 3 discriminator 2
	b	.L656
.L710:
	.loc 1 767 17
	nop
.L668:
	.loc 1 768 10
	ldr	r3, [fp, #-96]
	.loc 1 768 4
	cmp	r3, #32768
	blt	.L711
	.loc 1 768 7 discriminator 2
	movw	r3, #32767
	str	r3, [fp, #-96]
	b	.L670
.L711:
	.loc 1 768 21
	nop
.L670:
.LBB43:
	.loc 1 769 7
	mov	r3, #0
	strh	r3, [fp, #-92]	@ movhi
	.loc 1 769 28
	ldr	r3, [fp, #-96]
	sxth	r3, r3
	sub	r3, r3, #1
	sxth	r3, r3
	.loc 1 769 13
	strh	r3, [fp, #-42]	@ movhi
	.loc 1 769 3
	b	.L671
.L717:
	.loc 1 775 40
	nop
.L672:
.LBB44:
	.loc 1 770 14
	ldr	r3, [fp, #-108]
	ldr	r3, [r3]
	str	r3, [fp, #-60]
	.loc 1 770 18
	movw	r2, #:lower16:.LC0
	movt	r2, #:upper16:.LC0
	movw	r1, #770
	ldr	r0, [fp, #-60]
	bl	fb_NullPtrChk
	str	r0, [fp, #-64]
	.loc 1 770 6
	ldr	r3, [fp, #-64]
	cmp	r3, #0
	beq	.L712
	.loc 1 770 4 discriminator 2
	ldr	r3, [fp, #-64]
	mov	pc, r3	@ indirect register jump
.L712:
	.loc 1 770 21
	nop
.L674:
	.loc 1 770 40
	ldrh	r3, [fp, #-92]
	.loc 1 770 51
	lsl	r3, r3, #2
	mov	r2, r3
	.loc 1 770 9
	ldr	r3, [fp, #-60]
	add	r3, r3, r2
	.loc 1 770 8
	ldr	r3, [r3]
	.loc 1 770 6
	cmp	r3, #65536
	bcs	.L713
.LBB45:
	.loc 1 771 15
	ldr	r3, [fp, #-108]
	ldr	r3, [r3]
	str	r3, [fp, #-68]
	.loc 1 771 19
	movw	r2, #:lower16:.LC0
	movt	r2, #:upper16:.LC0
	movw	r1, #771
	ldr	r0, [fp, #-68]
	bl	fb_NullPtrChk
	str	r0, [fp, #-72]
	.loc 1 771 7
	ldr	r3, [fp, #-72]
	cmp	r3, #0
	beq	.L714
	.loc 1 771 5 discriminator 2
	ldr	r3, [fp, #-72]
	mov	pc, r3	@ indirect register jump
.L714:
	.loc 1 771 22
	nop
.L678:
	.loc 1 771 17
	ldrh	r3, [fp, #-92]
	.loc 1 771 15
	str	r3, [fp, #-76]
	.loc 1 771 19
	ldr	r0, [fp, #-76]
	movw	r3, #:lower16:.LC0
	movt	r3, #:upper16:.LC0
	movw	r2, #771
	movw	r1, #32767
	bl	fb_ArraySngBoundChk
	str	r0, [fp, #-80]
	.loc 1 771 7
	ldr	r3, [fp, #-80]
	cmp	r3, #0
	beq	.L715
	.loc 1 771 5 discriminator 5
	ldr	r3, [fp, #-80]
	mov	pc, r3	@ indirect register jump
.L715:
	.loc 1 771 22
	nop
.L680:
	.loc 1 771 121
	ldrh	r3, [fp, #-92]
	.loc 1 771 132
	lsl	r3, r3, #2
	mov	r2, r3
	.loc 1 771 90
	ldr	r3, [fp, #-68]
	add	r3, r3, r2
	.loc 1 771 89
	ldr	r1, [r3]
	.loc 1 771 53
	ldr	r3, [fp, #-76]
	lsl	r3, r3, #1
	mov	r2, r3
	.loc 1 771 67
	movw	r3, #6520
	movt	r3, 153
	add	r3, r2, r3
	.loc 1 771 6
	ldr	r2, [fp, #-104]
	add	r3, r2, r3
	.loc 1 771 81
	uxth	r2, r1
	.loc 1 771 79
	strh	r2, [r3]	@ movhi
.LBE45:
	.loc 1 772 4
	b	.L684
.L713:
	.loc 1 770 76
	nop
.L676:
.LBB46:
	.loc 1 773 17
	ldrh	r3, [fp, #-92]
	.loc 1 773 15
	str	r3, [fp, #-84]
	.loc 1 773 19
	ldr	r0, [fp, #-84]
	movw	r3, #:lower16:.LC0
	movt	r3, #:upper16:.LC0
	movw	r2, #773
	movw	r1, #32767
	bl	fb_ArraySngBoundChk
	str	r0, [fp, #-88]
	.loc 1 773 7
	ldr	r3, [fp, #-88]
	cmp	r3, #0
	beq	.L716
	.loc 1 773 5 discriminator 2
	ldr	r3, [fp, #-88]
	mov	pc, r3	@ indirect register jump
.L716:
	.loc 1 773 22
	nop
.L683:
	.loc 1 773 53
	ldr	r3, [fp, #-84]
	lsl	r3, r3, #1
	mov	r2, r3
	.loc 1 773 67
	movw	r3, #6520
	movt	r3, 153
	add	r3, r2, r3
	.loc 1 773 6
	ldr	r2, [fp, #-104]
	add	r3, r2, r3
	.loc 1 773 79
	mov	r2, #0
	strh	r2, [r3]	@ movhi
.L681:
.L684:
.LBE46:
.LBE44:
	.loc 1 775 29
	ldrh	r3, [fp, #-92]
	sxth	r3, r3
	add	r3, r3, #1
	sxth	r3, r3
	.loc 1 775 9
	uxth	r3, r3
	.loc 1 775 7
	strh	r3, [fp, #-92]	@ movhi
.L671:
	.loc 1 775 18 discriminator 1
	ldrh	r3, [fp, #-92]
	.loc 1 775 5 discriminator 1
	ldrh	r2, [fp, #-42]
	cmp	r2, r3
	bcs	.L717
	.loc 1 775 3
	nop
.L685:
.LBE43:
	.loc 1 776 12
	ldr	r3, [fp, #-96]
	str	r3, [fp, #-48]
	.loc 1 776 16
	ldr	r0, [fp, #-48]
	movw	r3, #:lower16:.LC0
	movt	r3, #:upper16:.LC0
	mov	r2, #776
	movw	r1, #32767
	bl	fb_ArraySngBoundChk
	str	r0, [fp, #-52]
	.loc 1 776 4
	ldr	r3, [fp, #-52]
	cmp	r3, #0
	beq	.L718
	.loc 1 776 2 discriminator 2
	ldr	r3, [fp, #-52]
	mov	pc, r3	@ indirect register jump
.L718:
	.loc 1 776 19
	nop
.L687:
	.loc 1 776 50
	ldr	r3, [fp, #-48]
	lsl	r3, r3, #1
	mov	r2, r3
	.loc 1 776 64
	movw	r3, #6520
	movt	r3, 153
	add	r3, r2, r3
	.loc 1 776 3
	ldr	r2, [fp, #-104]
	add	r3, r2, r3
	.loc 1 776 76
	mov	r2, #0
	strh	r2, [r3]	@ movhi
	.loc 1 777 42
	ldr	r1, [fp, #-96]
	.loc 1 777 3
	ldr	r2, [fp, #-104]
	movw	r3, #6520
	movt	r3, 154
	add	r3, r2, r3
	.loc 1 777 42
	uxth	r2, r1
	.loc 1 777 40
	strh	r2, [r3]	@ movhi
	.loc 1 778 14
	ldr	r2, [fp, #-104]
	movw	r3, #6520
	movt	r3, 154
	add	r3, r2, r3
	.loc 1 778 13
	ldrh	r3, [r3]
	.loc 1 778 4
	cmp	r3, #0
	bne	.L719
	.loc 1 778 15 discriminator 2
	mov	r3, #0
	strh	r3, [fp, #-90]	@ movhi
	.loc 1 778 3 discriminator 2
	b	.L656
.L719:
	.loc 1 778 58
	nop
.L689:
	.loc 1 779 17
	ldr	r0, [fp, #-104]
	bl	_ZN5XFONT9INTERFACE18BACKENDSTRINGWIDTHEv
	mov	r3, r0
	strh	r3, [fp, #-54]	@ movhi
	.loc 1 779 14
	ldrh	r3, [fp, #-54]	@ movhi
	strh	r3, [fp, #-90]	@ movhi
	.loc 1 779 2
	nop
.L656:
	.loc 1 780 2
	ldr	r0, [fp, #-20]
	bl	fb_ErrorSetFuncName
	.loc 1 780 2
	ldr	r0, [fp, #-12]
	bl	fb_ErrorSetModName
	.loc 1 780 9
	ldrh	r3, [fp, #-90]
	.loc 1 780 1
	mov	r0, r3
	sub	sp, fp, #4
	.cfi_def_cfa 13, 8
	@ sp needed
	pop	{fp, pc}
	.cfi_endproc
.LFE31:
	.size	_ZN5XFONT9INTERFACE11STRINGWIDTHERPw, .-_ZN5XFONT9INTERFACE11STRINGWIDTHERPw
	.align	2
	.global	_ZN5XFONT9INTERFACE10DRAWSTRINGEPvRPwssffh
	.syntax unified
	.arm
	.fpu vfp
	.type	_ZN5XFONT9INTERFACE10DRAWSTRINGEPvRPwssffh, %function
_ZN5XFONT9INTERFACE10DRAWSTRINGEPvRPwssffh:
.LFB32:
	.loc 1 784 1
	.cfi_startproc
	@ args = 8, pretend = 0, frame = 120
	@ frame_needed = 1, uses_anonymous_args = 0
	push	{fp, lr}
	.cfi_def_cfa_offset 8
	.cfi_offset 11, -8
	.cfi_offset 14, -4
	add	fp, sp, #4
	.cfi_def_cfa 11, 4
	sub	sp, sp, #128
	str	r0, [fp, #-104]
	str	r1, [fp, #-108]
	str	r2, [fp, #-112]
	vstr.32	s0, [fp, #-120]
	vstr.32	s1, [fp, #-124]
	strh	r3, [fp, #-114]	@ movhi
.L721:
	.loc 1 784 16
	movw	r0, #:lower16:.LC0
	movt	r0, #:upper16:.LC0
	bl	fb_ErrorSetModName
	str	r0, [fp, #-8]
	.loc 1 784 12
	ldr	r3, [fp, #-8]
	str	r3, [fp, #-12]
	.loc 1 784 16
	movw	r0, #:lower16:.LC37
	movt	r0, #:upper16:.LC37
	bl	fb_ErrorSetFuncName
	str	r0, [fp, #-16]
	.loc 1 784 12
	ldr	r3, [fp, #-16]
	str	r3, [fp, #-20]
	mov	r3, #0
	strh	r3, [fp, #-90]	@ movhi
	mov	r3, #0
	str	r3, [fp, #-96]
	.loc 1 788 71
	ldr	r2, [fp, #-104]
	movw	r3, #6540
	movt	r3, 154
	add	r3, r2, r3
	.loc 1 788 70
	ldrh	r3, [r3]
	.loc 1 788 4
	cmp	r3, #8
	bls	.L771
	.loc 1 789 4
	ldr	r2, [fp, #-104]
	movw	r3, #4068
	movt	r3, 153
	add	r3, r2, r3
	.loc 1 789 40
	mov	r2, #102
	str	r2, [r3]
	.loc 1 790 3
	b	.L724
.L771:
	.loc 1 788 121
	nop
.L723:
.LBB47:
	.loc 1 792 23
	ldr	r2, [fp, #-104]
	movw	r3, #6540
	movt	r3, 154
	add	r3, r2, r3
	.loc 1 792 22
	ldrh	r3, [r3]
	.loc 1 792 13
	str	r3, [fp, #-24]
	.loc 1 792 17
	ldr	r0, [fp, #-24]
	movw	r3, #:lower16:.LC0
	movt	r3, #:upper16:.LC0
	mov	r2, #792
	mov	r1, #8
	bl	fb_ArraySngBoundChk
	str	r0, [fp, #-28]
	.loc 1 792 5
	ldr	r3, [fp, #-28]
	cmp	r3, #0
	beq	.L772
	.loc 1 792 3 discriminator 2
	ldr	r3, [fp, #-28]
	mov	pc, r3	@ indirect register jump
.L772:
	.loc 1 792 20
	nop
.L726:
	.loc 1 792 61
	ldr	r2, [fp, #-24]
	mov	r3, #452
	movt	r3, 17
	mul	r3, r3, r2
	.loc 1 792 73
	add	r3, r3, #1114112
	add	r3, r3, #448
	.loc 1 792 16
	ldr	r2, [fp, #-104]
	add	r3, r2, r3
	.loc 1 792 15
	ldrsb	r3, [r3]
	.loc 1 792 5
	cmn	r3, #1
	beq	.L773
	.loc 1 793 5
	ldr	r2, [fp, #-104]
	movw	r3, #4068
	movt	r3, 153
	add	r3, r2, r3
	.loc 1 793 41
	mov	r2, #106
	str	r2, [r3]
	.loc 1 794 4
	b	.L724
.L773:
	.loc 1 792 91
	nop
.L728:
.LBB48:
	.loc 1 797 24
	ldr	r2, [fp, #-104]
	movw	r3, #6540
	movt	r3, 154
	add	r3, r2, r3
	.loc 1 797 23
	ldrh	r3, [r3]
	.loc 1 797 14
	str	r3, [fp, #-32]
	.loc 1 797 18
	ldr	r0, [fp, #-32]
	movw	r3, #:lower16:.LC0
	movt	r3, #:upper16:.LC0
	movw	r2, #797
	mov	r1, #8
	bl	fb_ArraySngBoundChk
	str	r0, [fp, #-36]
	.loc 1 797 6
	ldr	r3, [fp, #-36]
	cmp	r3, #0
	beq	.L774
	.loc 1 797 4 discriminator 2
	ldr	r3, [fp, #-36]
	mov	pc, r3	@ indirect register jump
.L774:
	.loc 1 797 21
	nop
.L730:
	.loc 1 797 63
	ldr	r2, [fp, #-32]
	mov	r3, #452
	movt	r3, 17
	mul	r3, r3, r2
	.loc 1 797 75
	add	r3, r3, #412
	add	r3, r3, #3
	.loc 1 797 16
	ldr	r2, [fp, #-104]
	add	r3, r2, r3
	.loc 1 797 15
	ldrh	r3, [r3]
	.loc 1 797 6
	cmp	r3, #0
	beq	.L775
	.loc 1 797 89 discriminator 4
	nop
.L732:
.L733:
.L734:
.LBE48:
.LBE47:
	.loc 1 802 16 discriminator 4
	ldr	r3, [fp, #-112]
	ldr	r3, [r3]
	mov	r0, r3
	bl	fb_WstrLen
	str	r0, [fp, #-40]
	.loc 1 802 6 discriminator 4
	ldr	r3, [fp, #-40]
	str	r3, [fp, #-96]
	.loc 1 804 10 discriminator 4
	ldr	r3, [fp, #-96]
	.loc 1 804 4 discriminator 4
	cmp	r3, #0
	beq	.L776
	.loc 1 804 17 discriminator 1
	nop
.L736:
	.loc 1 805 10 discriminator 1
	ldr	r3, [fp, #-96]
	.loc 1 805 4 discriminator 1
	cmp	r3, #32768
	blt	.L777
	.loc 1 805 7 discriminator 2
	movw	r3, #32767
	str	r3, [fp, #-96]
	b	.L738
.L777:
	.loc 1 805 21
	nop
.L738:
.LBB50:
	.loc 1 806 7
	mov	r3, #0
	strh	r3, [fp, #-90]	@ movhi
	.loc 1 806 28
	ldr	r3, [fp, #-96]
	sxth	r3, r3
	sub	r3, r3, #1
	sxth	r3, r3
	.loc 1 806 13
	strh	r3, [fp, #-42]	@ movhi
	.loc 1 806 3
	b	.L739
.L783:
	.loc 1 812 40
	nop
.L740:
.LBB51:
	.loc 1 807 14
	ldr	r3, [fp, #-112]
	ldr	r3, [r3]
	str	r3, [fp, #-60]
	.loc 1 807 18
	movw	r2, #:lower16:.LC0
	movt	r2, #:upper16:.LC0
	movw	r1, #807
	ldr	r0, [fp, #-60]
	bl	fb_NullPtrChk
	str	r0, [fp, #-64]
	.loc 1 807 6
	ldr	r3, [fp, #-64]
	cmp	r3, #0
	beq	.L778
	.loc 1 807 4 discriminator 2
	ldr	r3, [fp, #-64]
	mov	pc, r3	@ indirect register jump
.L778:
	.loc 1 807 21
	nop
.L742:
	.loc 1 807 40
	ldrh	r3, [fp, #-90]
	.loc 1 807 51
	lsl	r3, r3, #2
	mov	r2, r3
	.loc 1 807 9
	ldr	r3, [fp, #-60]
	add	r3, r3, r2
	.loc 1 807 8
	ldr	r3, [r3]
	.loc 1 807 6
	cmp	r3, #65536
	bcs	.L779
.LBB52:
	.loc 1 808 15
	ldr	r3, [fp, #-112]
	ldr	r3, [r3]
	str	r3, [fp, #-68]
	.loc 1 808 19
	movw	r2, #:lower16:.LC0
	movt	r2, #:upper16:.LC0
	mov	r1, #808
	ldr	r0, [fp, #-68]
	bl	fb_NullPtrChk
	str	r0, [fp, #-72]
	.loc 1 808 7
	ldr	r3, [fp, #-72]
	cmp	r3, #0
	beq	.L780
	.loc 1 808 5 discriminator 2
	ldr	r3, [fp, #-72]
	mov	pc, r3	@ indirect register jump
.L780:
	.loc 1 808 22
	nop
.L746:
	.loc 1 808 17
	ldrh	r3, [fp, #-90]
	.loc 1 808 15
	str	r3, [fp, #-76]
	.loc 1 808 19
	ldr	r0, [fp, #-76]
	movw	r3, #:lower16:.LC0
	movt	r3, #:upper16:.LC0
	mov	r2, #808
	movw	r1, #32767
	bl	fb_ArraySngBoundChk
	str	r0, [fp, #-80]
	.loc 1 808 7
	ldr	r3, [fp, #-80]
	cmp	r3, #0
	beq	.L781
	.loc 1 808 5 discriminator 5
	ldr	r3, [fp, #-80]
	mov	pc, r3	@ indirect register jump
.L781:
	.loc 1 808 22
	nop
.L748:
	.loc 1 808 121
	ldrh	r3, [fp, #-90]
	.loc 1 808 132
	lsl	r3, r3, #2
	mov	r2, r3
	.loc 1 808 90
	ldr	r3, [fp, #-68]
	add	r3, r3, r2
	.loc 1 808 89
	ldr	r1, [r3]
	.loc 1 808 53
	ldr	r3, [fp, #-76]
	lsl	r3, r3, #1
	mov	r2, r3
	.loc 1 808 67
	movw	r3, #6520
	movt	r3, 153
	add	r3, r2, r3
	.loc 1 808 6
	ldr	r2, [fp, #-104]
	add	r3, r2, r3
	.loc 1 808 81
	uxth	r2, r1
	.loc 1 808 79
	strh	r2, [r3]	@ movhi
.LBE52:
	.loc 1 809 4
	b	.L752
.L779:
	.loc 1 807 76
	nop
.L744:
.LBB53:
	.loc 1 810 17
	ldrh	r3, [fp, #-90]
	.loc 1 810 15
	str	r3, [fp, #-84]
	.loc 1 810 19
	ldr	r0, [fp, #-84]
	movw	r3, #:lower16:.LC0
	movt	r3, #:upper16:.LC0
	movw	r2, #810
	movw	r1, #32767
	bl	fb_ArraySngBoundChk
	str	r0, [fp, #-88]
	.loc 1 810 7
	ldr	r3, [fp, #-88]
	cmp	r3, #0
	beq	.L782
	.loc 1 810 5 discriminator 2
	ldr	r3, [fp, #-88]
	mov	pc, r3	@ indirect register jump
.L782:
	.loc 1 810 22
	nop
.L751:
	.loc 1 810 53
	ldr	r3, [fp, #-84]
	lsl	r3, r3, #1
	mov	r2, r3
	.loc 1 810 67
	movw	r3, #6520
	movt	r3, 153
	add	r3, r2, r3
	.loc 1 810 6
	ldr	r2, [fp, #-104]
	add	r3, r2, r3
	.loc 1 810 79
	mov	r2, #0
	strh	r2, [r3]	@ movhi
.L749:
.L752:
.LBE53:
.LBE51:
	.loc 1 812 29
	ldrh	r3, [fp, #-90]
	sxth	r3, r3
	add	r3, r3, #1
	sxth	r3, r3
	.loc 1 812 9
	uxth	r3, r3
	.loc 1 812 7
	strh	r3, [fp, #-90]	@ movhi
.L739:
	.loc 1 812 18 discriminator 1
	ldrh	r3, [fp, #-90]
	.loc 1 812 5 discriminator 1
	ldrh	r2, [fp, #-42]
	cmp	r2, r3
	bcs	.L783
	.loc 1 812 3
	nop
.L753:
.LBE50:
	.loc 1 813 12
	ldr	r3, [fp, #-96]
	str	r3, [fp, #-48]
	.loc 1 813 16
	ldr	r0, [fp, #-48]
	movw	r3, #:lower16:.LC0
	movt	r3, #:upper16:.LC0
	movw	r2, #813
	movw	r1, #32767
	bl	fb_ArraySngBoundChk
	str	r0, [fp, #-52]
	.loc 1 813 4
	ldr	r3, [fp, #-52]
	cmp	r3, #0
	beq	.L784
	.loc 1 813 2 discriminator 2
	ldr	r3, [fp, #-52]
	mov	pc, r3	@ indirect register jump
.L784:
	.loc 1 813 19
	nop
.L755:
	.loc 1 813 50
	ldr	r3, [fp, #-48]
	lsl	r3, r3, #1
	mov	r2, r3
	.loc 1 813 64
	movw	r3, #6520
	movt	r3, 153
	add	r3, r2, r3
	.loc 1 813 3
	ldr	r2, [fp, #-104]
	add	r3, r2, r3
	.loc 1 813 76
	mov	r2, #0
	strh	r2, [r3]	@ movhi
	.loc 1 814 42
	ldr	r1, [fp, #-96]
	.loc 1 814 3
	ldr	r2, [fp, #-104]
	movw	r3, #6520
	movt	r3, 154
	add	r3, r2, r3
	.loc 1 814 42
	uxth	r2, r1
	.loc 1 814 40
	strh	r2, [r3]	@ movhi
	.loc 1 815 14
	ldr	r2, [fp, #-104]
	movw	r3, #6520
	movt	r3, 154
	add	r3, r2, r3
	.loc 1 815 13
	ldrh	r3, [r3]
	.loc 1 815 4
	cmp	r3, #0
	beq	.L785
	.loc 1 815 58 discriminator 1
	nop
.L757:
	.loc 1 816 17 discriminator 1
	ldr	r0, [fp, #-104]
	bl	_ZN5XFONT9INTERFACE18BACKENDSTRINGWIDTHEv
	mov	r3, r0
	strh	r3, [fp, #-54]	@ movhi
	.loc 1 816 4 discriminator 1
	ldrh	r3, [fp, #-54]
	cmp	r3, #0
	beq	.L786
	.loc 1 816 26 discriminator 1
	nop
.L759:
	.loc 1 818 2 discriminator 1
	ldrsh	r1, [fp, #4]
	ldrsh	r2, [fp, #-114]
	ldrb	r3, [fp, #8]	@ zero_extendqisi2
	str	r3, [sp]
	vldr.32	s1, [fp, #-124]
	vldr.32	s0, [fp, #-120]
	mov	r3, r1
	ldr	r1, [fp, #-108]
	ldr	r0, [fp, #-104]
	bl	_ZN5XFONT9INTERFACE18BACKEND_DRAWSTRINGEPvssffh
	b	.L724
.L775:
.LBB54:
.LBB49:
	.loc 1 797 5
	nop
	b	.L724
.L776:
.LBE49:
.LBE54:
	.loc 1 804 3
	nop
	b	.L724
.L785:
	.loc 1 815 3
	nop
	b	.L724
.L786:
	.loc 1 816 3
	nop
.L724:
	.loc 1 819 2
	ldr	r0, [fp, #-20]
	bl	fb_ErrorSetFuncName
	.loc 1 819 2
	ldr	r0, [fp, #-12]
	bl	fb_ErrorSetModName
	.loc 1 819 1
	nop
	sub	sp, fp, #4
	.cfi_def_cfa 13, 8
	@ sp needed
	pop	{fp, pc}
	.cfi_endproc
.LFE32:
	.size	_ZN5XFONT9INTERFACE10DRAWSTRINGEPvRPwssffh, .-_ZN5XFONT9INTERFACE10DRAWSTRINGEPvRPwssffh
	.align	2
	.global	_ZN5XFONT9INTERFACE11STRINGWIDTHER8FBSTRING
	.syntax unified
	.arm
	.fpu vfp
	.type	_ZN5XFONT9INTERFACE11STRINGWIDTHER8FBSTRING, %function
_ZN5XFONT9INTERFACE11STRINGWIDTHER8FBSTRING:
.LFB33:
	.loc 1 821 1
	.cfi_startproc
	@ args = 0, pretend = 0, frame = 88
	@ frame_needed = 1, uses_anonymous_args = 0
	push	{fp, lr}
	.cfi_def_cfa_offset 8
	.cfi_offset 11, -8
	.cfi_offset 14, -4
	add	fp, sp, #4
	.cfi_def_cfa 11, 4
	sub	sp, sp, #88
	str	r0, [fp, #-88]
	str	r1, [fp, #-92]
	mov	r3, #0
	strh	r3, [fp, #-74]	@ movhi
	.loc 1 821 16
	movw	r0, #:lower16:.LC0
	movt	r0, #:upper16:.LC0
	bl	fb_ErrorSetModName
	str	r0, [fp, #-8]
	.loc 1 821 12
	ldr	r3, [fp, #-8]
	str	r3, [fp, #-12]
	.loc 1 821 16
	movw	r0, #:lower16:.LC36
	movt	r0, #:upper16:.LC36
	bl	fb_ErrorSetFuncName
	str	r0, [fp, #-16]
	.loc 1 821 12
	ldr	r3, [fp, #-16]
	str	r3, [fp, #-20]
.L788:
	mov	r3, #0
	strh	r3, [fp, #-76]	@ movhi
	mov	r3, #0
	str	r3, [fp, #-80]
	.loc 1 825 71
	ldr	r2, [fp, #-88]
	movw	r3, #6540
	movt	r3, 154
	add	r3, r2, r3
	.loc 1 825 70
	ldrh	r3, [r3]
	.loc 1 825 4
	cmp	r3, #8
	bls	.L830
	.loc 1 826 4
	ldr	r2, [fp, #-88]
	movw	r3, #4068
	movt	r3, 153
	add	r3, r2, r3
	.loc 1 826 40
	mov	r2, #102
	str	r2, [r3]
	.loc 1 827 15
	mov	r3, #0
	strh	r3, [fp, #-74]	@ movhi
	.loc 1 827 3
	b	.L791
.L830:
	.loc 1 825 121
	nop
.L790:
.LBB55:
	.loc 1 829 23
	ldr	r2, [fp, #-88]
	movw	r3, #6540
	movt	r3, 154
	add	r3, r2, r3
	.loc 1 829 22
	ldrh	r3, [r3]
	.loc 1 829 13
	str	r3, [fp, #-24]
	.loc 1 829 17
	ldr	r0, [fp, #-24]
	movw	r3, #:lower16:.LC0
	movt	r3, #:upper16:.LC0
	movw	r2, #829
	mov	r1, #8
	bl	fb_ArraySngBoundChk
	str	r0, [fp, #-28]
	.loc 1 829 5
	ldr	r3, [fp, #-28]
	cmp	r3, #0
	beq	.L831
	.loc 1 829 3 discriminator 2
	ldr	r3, [fp, #-28]
	mov	pc, r3	@ indirect register jump
.L831:
	.loc 1 829 20
	nop
.L793:
	.loc 1 829 61
	ldr	r2, [fp, #-24]
	mov	r3, #452
	movt	r3, 17
	mul	r3, r3, r2
	.loc 1 829 73
	add	r3, r3, #1114112
	add	r3, r3, #448
	.loc 1 829 16
	ldr	r2, [fp, #-88]
	add	r3, r2, r3
	.loc 1 829 15
	ldrsb	r3, [r3]
	.loc 1 829 5
	cmn	r3, #1
	beq	.L832
	.loc 1 830 5
	ldr	r2, [fp, #-88]
	movw	r3, #4068
	movt	r3, 153
	add	r3, r2, r3
	.loc 1 830 41
	mov	r2, #106
	str	r2, [r3]
	.loc 1 831 16
	mov	r3, #0
	strh	r3, [fp, #-74]	@ movhi
	.loc 1 831 4
	b	.L791
.L832:
	.loc 1 829 91
	nop
.L795:
.LBB56:
	.loc 1 834 24
	ldr	r2, [fp, #-88]
	movw	r3, #6540
	movt	r3, 154
	add	r3, r2, r3
	.loc 1 834 23
	ldrh	r3, [r3]
	.loc 1 834 14
	str	r3, [fp, #-32]
	.loc 1 834 18
	ldr	r0, [fp, #-32]
	movw	r3, #:lower16:.LC0
	movt	r3, #:upper16:.LC0
	movw	r2, #834
	mov	r1, #8
	bl	fb_ArraySngBoundChk
	str	r0, [fp, #-36]
	.loc 1 834 6
	ldr	r3, [fp, #-36]
	cmp	r3, #0
	beq	.L833
	.loc 1 834 4 discriminator 2
	ldr	r3, [fp, #-36]
	mov	pc, r3	@ indirect register jump
.L833:
	.loc 1 834 21
	nop
.L797:
	.loc 1 834 63
	ldr	r2, [fp, #-32]
	mov	r3, #452
	movt	r3, 17
	mul	r3, r3, r2
	.loc 1 834 75
	add	r3, r3, #412
	add	r3, r3, #3
	.loc 1 834 16
	ldr	r2, [fp, #-88]
	add	r3, r2, r3
	.loc 1 834 15
	ldrh	r3, [r3]
	.loc 1 834 6
	cmp	r3, #0
	bne	.L834
	.loc 1 834 17 discriminator 5
	mov	r3, #0
	strh	r3, [fp, #-74]	@ movhi
	.loc 1 834 5 discriminator 5
	b	.L791
.L799:
.L800:
.L834:
	.loc 1 834 89
	nop
.L801:
.LBE56:
.LBE55:
	.loc 1 839 16
	mvn	r1, #0
	ldr	r0, [fp, #-92]
	bl	fb_StrLen
	str	r0, [fp, #-40]
	.loc 1 839 6
	ldr	r3, [fp, #-40]
	str	r3, [fp, #-80]
	.loc 1 841 10
	ldr	r3, [fp, #-80]
	.loc 1 841 4
	cmp	r3, #0
	bne	.L835
	.loc 1 841 15 discriminator 2
	mov	r3, #0
	strh	r3, [fp, #-74]	@ movhi
	.loc 1 841 3 discriminator 2
	b	.L791
.L835:
	.loc 1 841 17
	nop
.L803:
	.loc 1 842 10
	ldr	r3, [fp, #-80]
	.loc 1 842 4
	cmp	r3, #32768
	blt	.L836
	.loc 1 842 7 discriminator 2
	movw	r3, #32767
	str	r3, [fp, #-80]
	b	.L805
.L836:
	.loc 1 842 21
	nop
.L805:
.LBB57:
	.loc 1 843 7
	mov	r3, #0
	strh	r3, [fp, #-76]	@ movhi
	.loc 1 843 28
	ldr	r3, [fp, #-80]
	sxth	r3, r3
	sub	r3, r3, #1
	sxth	r3, r3
	.loc 1 843 13
	strh	r3, [fp, #-42]	@ movhi
	.loc 1 843 3
	b	.L806
.L839:
	.loc 1 845 40
	nop
.L807:
.LBB58:
	.loc 1 844 14
	ldr	r3, [fp, #-92]
	ldr	r3, [r3]
	str	r3, [fp, #-60]
	.loc 1 844 18
	movw	r2, #:lower16:.LC0
	movt	r2, #:upper16:.LC0
	mov	r1, #844
	ldr	r0, [fp, #-60]
	bl	fb_NullPtrChk
	str	r0, [fp, #-64]
	.loc 1 844 6
	ldr	r3, [fp, #-64]
	cmp	r3, #0
	beq	.L837
	.loc 1 844 4 discriminator 2
	ldr	r3, [fp, #-64]
	mov	pc, r3	@ indirect register jump
.L837:
	.loc 1 844 21
	nop
.L809:
	.loc 1 844 16
	ldrh	r3, [fp, #-76]
	.loc 1 844 14
	str	r3, [fp, #-68]
	.loc 1 844 18
	ldr	r0, [fp, #-68]
	movw	r3, #:lower16:.LC0
	movt	r3, #:upper16:.LC0
	mov	r2, #844
	movw	r1, #32767
	bl	fb_ArraySngBoundChk
	str	r0, [fp, #-72]
	.loc 1 844 6
	ldr	r3, [fp, #-72]
	cmp	r3, #0
	beq	.L838
	.loc 1 844 4 discriminator 5
	ldr	r3, [fp, #-72]
	mov	pc, r3	@ indirect register jump
.L838:
	.loc 1 844 21
	nop
.L811:
	.loc 1 844 118
	ldrh	r3, [fp, #-76]
	mov	r2, r3
	.loc 1 844 89
	ldr	r3, [fp, #-60]
	add	r3, r3, r2
	.loc 1 844 88
	ldrb	r1, [r3]	@ zero_extendqisi2
	.loc 1 844 52
	ldr	r3, [fp, #-68]
	lsl	r3, r3, #1
	mov	r2, r3
	.loc 1 844 66
	movw	r3, #6520
	movt	r3, 153
	add	r3, r2, r3
	.loc 1 844 5
	ldr	r2, [fp, #-88]
	add	r3, r2, r3
	.loc 1 844 80
	uxth	r2, r1
	.loc 1 844 78
	strh	r2, [r3]	@ movhi
.L812:
.LBE58:
	.loc 1 845 29
	ldrh	r3, [fp, #-76]
	sxth	r3, r3
	add	r3, r3, #1
	sxth	r3, r3
	.loc 1 845 9
	uxth	r3, r3
	.loc 1 845 7
	strh	r3, [fp, #-76]	@ movhi
.L806:
	.loc 1 845 18 discriminator 1
	ldrh	r3, [fp, #-76]
	.loc 1 845 5 discriminator 1
	ldrh	r2, [fp, #-42]
	cmp	r2, r3
	bcs	.L839
	.loc 1 845 3
	nop
.L813:
.LBE57:
	.loc 1 846 12
	ldr	r3, [fp, #-80]
	str	r3, [fp, #-48]
	.loc 1 846 16
	ldr	r0, [fp, #-48]
	movw	r3, #:lower16:.LC0
	movt	r3, #:upper16:.LC0
	movw	r2, #846
	movw	r1, #32767
	bl	fb_ArraySngBoundChk
	str	r0, [fp, #-52]
	.loc 1 846 4
	ldr	r3, [fp, #-52]
	cmp	r3, #0
	beq	.L840
	.loc 1 846 2 discriminator 2
	ldr	r3, [fp, #-52]
	mov	pc, r3	@ indirect register jump
.L840:
	.loc 1 846 19
	nop
.L815:
	.loc 1 846 50
	ldr	r3, [fp, #-48]
	lsl	r3, r3, #1
	mov	r2, r3
	.loc 1 846 64
	movw	r3, #6520
	movt	r3, 153
	add	r3, r2, r3
	.loc 1 846 3
	ldr	r2, [fp, #-88]
	add	r3, r2, r3
	.loc 1 846 76
	mov	r2, #0
	strh	r2, [r3]	@ movhi
	.loc 1 847 42
	ldr	r1, [fp, #-80]
	.loc 1 847 3
	ldr	r2, [fp, #-88]
	movw	r3, #6520
	movt	r3, 154
	add	r3, r2, r3
	.loc 1 847 42
	uxth	r2, r1
	.loc 1 847 40
	strh	r2, [r3]	@ movhi
	.loc 1 848 14
	ldr	r2, [fp, #-88]
	movw	r3, #6520
	movt	r3, 154
	add	r3, r2, r3
	.loc 1 848 13
	ldrh	r3, [r3]
	.loc 1 848 4
	cmp	r3, #0
	bne	.L841
	.loc 1 848 15 discriminator 2
	mov	r3, #0
	strh	r3, [fp, #-74]	@ movhi
	.loc 1 848 3 discriminator 2
	b	.L791
.L841:
	.loc 1 848 58
	nop
.L817:
	.loc 1 849 17
	ldr	r0, [fp, #-88]
	bl	_ZN5XFONT9INTERFACE18BACKENDSTRINGWIDTHEv
	mov	r3, r0
	strh	r3, [fp, #-54]	@ movhi
	.loc 1 849 14
	ldrh	r3, [fp, #-54]	@ movhi
	strh	r3, [fp, #-74]	@ movhi
	.loc 1 849 2
	nop
.L791:
	.loc 1 852 2
	ldr	r0, [fp, #-20]
	bl	fb_ErrorSetFuncName
	.loc 1 852 2
	ldr	r0, [fp, #-12]
	bl	fb_ErrorSetModName
	.loc 1 852 9
	ldrh	r3, [fp, #-74]
	.loc 1 852 1
	mov	r0, r3
	sub	sp, fp, #4
	.cfi_def_cfa 13, 8
	@ sp needed
	pop	{fp, pc}
	.cfi_endproc
.LFE33:
	.size	_ZN5XFONT9INTERFACE11STRINGWIDTHER8FBSTRING, .-_ZN5XFONT9INTERFACE11STRINGWIDTHER8FBSTRING
	.align	2
	.global	_ZN5XFONT9INTERFACE10DRAWSTRINGEPvR8FBSTRINGssffh
	.syntax unified
	.arm
	.fpu vfp
	.type	_ZN5XFONT9INTERFACE10DRAWSTRINGEPvR8FBSTRINGssffh, %function
_ZN5XFONT9INTERFACE10DRAWSTRINGEPvR8FBSTRINGssffh:
.LFB34:
	.loc 1 856 1
	.cfi_startproc
	@ args = 8, pretend = 0, frame = 104
	@ frame_needed = 1, uses_anonymous_args = 0
	push	{fp, lr}
	.cfi_def_cfa_offset 8
	.cfi_offset 11, -8
	.cfi_offset 14, -4
	add	fp, sp, #4
	.cfi_def_cfa 11, 4
	sub	sp, sp, #112
	str	r0, [fp, #-88]
	str	r1, [fp, #-92]
	str	r2, [fp, #-96]
	vstr.32	s0, [fp, #-104]
	vstr.32	s1, [fp, #-108]
	strh	r3, [fp, #-98]	@ movhi
.L843:
	.loc 1 856 16
	movw	r0, #:lower16:.LC0
	movt	r0, #:upper16:.LC0
	bl	fb_ErrorSetModName
	str	r0, [fp, #-8]
	.loc 1 856 12
	ldr	r3, [fp, #-8]
	str	r3, [fp, #-12]
	.loc 1 856 16
	movw	r0, #:lower16:.LC37
	movt	r0, #:upper16:.LC37
	bl	fb_ErrorSetFuncName
	str	r0, [fp, #-16]
	.loc 1 856 12
	ldr	r3, [fp, #-16]
	str	r3, [fp, #-20]
	mov	r3, #0
	strh	r3, [fp, #-74]	@ movhi
	mov	r3, #0
	str	r3, [fp, #-80]
	.loc 1 860 71
	ldr	r2, [fp, #-88]
	movw	r3, #6540
	movt	r3, 154
	add	r3, r2, r3
	.loc 1 860 70
	ldrh	r3, [r3]
	.loc 1 860 4
	cmp	r3, #8
	bls	.L883
	.loc 1 861 4
	ldr	r2, [fp, #-88]
	movw	r3, #4068
	movt	r3, 153
	add	r3, r2, r3
	.loc 1 861 40
	mov	r2, #102
	str	r2, [r3]
	.loc 1 862 3
	b	.L846
.L883:
	.loc 1 860 121
	nop
.L845:
.LBB59:
	.loc 1 864 23
	ldr	r2, [fp, #-88]
	movw	r3, #6540
	movt	r3, 154
	add	r3, r2, r3
	.loc 1 864 22
	ldrh	r3, [r3]
	.loc 1 864 13
	str	r3, [fp, #-24]
	.loc 1 864 17
	ldr	r0, [fp, #-24]
	movw	r3, #:lower16:.LC0
	movt	r3, #:upper16:.LC0
	mov	r2, #864
	mov	r1, #8
	bl	fb_ArraySngBoundChk
	str	r0, [fp, #-28]
	.loc 1 864 5
	ldr	r3, [fp, #-28]
	cmp	r3, #0
	beq	.L884
	.loc 1 864 3 discriminator 2
	ldr	r3, [fp, #-28]
	mov	pc, r3	@ indirect register jump
.L884:
	.loc 1 864 20
	nop
.L848:
	.loc 1 864 61
	ldr	r2, [fp, #-24]
	mov	r3, #452
	movt	r3, 17
	mul	r3, r3, r2
	.loc 1 864 73
	add	r3, r3, #1114112
	add	r3, r3, #448
	.loc 1 864 16
	ldr	r2, [fp, #-88]
	add	r3, r2, r3
	.loc 1 864 15
	ldrsb	r3, [r3]
	.loc 1 864 5
	cmn	r3, #1
	beq	.L885
	.loc 1 865 5
	ldr	r2, [fp, #-88]
	movw	r3, #4068
	movt	r3, 153
	add	r3, r2, r3
	.loc 1 865 41
	mov	r2, #106
	str	r2, [r3]
	.loc 1 866 4
	b	.L846
.L885:
	.loc 1 864 91
	nop
.L850:
.LBB60:
	.loc 1 869 24
	ldr	r2, [fp, #-88]
	movw	r3, #6540
	movt	r3, 154
	add	r3, r2, r3
	.loc 1 869 23
	ldrh	r3, [r3]
	.loc 1 869 14
	str	r3, [fp, #-32]
	.loc 1 869 18
	ldr	r0, [fp, #-32]
	movw	r3, #:lower16:.LC0
	movt	r3, #:upper16:.LC0
	movw	r2, #869
	mov	r1, #8
	bl	fb_ArraySngBoundChk
	str	r0, [fp, #-36]
	.loc 1 869 6
	ldr	r3, [fp, #-36]
	cmp	r3, #0
	beq	.L886
	.loc 1 869 4 discriminator 2
	ldr	r3, [fp, #-36]
	mov	pc, r3	@ indirect register jump
.L886:
	.loc 1 869 21
	nop
.L852:
	.loc 1 869 63
	ldr	r2, [fp, #-32]
	mov	r3, #452
	movt	r3, 17
	mul	r3, r3, r2
	.loc 1 869 75
	add	r3, r3, #412
	add	r3, r3, #3
	.loc 1 869 16
	ldr	r2, [fp, #-88]
	add	r3, r2, r3
	.loc 1 869 15
	ldrh	r3, [r3]
	.loc 1 869 6
	cmp	r3, #0
	beq	.L887
	.loc 1 869 89 discriminator 4
	nop
.L854:
.L855:
.L856:
.LBE60:
.LBE59:
	.loc 1 874 16 discriminator 4
	mvn	r1, #0
	ldr	r0, [fp, #-96]
	bl	fb_StrLen
	str	r0, [fp, #-40]
	.loc 1 874 6 discriminator 4
	ldr	r3, [fp, #-40]
	str	r3, [fp, #-80]
	.loc 1 876 10 discriminator 4
	ldr	r3, [fp, #-80]
	.loc 1 876 4 discriminator 4
	cmp	r3, #0
	beq	.L888
	.loc 1 876 17 discriminator 1
	nop
.L858:
	.loc 1 877 10 discriminator 1
	ldr	r3, [fp, #-80]
	.loc 1 877 4 discriminator 1
	cmp	r3, #32768
	blt	.L889
	.loc 1 877 7 discriminator 2
	movw	r3, #32767
	str	r3, [fp, #-80]
	b	.L860
.L889:
	.loc 1 877 21
	nop
.L860:
.LBB62:
	.loc 1 878 7
	mov	r3, #0
	strh	r3, [fp, #-74]	@ movhi
	.loc 1 878 28
	ldr	r3, [fp, #-80]
	sxth	r3, r3
	sub	r3, r3, #1
	sxth	r3, r3
	.loc 1 878 13
	strh	r3, [fp, #-42]	@ movhi
	.loc 1 878 3
	b	.L861
.L892:
	.loc 1 880 40
	nop
.L862:
.LBB63:
	.loc 1 879 14
	ldr	r3, [fp, #-96]
	ldr	r3, [r3]
	str	r3, [fp, #-60]
	.loc 1 879 18
	movw	r2, #:lower16:.LC0
	movt	r2, #:upper16:.LC0
	movw	r1, #879
	ldr	r0, [fp, #-60]
	bl	fb_NullPtrChk
	str	r0, [fp, #-64]
	.loc 1 879 6
	ldr	r3, [fp, #-64]
	cmp	r3, #0
	beq	.L890
	.loc 1 879 4 discriminator 2
	ldr	r3, [fp, #-64]
	mov	pc, r3	@ indirect register jump
.L890:
	.loc 1 879 21
	nop
.L864:
	.loc 1 879 16
	ldrh	r3, [fp, #-74]
	.loc 1 879 14
	str	r3, [fp, #-68]
	.loc 1 879 18
	ldr	r0, [fp, #-68]
	movw	r3, #:lower16:.LC0
	movt	r3, #:upper16:.LC0
	movw	r2, #879
	movw	r1, #32767
	bl	fb_ArraySngBoundChk
	str	r0, [fp, #-72]
	.loc 1 879 6
	ldr	r3, [fp, #-72]
	cmp	r3, #0
	beq	.L891
	.loc 1 879 4 discriminator 5
	ldr	r3, [fp, #-72]
	mov	pc, r3	@ indirect register jump
.L891:
	.loc 1 879 21
	nop
.L866:
	.loc 1 879 118
	ldrh	r3, [fp, #-74]
	mov	r2, r3
	.loc 1 879 89
	ldr	r3, [fp, #-60]
	add	r3, r3, r2
	.loc 1 879 88
	ldrb	r1, [r3]	@ zero_extendqisi2
	.loc 1 879 52
	ldr	r3, [fp, #-68]
	lsl	r3, r3, #1
	mov	r2, r3
	.loc 1 879 66
	movw	r3, #6520
	movt	r3, 153
	add	r3, r2, r3
	.loc 1 879 5
	ldr	r2, [fp, #-88]
	add	r3, r2, r3
	.loc 1 879 80
	uxth	r2, r1
	.loc 1 879 78
	strh	r2, [r3]	@ movhi
.L867:
.LBE63:
	.loc 1 880 29
	ldrh	r3, [fp, #-74]
	sxth	r3, r3
	add	r3, r3, #1
	sxth	r3, r3
	.loc 1 880 9
	uxth	r3, r3
	.loc 1 880 7
	strh	r3, [fp, #-74]	@ movhi
.L861:
	.loc 1 880 18 discriminator 1
	ldrh	r3, [fp, #-74]
	.loc 1 880 5 discriminator 1
	ldrh	r2, [fp, #-42]
	cmp	r2, r3
	bcs	.L892
	.loc 1 880 3
	nop
.L868:
.LBE62:
	.loc 1 881 12
	ldr	r3, [fp, #-80]
	str	r3, [fp, #-48]
	.loc 1 881 16
	ldr	r0, [fp, #-48]
	movw	r3, #:lower16:.LC0
	movt	r3, #:upper16:.LC0
	movw	r2, #881
	movw	r1, #32767
	bl	fb_ArraySngBoundChk
	str	r0, [fp, #-52]
	.loc 1 881 4
	ldr	r3, [fp, #-52]
	cmp	r3, #0
	beq	.L893
	.loc 1 881 2 discriminator 2
	ldr	r3, [fp, #-52]
	mov	pc, r3	@ indirect register jump
.L893:
	.loc 1 881 19
	nop
.L870:
	.loc 1 881 50
	ldr	r3, [fp, #-48]
	lsl	r3, r3, #1
	mov	r2, r3
	.loc 1 881 64
	movw	r3, #6520
	movt	r3, 153
	add	r3, r2, r3
	.loc 1 881 3
	ldr	r2, [fp, #-88]
	add	r3, r2, r3
	.loc 1 881 76
	mov	r2, #0
	strh	r2, [r3]	@ movhi
	.loc 1 882 42
	ldr	r1, [fp, #-80]
	.loc 1 882 3
	ldr	r2, [fp, #-88]
	movw	r3, #6520
	movt	r3, 154
	add	r3, r2, r3
	.loc 1 882 42
	uxth	r2, r1
	.loc 1 882 40
	strh	r2, [r3]	@ movhi
	.loc 1 883 14
	ldr	r2, [fp, #-88]
	movw	r3, #6520
	movt	r3, 154
	add	r3, r2, r3
	.loc 1 883 13
	ldrh	r3, [r3]
	.loc 1 883 4
	cmp	r3, #0
	beq	.L894
	.loc 1 883 58 discriminator 1
	nop
.L872:
	.loc 1 884 17 discriminator 1
	ldr	r0, [fp, #-88]
	bl	_ZN5XFONT9INTERFACE18BACKENDSTRINGWIDTHEv
	mov	r3, r0
	strh	r3, [fp, #-54]	@ movhi
	.loc 1 884 4 discriminator 1
	ldrh	r3, [fp, #-54]
	cmp	r3, #0
	beq	.L895
	.loc 1 884 26 discriminator 1
	nop
.L874:
	.loc 1 886 2 discriminator 1
	ldrsh	r1, [fp, #4]
	ldrsh	r2, [fp, #-98]
	ldrb	r3, [fp, #8]	@ zero_extendqisi2
	str	r3, [sp]
	vldr.32	s1, [fp, #-108]
	vldr.32	s0, [fp, #-104]
	mov	r3, r1
	ldr	r1, [fp, #-92]
	ldr	r0, [fp, #-88]
	bl	_ZN5XFONT9INTERFACE18BACKEND_DRAWSTRINGEPvssffh
	b	.L846
.L887:
.LBB64:
.LBB61:
	.loc 1 869 5
	nop
	b	.L846
.L888:
.LBE61:
.LBE64:
	.loc 1 876 3
	nop
	b	.L846
.L894:
	.loc 1 883 3
	nop
	b	.L846
.L895:
	.loc 1 884 3
	nop
.L846:
	.loc 1 887 2
	ldr	r0, [fp, #-20]
	bl	fb_ErrorSetFuncName
	.loc 1 887 2
	ldr	r0, [fp, #-12]
	bl	fb_ErrorSetModName
	.loc 1 887 1
	nop
	sub	sp, fp, #4
	.cfi_def_cfa 13, 8
	@ sp needed
	pop	{fp, pc}
	.cfi_endproc
.LFE34:
	.size	_ZN5XFONT9INTERFACE10DRAWSTRINGEPvR8FBSTRINGssffh, .-_ZN5XFONT9INTERFACE10DRAWSTRINGEPvR8FBSTRINGssffh
	.section	.rodata
	.align	2
.LC38:
	.ascii	"BACKEND_DRAWSTRING\000"
	.global	__aeabi_idiv
	.global	__aeabi_uidiv
	.text
	.align	2
	.global	_ZN5XFONT9INTERFACE18BACKEND_DRAWSTRINGEPvssffh
	.syntax unified
	.arm
	.fpu vfp
	.type	_ZN5XFONT9INTERFACE18BACKEND_DRAWSTRINGEPvssffh, %function
_ZN5XFONT9INTERFACE18BACKEND_DRAWSTRINGEPvssffh:
.LFB35:
	.loc 1 892 1
	.cfi_startproc
	@ args = 4, pretend = 0, frame = 216
	@ frame_needed = 1, uses_anonymous_args = 0
	push	{r4, r5, fp, lr}
	.cfi_def_cfa_offset 16
	.cfi_offset 4, -16
	.cfi_offset 5, -12
	.cfi_offset 11, -8
	.cfi_offset 14, -4
	add	fp, sp, #12
	.cfi_def_cfa 11, 4
	sub	sp, sp, #232
	str	r0, [fp, #-208]
	str	r1, [fp, #-212]
	mov	r1, r2
	mov	r2, r3
	vstr.32	s0, [fp, #-220]
	vstr.32	s1, [fp, #-224]
	mov	r3, r1	@ movhi
	strh	r3, [fp, #-214]	@ movhi
	mov	r3, r2	@ movhi
	strh	r3, [fp, #-216]	@ movhi
.L897:
	.loc 1 892 16
	movw	r0, #:lower16:.LC0
	movt	r0, #:upper16:.LC0
	bl	fb_ErrorSetModName
	str	r0, [fp, #-16]
	.loc 1 892 12
	ldr	r3, [fp, #-16]
	str	r3, [fp, #-20]
	.loc 1 892 16
	movw	r0, #:lower16:.LC38
	movt	r0, #:upper16:.LC38
	bl	fb_ErrorSetFuncName
	str	r0, [fp, #-24]
	.loc 1 892 12
	ldr	r3, [fp, #-24]
	str	r3, [fp, #-28]
	mov	r3, #0
	str	r3, [fp, #-168]
	mov	r3, #0
	strb	r3, [fp, #-169]
	mov	r3, #0
	str	r3, [fp, #-176]
	mov	r3, #0
	str	r3, [fp, #-180]
	mov	r3, #0
	str	r3, [fp, #-184]
	mov	r3, #0
	str	r3, [fp, #-188]
	mov	r3, #0
	str	r3, [fp, #-192]
	mov	r3, #0
	str	r3, [fp, #-196]
	mov	r3, #0
	str	r3, [fp, #-200]
	.loc 1 902 14
	ldr	r2, [fp, #-208]
	movw	r3, #6544
	movt	r3, 154
	add	r3, r2, r3
	.loc 1 902 13
	ldrsb	r3, [r3]
	.loc 1 902 4
	cmp	r3, #0
	beq	.L1065
	.loc 1 903 3
	ldr	r3, [fp, #-208]
	movw	r1, #6548
	movt	r1, 154
	add	r1, r3, r1
	ldr	r3, [fp, #-208]
	movw	r2, #6552
	movt	r2, 154
	add	r2, r3, r2
	ldr	r3, [fp, #-208]
	movw	r0, #6556
	movt	r0, 154
	add	r0, r3, r0
	ldr	ip, [fp, #-208]
	movw	r3, #6560
	movt	r3, 154
	add	r3, ip, r3
	str	r3, [sp]
	mov	r3, r0
	mov	r0, #11
	bl	fb_GfxControl_i
	.loc 1 905 31
	ldr	r2, [fp, #-208]
	movw	r3, #6548
	movt	r3, 154
	add	r3, r2, r3
	.loc 1 905 30
	ldr	r3, [r3]
	.loc 1 905 9
	sxth	r2, r3
	.loc 1 905 7
	ldrh	r3, [fp, #-214]	@ movhi
	add	r3, r2, r3
	strh	r3, [fp, #-214]	@ movhi
	.loc 1 906 31
	ldr	r2, [fp, #-208]
	movw	r3, #6552
	movt	r3, 154
	add	r3, r2, r3
	.loc 1 906 30
	ldr	r3, [r3]
	.loc 1 906 9
	sxth	r2, r3
	.loc 1 906 7
	ldrh	r3, [fp, #-216]	@ movhi
	add	r3, r2, r3
	strh	r3, [fp, #-216]	@ movhi
	b	.L900
.L899:
.L1065:
	.loc 1 902 56
	nop
.L900:
	.loc 1 910 4
	ldr	r3, [fp, #-212]
	cmp	r3, #0
	bne	.L1066
.LBB65:
	.loc 1 912 14
	ldr	r2, [fp, #-208]
	movw	r3, #6524
	movt	r3, 154
	add	r3, r2, r3
	str	r3, [fp, #-32]
	.loc 1 913 18
	bl	fb_GfxScreenPtr
	str	r0, [fp, #-36]
	.loc 1 913 5
	ldr	r3, [fp, #-32]
	add	r3, r3, #12
	.loc 1 913 38
	ldr	r2, [fp, #-36]
	str	r2, [r3]
	.loc 1 914 9
	ldr	r3, [fp, #-32]
	add	r3, r3, #12
	.loc 1 914 8
	ldr	r3, [r3]
	.loc 1 914 6
	cmp	r3, #0
	beq	.L1067
	.loc 1 914 57 discriminator 1
	nop
.L904:
	.loc 1 915 22 discriminator 1
	mov	r1, #0
	movw	r0, #:lower16:.LC1
	movt	r0, #:upper16:.LC1
	bl	fb_StrAllocTempDescZEx
	str	r0, [fp, #-40]
	.loc 1 915 14 discriminator 1
	mov	r3, #0
	str	r3, [fp, #-204]
	.loc 1 915 4 discriminator 1
	sub	ip, fp, #188
	sub	r2, fp, #184
	sub	r1, fp, #180
	sub	r0, fp, #176
	ldr	r3, [fp, #-40]
	str	r3, [sp, #8]
	sub	r3, fp, #204
	str	r3, [sp, #4]
	sub	r3, fp, #192
	str	r3, [sp]
	mov	r3, ip
	bl	fb_GfxScreenInfo
	.loc 1 916 25 discriminator 1
	ldr	r3, [fp, #-176]
	sxth	r2, r3
	.loc 1 916 23 discriminator 1
	ldr	r3, [fp, #-32]
	strh	r2, [r3]	@ movhi
	.loc 1 917 39 discriminator 1
	ldr	r2, [fp, #-180]
	.loc 1 917 5 discriminator 1
	ldr	r3, [fp, #-32]
	add	r3, r3, #2
	.loc 1 917 39 discriminator 1
	sxth	r2, r2
	.loc 1 917 37 discriminator 1
	strh	r2, [r3]	@ movhi
	.loc 1 918 39 discriminator 1
	ldr	r2, [fp, #-184]
	.loc 1 918 5 discriminator 1
	ldr	r3, [fp, #-32]
	add	r3, r3, #4
	.loc 1 918 39 discriminator 1
	uxtb	r2, r2
	.loc 1 918 37 discriminator 1
	strb	r2, [r3]
	.loc 1 919 39 discriminator 1
	ldr	r2, [fp, #-188]
	.loc 1 919 5 discriminator 1
	ldr	r3, [fp, #-32]
	add	r3, r3, #5
	.loc 1 919 39 discriminator 1
	uxtb	r2, r2
	.loc 1 919 37 discriminator 1
	strb	r2, [r3]
	.loc 1 920 57 discriminator 1
	ldr	r3, [fp, #-192]
	ldr	r2, [fp, #-188]
	mov	r1, r2
	mov	r0, r3
	bl	__aeabi_idiv
	mov	r3, r0
	mov	r2, r3
	.loc 1 920 5 discriminator 1
	ldr	r3, [fp, #-32]
	add	r3, r3, #8
	.loc 1 920 40 discriminator 1
	uxth	r2, r2
	.loc 1 920 38 discriminator 1
	strh	r2, [r3]	@ movhi
.LBE65:
	.loc 1 922 2 discriminator 1
	b	.L906
.L1066:
	.loc 1 910 30
	nop
.L902:
.LBB66:
	.loc 1 925 17
	ldr	r3, [fp, #-212]
	str	r3, [fp, #-196]
	.loc 1 926 13
	ldr	r3, [fp, #-196]
	str	r3, [fp, #-44]
	.loc 1 926 17
	movw	r2, #:lower16:.LC0
	movt	r2, #:upper16:.LC0
	movw	r1, #926
	ldr	r0, [fp, #-44]
	bl	fb_NullPtrChk
	str	r0, [fp, #-48]
	.loc 1 926 5
	ldr	r3, [fp, #-48]
	cmp	r3, #0
	beq	.L1068
	.loc 1 926 3 discriminator 2
	ldr	r3, [fp, #-48]
	mov	pc, r3	@ indirect register jump
.L1068:
	.loc 1 926 20
	nop
.L908:
	.loc 1 926 7
	ldr	r3, [fp, #-44]
	ldr	r3, [r3]
	.loc 1 926 5
	cmp	r3, #7
	bne	.L1069
.LBB67:
	.loc 1 928 15
	ldr	r2, [fp, #-208]
	movw	r3, #6524
	movt	r3, 154
	add	r3, r2, r3
	str	r3, [fp, #-52]
	.loc 1 929 15
	ldr	r3, [fp, #-196]
	str	r3, [fp, #-56]
	.loc 1 929 19
	movw	r2, #:lower16:.LC0
	movt	r2, #:upper16:.LC0
	movw	r1, #929
	ldr	r0, [fp, #-56]
	bl	fb_NullPtrChk
	str	r0, [fp, #-60]
	.loc 1 929 7
	ldr	r3, [fp, #-60]
	cmp	r3, #0
	beq	.L1070
	.loc 1 929 5 discriminator 2
	ldr	r3, [fp, #-60]
	mov	pc, r3	@ indirect register jump
.L1070:
	.loc 1 929 22
	nop
.L912:
	.loc 1 929 48
	ldr	r3, [fp, #-56]
	add	r3, r3, #4
	.loc 1 929 47
	ldr	r2, [r3]
	.loc 1 929 6
	ldr	r3, [fp, #-52]
	add	r3, r3, #5
	.loc 1 929 40
	uxtb	r2, r2
	.loc 1 929 38
	strb	r2, [r3]
	.loc 1 930 56
	ldr	r3, [fp, #-52]
	add	r3, r3, #5
	.loc 1 930 55
	ldrb	r2, [r3]	@ zero_extendqisi2
	.loc 1 930 6
	ldr	r3, [fp, #-52]
	add	r3, r3, #4
	.loc 1 930 40
	lsl	r2, r2, #3
	uxtb	r2, r2
	.loc 1 930 38
	strb	r2, [r3]
	.loc 1 931 15
	ldr	r3, [fp, #-196]
	str	r3, [fp, #-64]
	.loc 1 931 19
	movw	r2, #:lower16:.LC0
	movt	r2, #:upper16:.LC0
	movw	r1, #931
	ldr	r0, [fp, #-64]
	bl	fb_NullPtrChk
	str	r0, [fp, #-68]
	.loc 1 931 7
	ldr	r3, [fp, #-68]
	cmp	r3, #0
	beq	.L1071
	.loc 1 931 5 discriminator 2
	ldr	r3, [fp, #-68]
	mov	pc, r3	@ indirect register jump
.L1071:
	.loc 1 931 22
	nop
.L914:
	.loc 1 931 34
	ldr	r3, [fp, #-64]
	add	r3, r3, #8
	.loc 1 931 33
	ldr	r3, [r3]
	.loc 1 931 26
	sxth	r2, r3
	.loc 1 931 24
	ldr	r3, [fp, #-52]
	strh	r2, [r3]	@ movhi
	.loc 1 932 15
	ldr	r3, [fp, #-196]
	str	r3, [fp, #-72]
	.loc 1 932 19
	movw	r2, #:lower16:.LC0
	movt	r2, #:upper16:.LC0
	mov	r1, #932
	ldr	r0, [fp, #-72]
	bl	fb_NullPtrChk
	str	r0, [fp, #-76]
	.loc 1 932 7
	ldr	r3, [fp, #-76]
	cmp	r3, #0
	beq	.L1072
	.loc 1 932 5 discriminator 2
	ldr	r3, [fp, #-76]
	mov	pc, r3	@ indirect register jump
.L1072:
	.loc 1 932 22
	nop
.L916:
	.loc 1 932 48
	ldr	r3, [fp, #-72]
	add	r3, r3, #12
	.loc 1 932 47
	ldr	r2, [r3]
	.loc 1 932 6
	ldr	r3, [fp, #-52]
	add	r3, r3, #2
	.loc 1 932 40
	sxth	r2, r2
	.loc 1 932 38
	strh	r2, [r3]	@ movhi
	.loc 1 933 15
	ldr	r3, [fp, #-196]
	str	r3, [fp, #-80]
	.loc 1 933 19
	movw	r2, #:lower16:.LC0
	movt	r2, #:upper16:.LC0
	movw	r1, #933
	ldr	r0, [fp, #-80]
	bl	fb_NullPtrChk
	str	r0, [fp, #-84]
	.loc 1 933 7
	ldr	r3, [fp, #-84]
	cmp	r3, #0
	beq	.L1073
	.loc 1 933 5 discriminator 2
	ldr	r3, [fp, #-84]
	mov	pc, r3	@ indirect register jump
.L1073:
	.loc 1 933 22
	nop
.L918:
	.loc 1 933 51
	ldr	r3, [fp, #-80]
	add	r3, r3, #16
	.loc 1 933 50
	ldr	r2, [r3]
	.loc 1 933 103
	ldr	r3, [fp, #-52]
	add	r3, r3, #5
	.loc 1 933 102
	ldrb	r3, [r3]	@ zero_extendqisi2
	.loc 1 933 85
	mov	r1, r3
	mov	r0, r2
	bl	__aeabi_uidiv
	mov	r3, r0
	mov	r2, r3
	.loc 1 933 6
	ldr	r3, [fp, #-52]
	add	r3, r3, #8
	.loc 1 933 41
	uxth	r2, r2
	.loc 1 933 39
	strh	r2, [r3]	@ movhi
	.loc 1 934 6
	ldr	r3, [fp, #-52]
	add	r3, r3, #12
	.loc 1 934 41
	ldr	r2, [fp, #-212]
	add	r2, r2, #32
	.loc 1 934 39
	str	r2, [r3]
.LBE67:
	.loc 1 936 3
	b	.L906
.L1069:
	.loc 1 926 35
	nop
.L910:
.LBB68:
	.loc 1 938 15
	ldr	r2, [fp, #-208]
	movw	r3, #6524
	movt	r3, 154
	add	r3, r2, r3
	str	r3, [fp, #-88]
	.loc 1 940 15
	ldr	r3, [fp, #-196]
	str	r3, [fp, #-92]
	.loc 1 940 19
	movw	r2, #:lower16:.LC0
	movt	r2, #:upper16:.LC0
	mov	r1, #940
	ldr	r0, [fp, #-92]
	bl	fb_NullPtrChk
	str	r0, [fp, #-96]
	.loc 1 940 7
	ldr	r3, [fp, #-96]
	cmp	r3, #0
	beq	.L1074
	.loc 1 940 5 discriminator 2
	ldr	r3, [fp, #-96]
	mov	pc, r3	@ indirect register jump
.L1074:
	.loc 1 940 22
	nop
.L921:
	.loc 1 940 21
	ldr	r3, [fp, #-92]
	ldr	r3, [r3]
	.loc 1 940 55
	and	r3, r3, #7
	.loc 1 940 18
	str	r3, [fp, #-200]
	.loc 1 941 25
	ldr	r3, [fp, #-200]
	cmp	r3, #0
	movne	r3, #1
	moveq	r3, #0
	uxtb	r3, r3
	.loc 1 941 10
	rsb	r2, r3, #0
	.loc 1 941 49
	ldr	r3, [fp, #-200]
	cmp	r3, #4
	movls	r3, #1
	movhi	r3, #0
	uxtb	r3, r3
	.loc 1 941 34
	rsb	r3, r3, #0
	.loc 1 941 32
	and	r3, r3, r2
	.loc 1 941 7
	cmp	r3, #0
	beq	.L1075
	.loc 1 942 41
	ldr	r2, [fp, #-200]
	.loc 1 942 7
	ldr	r3, [fp, #-88]
	add	r3, r3, #5
	.loc 1 942 41
	uxtb	r2, r2
	.loc 1 942 39
	strb	r2, [r3]
	.loc 1 943 41
	ldr	r3, [fp, #-200]
	uxtb	r2, r3
	.loc 1 943 7
	ldr	r3, [fp, #-88]
	add	r3, r3, #4
	.loc 1 943 41
	lsl	r2, r2, #3
	uxtb	r2, r2
	.loc 1 943 39
	strb	r2, [r3]
	.loc 1 944 5
	nop
.L924:
	.loc 1 950 15
	ldr	r3, [fp, #-196]
	str	r3, [fp, #-100]
	.loc 1 950 19
	movw	r2, #:lower16:.LC0
	movt	r2, #:upper16:.LC0
	movw	r1, #950
	ldr	r0, [fp, #-100]
	bl	fb_NullPtrChk
	str	r0, [fp, #-104]
	.loc 1 950 7
	ldr	r3, [fp, #-104]
	cmp	r3, #0
	bne	.L925
	.loc 1 950 22
	b	.L1033
.L1075:
	.loc 1 941 64
	nop
.L923:
	.loc 1 945 7
	ldr	r2, [fp, #-208]
	movw	r3, #4068
	movt	r3, 153
	add	r3, r2, r3
	.loc 1 945 43
	mov	r2, #106
	str	r2, [r3]
	.loc 1 946 6
	b	.L905
.L925:
	.loc 1 950 5 discriminator 2
	ldr	r3, [fp, #-104]
	mov	pc, r3	@ indirect register jump
.L1033:
.L926:
	.loc 1 950 35 discriminator 3
	ldr	r3, [fp, #-100]
	ldr	r3, [r3]
	.loc 1 950 55 discriminator 3
	lsl	r3, r3, #16
	.loc 1 950 69 discriminator 3
	lsr	r3, r3, #19
	.loc 1 950 26 discriminator 3
	sxth	r2, r3
	.loc 1 950 24 discriminator 3
	ldr	r3, [fp, #-88]
	strh	r2, [r3]	@ movhi
	.loc 1 951 15 discriminator 3
	ldr	r3, [fp, #-196]
	str	r3, [fp, #-108]
	.loc 1 951 20 discriminator 3
	movw	r2, #:lower16:.LC0
	movt	r2, #:upper16:.LC0
	movw	r1, #951
	ldr	r0, [fp, #-108]
	bl	fb_NullPtrChk
	str	r0, [fp, #-112]
	.loc 1 951 7 discriminator 3
	ldr	r3, [fp, #-112]
	cmp	r3, #0
	beq	.L1076
	.loc 1 951 5 discriminator 2
	ldr	r3, [fp, #-112]
	mov	pc, r3	@ indirect register jump
.L1076:
	.loc 1 951 23
	nop
.L928:
	.loc 1 951 48
	ldr	r3, [fp, #-108]
	ldr	r3, [r3]
	.loc 1 951 68
	lsr	r2, r3, #16
	.loc 1 951 6
	ldr	r3, [fp, #-88]
	add	r3, r3, #2
	.loc 1 951 40
	sxth	r2, r2
	.loc 1 951 38
	strh	r2, [r3]	@ movhi
	.loc 1 952 71
	ldr	r2, [fp, #-196]
	.loc 1 952 6
	ldr	r3, [fp, #-88]
	add	r3, r3, #12
	.loc 1 952 41
	add	r2, r2, #16
	.loc 1 952 39
	str	r2, [r3]
	.loc 1 953 6
	ldr	r3, [fp, #-88]
	add	r3, r3, #8
	.loc 1 953 41
	ldr	r2, [fp, #-88]
	ldrh	r2, [r2]
	.loc 1 953 39
	strh	r2, [r3]	@ movhi
.L919:
.L906:
.LBE68:
.LBE66:
	.loc 1 959 17
	ldr	r2, [fp, #-208]
	movw	r3, #6480
	movt	r3, 153
	add	r3, r2, r3
	.loc 1 959 16
	ldrb	r2, [r3]	@ zero_extendqisi2
	.loc 1 959 64
	ldr	r3, [fp, #-208]
	add	r3, r3, #10092544
	add	r3, r3, #6528
	.loc 1 959 63
	ldrb	r3, [r3]	@ zero_extendqisi2
	.loc 1 959 53
	cmp	r2, r3
	movne	r3, #1
	moveq	r3, #0
	uxtb	r3, r3
	.loc 1 959 7
	rsb	r2, r3, #0
	.loc 1 959 111
	ldr	r1, [fp, #-208]
	movw	r3, #6542
	movt	r3, 154
	add	r3, r1, r3
	.loc 1 959 110
	ldrsb	r3, [r3]
	.loc 1 959 101
	orr	r3, r2, r3
	.loc 1 959 4
	cmp	r3, #0
	beq	.L1077
.LBB69:
	.loc 1 961 14
	ldr	r3, [fp, #-208]
	add	r3, r3, #10092544
	add	r3, r3, #4096
	ldrb	r3, [r3, #2432]
	strb	r3, [fp, #-113]
	.loc 1 962 6
	ldrb	r3, [fp, #-113]	@ zero_extendqisi2
	cmp	r3, #24
	beq	.L1078
	.loc 1 962 4
	nop
.L931:
	.loc 1 962 6
	ldrb	r3, [fp, #-113]	@ zero_extendqisi2
	cmp	r3, #32
	bne	.L1079
	.loc 1 962 4
	b	.L932
.L1078:
	.loc 1 962 33
	nop
.L932:
	.loc 1 963 20
	ldr	r2, [fp, #-208]
	movw	r3, #6480
	movt	r3, 153
	add	r3, r2, r3
	.loc 1 963 19
	ldrb	r3, [r3]	@ zero_extendqisi2
	.loc 1 963 56
	cmp	r3, #23
	movls	r3, #1
	movhi	r3, #0
	uxtb	r3, r3
	.loc 1 963 10
	rsb	r2, r3, #0
	.loc 1 963 72
	ldr	r1, [fp, #-208]
	movw	r3, #6542
	movt	r3, 154
	add	r3, r1, r3
	.loc 1 963 71
	ldrsb	r3, [r3]
	.loc 1 963 62
	orr	r3, r2, r3
	.loc 1 963 7
	cmp	r3, #0
	beq	.L1080
	.loc 1 964 6
	ldr	r2, [fp, #-208]
	movw	r3, #6448
	movt	r3, 153
	add	r3, r2, r3
	ldr	r1, [fp, #-208]
	movw	r2, #6376
	movt	r2, 153
	add	r2, r1, r2
	mov	r0, r3
	add	ip, r2, #32
.L936:
	mov	r3, r0
	mov	r1, r2
	ldr	r5, [r1]	@ unaligned
	ldr	r4, [r1, #4]	@ unaligned
	ldr	lr, [r1, #8]	@ unaligned
	ldr	r1, [r1, #12]	@ unaligned
	str	r5, [r3]	@ unaligned
	str	r4, [r3, #4]	@ unaligned
	str	lr, [r3, #8]	@ unaligned
	str	r1, [r3, #12]	@ unaligned
	add	r2, r2, #16
	add	r0, r0, #16
	cmp	r2, ip
	bne	.L936
	mov	r1, r0
	mov	r3, r2
	ldr	r3, [r3]	@ unaligned
	str	r3, [r1]	@ unaligned
	.loc 1 965 6
	ldr	r2, [fp, #-208]
	movw	r3, #6484
	movt	r3, 153
	add	r3, r2, r3
	ldr	r1, [fp, #-208]
	movw	r2, #6412
	movt	r2, 153
	add	r2, r1, r2
	mov	r0, r3
	add	ip, r2, #32
.L937:
	mov	r3, r0
	mov	r1, r2
	ldr	r5, [r1]	@ unaligned
	ldr	r4, [r1, #4]	@ unaligned
	ldr	lr, [r1, #8]	@ unaligned
	ldr	r1, [r1, #12]	@ unaligned
	str	r5, [r3]	@ unaligned
	str	r4, [r3, #4]	@ unaligned
	str	lr, [r3, #8]	@ unaligned
	str	r1, [r3, #12]	@ unaligned
	add	r2, r2, #16
	add	r0, r0, #16
	cmp	r2, ip
	bne	.L937
	mov	r1, r0
	mov	r3, r2
	ldr	r3, [r3]	@ unaligned
	str	r3, [r1]	@ unaligned
	.loc 1 967 4
	b	.L939
.L935:
.L1080:
	.loc 1 963 115
	nop
.L938:
	.loc 1 967 4
	b	.L939
.L1079:
	.loc 1 962 33
	nop
.L933:
	.loc 1 967 6
	ldrb	r3, [fp, #-113]	@ zero_extendqisi2
	cmp	r3, #15
	beq	.L1081
	.loc 1 967 4
	nop
.L940:
	.loc 1 967 6
	ldrb	r3, [fp, #-113]	@ zero_extendqisi2
	cmp	r3, #16
	bne	.L1082
	.loc 1 967 4
	b	.L941
.L1081:
	.loc 1 967 33
	nop
.L941:
.LBB70:
	.loc 1 968 16
	ldr	r2, [fp, #-208]
	movw	r3, #6448
	movt	r3, 153
	add	r3, r2, r3
	str	r3, [fp, #-120]
	.loc 1 969 43
	ldr	r2, [fp, #-208]
	movw	r3, #6376
	movt	r3, 153
	add	r3, r2, r3
	.loc 1 969 79
	ldrb	r3, [r3]	@ zero_extendqisi2
	.loc 1 969 27
	and	r3, r3, #31
	uxtb	r2, r3
	.loc 1 969 25
	ldr	r3, [fp, #-120]
	strb	r2, [r3]
	.loc 1 970 57
	ldr	r2, [fp, #-208]
	movw	r3, #6377
	movt	r3, 153
	add	r3, r2, r3
	.loc 1 970 93
	ldrb	r2, [r3]	@ zero_extendqisi2
	.loc 1 970 7
	ldr	r3, [fp, #-120]
	add	r3, r3, #1
	.loc 1 970 41
	and	r2, r2, #31
	uxtb	r2, r2
	.loc 1 970 39
	strb	r2, [r3]
	.loc 1 971 57
	ldr	r2, [fp, #-208]
	movw	r3, #6378
	movt	r3, 153
	add	r3, r2, r3
	.loc 1 971 93
	ldrb	r2, [r3]	@ zero_extendqisi2
	.loc 1 971 7
	ldr	r3, [fp, #-120]
	add	r3, r3, #2
	.loc 1 971 41
	and	r2, r2, #31
	uxtb	r2, r2
	.loc 1 971 39
	strb	r2, [r3]
	.loc 1 972 57
	ldr	r2, [fp, #-208]
	movw	r3, #6384
	movt	r3, 153
	add	r3, r2, r3
	.loc 1 972 93
	ldrb	r2, [r3]	@ zero_extendqisi2
	.loc 1 972 7
	ldr	r3, [fp, #-120]
	add	r3, r3, #8
	.loc 1 972 41
	and	r2, r2, #31
	uxtb	r2, r2
	.loc 1 972 39
	strb	r2, [r3]
	.loc 1 973 26
	ldr	r3, [fp, #-120]
	add	r3, r3, #8
	.loc 1 973 25
	ldrb	r3, [r3]	@ zero_extendqisi2
	.loc 1 973 16
	str	r3, [fp, #-124]
	.loc 1 973 21
	ldr	r0, [fp, #-124]
	movw	r3, #:lower16:.LC0
	movt	r3, #:upper16:.LC0
	movw	r2, #973
	mov	r1, #31
	bl	fb_ArraySngBoundChk
	str	r0, [fp, #-128]
	.loc 1 973 8
	ldr	r3, [fp, #-128]
	cmp	r3, #0
	beq	.L1083
	.loc 1 973 6 discriminator 2
	ldr	r3, [fp, #-128]
	mov	pc, r3	@ indirect register jump
.L1083:
	.loc 1 973 24
	nop
.L944:
	.loc 1 973 89
	ldr	r3, [fp, #-124]
	lsl	r3, r3, #2
	mov	r2, r3
	.loc 1 973 103
	movw	r3, #5096
	movt	r3, 153
	add	r3, r2, r3
	.loc 1 973 43
	ldr	r2, [fp, #-208]
	add	r2, r2, r3
	.loc 1 973 7
	ldr	r3, [fp, #-120]
	add	r3, r3, #12
	.loc 1 973 42
	ldr	r2, [r2]	@ float
	.loc 1 973 40
	str	r2, [r3]	@ float
	.loc 1 974 26
	ldr	r3, [fp, #-120]
	add	r3, r3, #8
	.loc 1 974 25
	ldrb	r3, [r3]	@ zero_extendqisi2
	.loc 1 974 16
	str	r3, [fp, #-132]
	.loc 1 974 21
	ldr	r0, [fp, #-132]
	movw	r3, #:lower16:.LC0
	movt	r3, #:upper16:.LC0
	movw	r2, #974
	mov	r1, #31
	bl	fb_ArraySngBoundChk
	str	r0, [fp, #-136]
	.loc 1 974 8
	ldr	r3, [fp, #-136]
	cmp	r3, #0
	beq	.L1084
	.loc 1 974 6 discriminator 2
	ldr	r3, [fp, #-136]
	mov	pc, r3	@ indirect register jump
.L1084:
	.loc 1 974 24
	nop
.L946:
	.loc 1 974 89
	ldr	r3, [fp, #-132]
	lsl	r3, r3, #2
	mov	r2, r3
	.loc 1 974 103
	movw	r3, #6248
	movt	r3, 153
	add	r3, r2, r3
	.loc 1 974 43
	ldr	r2, [fp, #-208]
	add	r2, r2, r3
	.loc 1 974 7
	ldr	r3, [fp, #-120]
	add	r3, r3, #16
	.loc 1 974 42
	ldr	r2, [r2]	@ float
	.loc 1 974 40
	str	r2, [r3]	@ float
	.loc 1 975 43
	ldr	r3, [fp, #-120]
	add	r3, r3, #12
	.loc 1 975 42
	vldr.32	s14, [r3]
	.loc 1 975 92
	ldr	r3, [fp, #-120]
	ldrb	r3, [r3]	@ zero_extendqisi2
	.loc 1 975 85
	vmov	s15, r3	@ int
	.loc 1 975 78
	vcvt.f32.s32	s15, s15
	.loc 1 975 7
	ldr	r3, [fp, #-120]
	add	r3, r3, #20
	.loc 1 975 76
	vmul.f32	s15, s14, s15
	.loc 1 975 40
	vstr.32	s15, [r3]
	.loc 1 976 43
	ldr	r3, [fp, #-120]
	add	r3, r3, #12
	.loc 1 976 42
	vldr.32	s14, [r3]
	.loc 1 976 93
	ldr	r3, [fp, #-120]
	add	r3, r3, #1
	.loc 1 976 92
	ldrb	r3, [r3]	@ zero_extendqisi2
	.loc 1 976 85
	vmov	s15, r3	@ int
	.loc 1 976 78
	vcvt.f32.s32	s15, s15
	.loc 1 976 7
	ldr	r3, [fp, #-120]
	add	r3, r3, #24
	.loc 1 976 76
	vmul.f32	s15, s14, s15
	.loc 1 976 40
	vstr.32	s15, [r3]
	.loc 1 977 43
	ldr	r3, [fp, #-120]
	add	r3, r3, #12
	.loc 1 977 42
	vldr.32	s14, [r3]
	.loc 1 977 93
	ldr	r3, [fp, #-120]
	add	r3, r3, #2
	.loc 1 977 92
	ldrb	r3, [r3]	@ zero_extendqisi2
	.loc 1 977 85
	vmov	s15, r3	@ int
	.loc 1 977 78
	vcvt.f32.s32	s15, s15
	.loc 1 977 7
	ldr	r3, [fp, #-120]
	add	r3, r3, #28
	.loc 1 977 76
	vmul.f32	s15, s14, s15
	.loc 1 977 40
	vstr.32	s15, [r3]
	.loc 1 978 22
	ldr	r3, [fp, #-120]
	ldrb	r1, [r3]	@ zero_extendqisi2
	.loc 1 978 95
	ldr	r3, [fp, #-120]
	add	r3, r3, #1
	.loc 1 978 22
	ldrb	r2, [r3]	@ zero_extendqisi2
	.loc 1 978 129
	ldr	r3, [fp, #-120]
	add	r3, r3, #2
	.loc 1 978 22
	ldrb	r3, [r3]	@ zero_extendqisi2
	ldr	r0, [fp, #-208]
	bl	_ZN5XFONT9INTERFACE17BACKEND_RGB16_555Ehhh
	mov	r3, r0
	strh	r3, [fp, #-138]	@ movhi
	.loc 1 978 7
	ldr	r3, [fp, #-120]
	add	r3, r3, #4
	.loc 1 978 42
	ldrh	r2, [fp, #-138]
	.loc 1 978 40
	str	r2, [r3]
.LBE70:
.LBB71:
	.loc 1 980 16
	ldr	r2, [fp, #-208]
	movw	r3, #6484
	movt	r3, 153
	add	r3, r2, r3
	str	r3, [fp, #-144]
	.loc 1 981 43
	ldr	r2, [fp, #-208]
	movw	r3, #6412
	movt	r3, 153
	add	r3, r2, r3
	.loc 1 981 79
	ldrb	r3, [r3]	@ zero_extendqisi2
	.loc 1 981 27
	and	r3, r3, #31
	uxtb	r2, r3
	.loc 1 981 25
	ldr	r3, [fp, #-144]
	strb	r2, [r3]
	.loc 1 982 57
	ldr	r2, [fp, #-208]
	movw	r3, #6413
	movt	r3, 153
	add	r3, r2, r3
	.loc 1 982 93
	ldrb	r2, [r3]	@ zero_extendqisi2
	.loc 1 982 7
	ldr	r3, [fp, #-144]
	add	r3, r3, #1
	.loc 1 982 41
	and	r2, r2, #31
	uxtb	r2, r2
	.loc 1 982 39
	strb	r2, [r3]
	.loc 1 983 57
	ldr	r2, [fp, #-208]
	movw	r3, #6414
	movt	r3, 153
	add	r3, r2, r3
	.loc 1 983 93
	ldrb	r2, [r3]	@ zero_extendqisi2
	.loc 1 983 7
	ldr	r3, [fp, #-144]
	add	r3, r3, #2
	.loc 1 983 41
	and	r2, r2, #31
	uxtb	r2, r2
	.loc 1 983 39
	strb	r2, [r3]
	.loc 1 984 57
	ldr	r2, [fp, #-208]
	movw	r3, #6420
	movt	r3, 153
	add	r3, r2, r3
	.loc 1 984 93
	ldrb	r2, [r3]	@ zero_extendqisi2
	.loc 1 984 7
	ldr	r3, [fp, #-144]
	add	r3, r3, #8
	.loc 1 984 41
	and	r2, r2, #31
	uxtb	r2, r2
	.loc 1 984 39
	strb	r2, [r3]
	.loc 1 985 26
	ldr	r3, [fp, #-144]
	add	r3, r3, #8
	.loc 1 985 25
	ldrb	r3, [r3]	@ zero_extendqisi2
	.loc 1 985 16
	str	r3, [fp, #-148]
	.loc 1 985 21
	ldr	r0, [fp, #-148]
	movw	r3, #:lower16:.LC0
	movt	r3, #:upper16:.LC0
	movw	r2, #985
	mov	r1, #31
	bl	fb_ArraySngBoundChk
	str	r0, [fp, #-152]
	.loc 1 985 8
	ldr	r3, [fp, #-152]
	cmp	r3, #0
	beq	.L1085
	.loc 1 985 6 discriminator 2
	ldr	r3, [fp, #-152]
	mov	pc, r3	@ indirect register jump
.L1085:
	.loc 1 985 24
	nop
.L948:
	.loc 1 985 89
	ldr	r3, [fp, #-148]
	lsl	r3, r3, #2
	mov	r2, r3
	.loc 1 985 103
	movw	r3, #5096
	movt	r3, 153
	add	r3, r2, r3
	.loc 1 985 43
	ldr	r2, [fp, #-208]
	add	r2, r2, r3
	.loc 1 985 7
	ldr	r3, [fp, #-144]
	add	r3, r3, #12
	.loc 1 985 42
	ldr	r2, [r2]	@ float
	.loc 1 985 40
	str	r2, [r3]	@ float
	.loc 1 986 26
	ldr	r3, [fp, #-144]
	add	r3, r3, #8
	.loc 1 986 25
	ldrb	r3, [r3]	@ zero_extendqisi2
	.loc 1 986 16
	str	r3, [fp, #-156]
	.loc 1 986 21
	ldr	r0, [fp, #-156]
	movw	r3, #:lower16:.LC0
	movt	r3, #:upper16:.LC0
	movw	r2, #986
	mov	r1, #31
	bl	fb_ArraySngBoundChk
	str	r0, [fp, #-160]
	.loc 1 986 8
	ldr	r3, [fp, #-160]
