	.arch armv7-a
	.eabi_attribute 28, 1
	.eabi_attribute 19, 1
	.eabi_attribute 20, 1
	.eabi_attribute 21, 1
	.eabi_attribute 23, 3
	.eabi_attribute 24, 1
	.eabi_attribute 25, 1
	.eabi_attribute 26, 2
	.eabi_attribute 30, 2
	.eabi_attribute 34, 1
	.eabi_attribute 18, 4
	.file	"bitmap.c"
	.text
.Ltext0:
	.cfi_sections	.debug_frame
	.section	.rodata.str1.4,"aMS",%progbits,1
	.align	2
.LC0:
	.ascii	"OS2.2/Cpcdos/FBGUI/bitmap.bas\000"
	.align	2
.LC1:
	.ascii	"IMG_CHANGE_SIZE_QUICK\000"
	.text
	.align	2
	.global	IMG_CHANGE_SIZE_QUICK
	.arch armv7-a
	.syntax unified
	.arm
	.fpu vfp
	.type	IMG_CHANGE_SIZE_QUICK, %function
IMG_CHANGE_SIZE_QUICK:
.LVL0:
.LFB0:
	.file 1 "OS2.2/Cpcdos/FBGUI/bitmap.bas"
	.loc 1 4 1 view -0
	.cfi_startproc
	@ args = 16, pretend = 0, frame = 64
	@ frame_needed = 0, uses_anonymous_args = 0
	.loc 1 4 1 is_stmt 0 view .LVU1
	push	{r4, r5, r6, r7, r8, r9, r10, fp, lr}
	.cfi_def_cfa_offset 36
	.cfi_offset 4, -36
	.cfi_offset 5, -32
	.cfi_offset 6, -28
	.cfi_offset 7, -24
	.cfi_offset 8, -20
	.cfi_offset 9, -16
	.cfi_offset 10, -12
	.cfi_offset 11, -8
	.cfi_offset 14, -4
	mov	r7, r0
	.loc 1 4 16 view .LVU2
	movw	r0, #:lower16:.LC0
.LVL1:
	.loc 1 4 16 view .LVU3
	movt	r0, #:upper16:.LC0
	.loc 1 4 1 view .LVU4
	vpush.64	{d8, d9, d10, d11, d12, d13, d14, d15}
	.cfi_def_cfa_offset 100
	.cfi_offset 80, -100
	.cfi_offset 81, -96
	.cfi_offset 82, -92
	.cfi_offset 83, -88
	.cfi_offset 84, -84
	.cfi_offset 85, -80
	.cfi_offset 86, -76
	.cfi_offset 87, -72
	.cfi_offset 88, -68
	.cfi_offset 89, -64
	.cfi_offset 90, -60
	.cfi_offset 91, -56
	.cfi_offset 92, -52
	.cfi_offset 93, -48
	.cfi_offset 94, -44
	.cfi_offset 95, -40
	sub	sp, sp, #100
	.cfi_def_cfa_offset 200
	.loc 1 4 2 is_stmt 1 view .LVU5
	.loc 1 4 2 view .LVU6
	.loc 1 4 2 view .LVU7
	.loc 1 4 2 view .LVU8
.LVL2:
	.loc 1 4 2 view .LVU9
	.loc 1 4 1 is_stmt 0 view .LVU10
	mov	r4, r1
	.loc 1 4 16 view .LVU11
	bl	fb_ErrorSetModName
.LVL3:
	.loc 1 4 16 view .LVU12
	mov	r5, r0
	.loc 1 4 16 view .LVU13
	movw	r0, #:lower16:.LC1
	movt	r0, #:upper16:.LC1
.LVL4:
	.loc 1 4 2 is_stmt 1 view .LVU14
	.loc 1 4 2 view .LVU15
	.loc 1 4 16 is_stmt 0 view .LVU16
	bl	fb_ErrorSetFuncName
.LVL5:
	.loc 1 30 4 view .LVU17
	ldr	r3, [sp, #208]
	ldr	r2, [sp, #200]
	.loc 1 4 16 view .LVU18
	mov	r6, r0
.LVL6:
	.loc 1 4 2 is_stmt 1 view .LVU19
.LDL1:
	.loc 1 4 10 view .LVU20
	.loc 1 16 2 view .LVU21
	.loc 1 16 2 view .LVU22
	.loc 1 17 2 view .LVU23
	.loc 1 17 2 view .LVU24
	.loc 1 19 2 view .LVU25
	.loc 1 19 2 view .LVU26
	.loc 1 20 2 view .LVU27
	.loc 1 20 2 view .LVU28
	.loc 1 21 2 view .LVU29
	.loc 1 21 2 view .LVU30
	.loc 1 22 2 view .LVU31
	.loc 1 22 2 view .LVU32
	.loc 1 23 2 view .LVU33
	.loc 1 23 2 view .LVU34
	.loc 1 24 2 view .LVU35
	.loc 1 24 2 view .LVU36
	.loc 1 25 2 view .LVU37
	.loc 1 25 2 view .LVU38
	.loc 1 26 2 view .LVU39
	.loc 1 26 2 view .LVU40
	.loc 1 30 2 view .LVU41
	.loc 1 30 4 is_stmt 0 view .LVU42
	cmp	r3, r2
	blt	.L2
	.loc 1 30 34 is_stmt 1 discriminator 1 view .LVU43
.LDL2:
	.loc 1 33 10 discriminator 1 view .LVU44
	.loc 1 33 2 discriminator 1 view .LVU45
	.loc 1 33 4 is_stmt 0 discriminator 1 view .LVU46
	bne	.L69
.LVL7:
.L3:
.LDL3:
.LDL4:
.LDL5:
.LDL6:
.LDL7:
.LDL8:
.LDL9:
.LBB2:
	.loc 1 91 14 is_stmt 1 view .LVU47
.LBE2:
	.loc 1 92 12 view .LVU48
	.loc 1 92 12 view .LVU49
	.loc 1 93 11 view .LVU50
	.loc 1 93 11 view .LVU51
	.loc 1 94 2 view .LVU52
	.loc 1 94 16 is_stmt 0 view .LVU53
	ldr	r4, [r4]
.LVL8:
.LDL10:
	.loc 1 97 10 is_stmt 1 view .LVU54
	.loc 1 97 2 view .LVU55
	mov	r0, r6
	bl	fb_ErrorSetFuncName
.LVL9:
	.loc 1 97 2 view .LVU56
	mov	r0, r5
	bl	fb_ErrorSetModName
.LVL10:
	.loc 1 97 2 view .LVU57
	.loc 1 97 1 is_stmt 0 view .LVU58
	mov	r0, r4
	add	sp, sp, #100
	.cfi_remember_state
	.cfi_def_cfa_offset 100
	@ sp needed
	vldm	sp!, {d8-d15}
	.cfi_restore 94
	.cfi_restore 95
	.cfi_restore 92
	.cfi_restore 93
	.cfi_restore 90
	.cfi_restore 91
	.cfi_restore 88
	.cfi_restore 89
	.cfi_restore 86
	.cfi_restore 87
	.cfi_restore 84
	.cfi_restore 85
	.cfi_restore 82
	.cfi_restore 83
	.cfi_restore 80
	.cfi_restore 81
	.cfi_def_cfa_offset 36
	pop	{r4, r5, r6, r7, r8, r9, r10, fp, pc}
.LVL11:
.L2:
	.cfi_restore_state
	.loc 1 97 1 view .LVU59
	vmov	s15, r2	@ int
.LVL12:
	.loc 1 39 10 is_stmt 1 view .LVU60
	.loc 1 40 2 view .LVU61
	.loc 1 40 4 is_stmt 0 view .LVU62
	ldr	r2, [sp, #204]
	.loc 1 52 21 view .LVU63
	vcvt.f64.s32	d8, s15
	.loc 1 52 42 view .LVU64
	vldr.32	s15, [sp, #208]	@ int
	vcvt.f64.s32	d9, s15
	.loc 1 51 21 view .LVU65
	vldr.32	s15, [sp, #204]	@ int
	vcvt.f64.s32	d10, s15
	.loc 1 51 42 view .LVU66
	vldr.32	s15, [sp, #212]	@ int
	.loc 1 40 4 view .LVU67
	vmov	r3, s15	@ int
	.loc 1 51 42 view .LVU68
	vcvt.f64.s32	d15, s15
	.loc 1 52 40 view .LVU69
	vdiv.f64	d7, d8, d9
	.loc 1 40 4 view .LVU70
	cmp	r3, r2
	.loc 1 52 13 view .LVU71
	vcvt.f32.f64	s23, d7
	.loc 1 40 4 view .LVU72
	blt	.L46
	.loc 1 40 34 is_stmt 1 view .LVU73
	.loc 1 43 10 view .LVU74
	.loc 1 43 2 view .LVU75
	.loc 1 43 4 is_stmt 0 view .LVU76
	movne	r9, #0
.LBB9:
	.loc 1 67 16 view .LVU77
	movne	r8, #1
.LBE9:
	.loc 1 43 4 view .LVU78
	beq	.L3
.LVL13:
.L27:
.LBB16:
	.loc 1 73 14 is_stmt 1 discriminator 1 view .LVU79
	.loc 1 73 5 discriminator 1 view .LVU80
	.loc 1 73 7 is_stmt 0 discriminator 1 view .LVU81
	ldr	r3, [sp, #212]
	cmp	r8, r3
	bgt	.L3
	.loc 1 73 34 is_stmt 1 discriminator 2 view .LVU82
.LDL11:
	.loc 1 67 14 discriminator 2 view .LVU83
	.loc 1 68 6 discriminator 2 view .LVU84
.LVL14:
.LBB10:
	.loc 1 69 7 discriminator 2 view .LVU85
	.loc 1 69 7 discriminator 2 view .LVU86
	.loc 1 69 7 discriminator 2 view .LVU87
	.loc 1 69 7 discriminator 2 view .LVU88
	.loc 1 69 7 discriminator 2 view .LVU89
	.loc 1 69 18 is_stmt 0 discriminator 2 view .LVU90
	vmov.f32	s0, s23
.LBE10:
	.loc 1 68 18 discriminator 2 view .LVU91
	mov	fp, #0
.LBB13:
	.loc 1 69 18 discriminator 2 view .LVU92
	bl	nearbyintf
.LVL15:
	.loc 1 69 16 discriminator 2 view .LVU93
	vcvt.s32.f32	s29, s0
.LVL16:
	.loc 1 69 7 is_stmt 1 discriminator 2 view .LVU94
	.loc 1 69 7 discriminator 2 view .LVU95
	.loc 1 69 7 is_stmt 0 discriminator 2 view .LVU96
	ldr	r3, [sp, #200]
	str	r3, [sp, #52]
	.loc 1 69 18 discriminator 2 view .LVU97
	mov	r3, #1
	str	r3, [sp, #32]
	.loc 1 69 29 discriminator 2 view .LVU98
	vmov	r3, s29	@ int
	mvn	r3, r3
	.loc 1 69 16 discriminator 2 view .LVU99
	asr	r3, r3, #31
	str	r3, [sp, #56]
.LVL17:
	.loc 1 69 7 is_stmt 1 discriminator 2 view .LVU100
.L23:
	.loc 1 72 16 discriminator 1 view .LVU101
	.loc 1 72 7 discriminator 1 view .LVU102
	.loc 1 72 9 is_stmt 0 discriminator 1 view .LVU103
	ldr	r3, [sp, #56]
	.loc 1 72 9 discriminator 1 view .LVU104
	ldr	r2, [sp, #52]
	.loc 1 72 9 discriminator 1 view .LVU105
	cmp	r3, #0
	.loc 1 72 9 discriminator 1 view .LVU106
	ldr	r3, [sp, #32]
	.loc 1 72 9 discriminator 1 view .LVU107
	bne	.L70
	.loc 1 72 7 is_stmt 1 discriminator 3 view .LVU108
	.loc 1 72 9 is_stmt 0 discriminator 3 view .LVU109
	cmp	r3, r2
	blt	.L26
.L19:
	.loc 1 69 16 is_stmt 1 view .LVU110
.LBB11:
	.loc 1 70 8 view .LVU111
	.loc 1 70 34 is_stmt 0 view .LVU112
	ldr	r3, [sp, #64]
	add	fp, fp, #1
.LVL18:
	.loc 1 70 34 view .LVU113
	str	r3, [sp, #204]
	ldr	r3, [sp, #212]
	str	r3, [sp, #80]
.LVL19:
.L20:
	.loc 1 71 17 is_stmt 1 view .LVU114
	.loc 1 71 8 view .LVU115
	.loc 1 71 118 is_stmt 0 view .LVU116
	vdiv.f64	d7, d15, d10
	vmov	s13, r8	@ int
	vcvt.f64.s32	d6, s13
	vdiv.f64	d13, d6, d7
	vmov.f64	d0, d13
	bl	nearbyint
.LVL20:
	vmov.f64	d12, d0
	.loc 1 71 209 view .LVU117
	vldr.64	d0, .L75
	vadd.f64	d0, d13, d0
	bl	nearbyint
.LVL21:
	vmov.f64	d7, d0
	.loc 1 71 22 view .LVU118
	ldr	ip, [sp, #32]
	mov	r3, #0
	vmov	s13, r8	@ int
	str	r3, [sp, #28]
	str	r3, [sp, #24]
	mov	r2, #1
	vcvt.s32.f64	s14, d7
	vmov	s15, fp	@ int
	str	r3, [sp, #8]
	vcvt.f32.s32	s1, s13
	vcvt.f32.s32	s0, s15
	vcvt.s32.f64	s15, d12
	vstr.32	s14, [sp, #4]	@ int
	ldr	r1, [r7]
	ldr	r0, [r4]
	vmov	r3, s15	@ int
	str	r2, [sp, #12]
	add	r2, ip, r2
	str	r2, [sp]
	mov	r2, ip
	mvn	ip, #0
	str	ip, [sp, #20]
	movw	ip, #:lower16:fb_hPutPSet
	movt	ip, #:upper16:fb_hPutPSet
	str	ip, [sp, #16]
	bl	fb_GfxPut
.LVL22:
	.loc 1 71 8 is_stmt 1 view .LVU119
	.loc 1 71 10 is_stmt 0 view .LVU120
	cmp	r0, #0
	beq	.L22
	.loc 1 71 8 is_stmt 1 discriminator 2 view .LVU121
	.loc 1 71 22 is_stmt 0 discriminator 2 view .LVU122
	ldr	r3, .L75+8
	movw	r1, #:lower16:.LC0
	movt	r1, #:upper16:.LC0
	ldr	r2, .L75+12
	mov	r0, #71
.LVL23:
	.loc 1 71 22 discriminator 2 view .LVU123
	bl	fb_ErrorThrowAt
.LVL24:
	.loc 1 71 8 is_stmt 1 discriminator 2 view .LVU124
	.loc 1 71 8 is_stmt 0 discriminator 2 view .LVU125
	mov	pc, r0	@ indirect register jump
.LVL25:
.L69:
	.loc 1 71 8 discriminator 2 view .LVU126
.LBE11:
.LBE13:
.LBE16:
	.loc 1 39 10 is_stmt 1 view .LVU127
	.loc 1 40 2 view .LVU128
	.loc 1 52 21 is_stmt 0 view .LVU129
	vmov	s15, r2	@ int
	.loc 1 40 4 view .LVU130
	ldr	r2, [sp, #204]
	.loc 1 52 21 view .LVU131
	vcvt.f64.s32	d8, s15
	.loc 1 52 42 view .LVU132
	vmov	s15, r3	@ int
	vcvt.f64.s32	d9, s15
	.loc 1 51 21 view .LVU133
	vldr.32	s15, [sp, #204]	@ int
	vcvt.f64.s32	d10, s15
	.loc 1 51 42 view .LVU134
	vldr.32	s15, [sp, #212]	@ int
	.loc 1 40 4 view .LVU135
	vmov	r3, s15	@ int
	.loc 1 51 42 view .LVU136
	vcvt.f64.s32	d15, s15
	.loc 1 52 40 view .LVU137
	vdiv.f64	d7, d8, d9
	.loc 1 40 4 view .LVU138
	cmp	r3, r2
	.loc 1 52 13 view .LVU139
	vcvt.f32.f64	s23, d7
	.loc 1 40 4 view .LVU140
	bge	.L71
.LVL26:
	.loc 1 49 10 is_stmt 1 view .LVU141
	.loc 1 51 2 view .LVU142
	.loc 1 52 2 view .LVU143
	.loc 1 53 2 view .LVU144
	.loc 1 53 24 view .LVU145
	.loc 1 75 11 view .LVU146
	.loc 1 75 2 view .LVU147
	.loc 1 85 4 view .LVU148
.LBB17:
	.loc 1 86 5 view .LVU149
	.loc 1 86 5 view .LVU150
	.loc 1 86 5 view .LVU151
	.loc 1 86 5 view .LVU152
	.loc 1 86 5 view .LVU153
.LBE17:
	.loc 1 51 40 is_stmt 0 view .LVU154
	vdiv.f64	d0, d10, d15
	.loc 1 85 16 view .LVU155
	mov	r9, #0
.LBB18:
	.loc 1 86 5 view .LVU156
	mov	fp, r9
	.loc 1 86 16 view .LVU157
	mov	r8, #1
	.loc 1 86 16 view .LVU158
	vcvt.f32.f64	s0, d0
	bl	nearbyintf
.LVL27:
	.loc 1 86 14 view .LVU159
	vcvt.s32.f32	s15, s0
	.loc 1 86 27 view .LVU160
	vmov	r3, s15	@ int
	.loc 1 86 14 view .LVU161
	vstr.32	s15, [sp, #48]	@ int
.LVL28:
	.loc 1 86 5 is_stmt 1 view .LVU162
	.loc 1 86 5 view .LVU163
	.loc 1 86 27 is_stmt 0 view .LVU164
	mvn	r3, r3
.LVL29:
	.loc 1 86 14 view .LVU165
	asr	r3, r3, #31
	str	r3, [sp, #36]
.LVL30:
	.loc 1 86 5 is_stmt 1 view .LVU166
.L36:
	.loc 1 91 14 discriminator 1 view .LVU167
	.loc 1 91 5 discriminator 1 view .LVU168
	.loc 1 91 7 is_stmt 0 discriminator 1 view .LVU169
	cmp	r3, #0
	.loc 1 91 7 discriminator 1 view .LVU170
	ldr	r3, [sp, #204]
	.loc 1 91 7 discriminator 1 view .LVU171
	bne	.L72
	.loc 1 91 5 is_stmt 1 discriminator 3 view .LVU172
	.loc 1 91 7 is_stmt 0 discriminator 3 view .LVU173
	cmp	r8, r3
	blt	.L3
.L37:
	.loc 1 86 14 is_stmt 1 view .LVU174
	.loc 1 87 6 view .LVU175
.LBB3:
	.loc 1 88 7 is_stmt 0 view .LVU176
	ldr	r3, [sp, #208]
.LBE3:
	.loc 1 87 32 view .LVU177
	add	r9, r9, #1
.LVL31:
.LBB6:
	.loc 1 88 7 is_stmt 1 view .LVU178
	.loc 1 88 7 view .LVU179
	.loc 1 88 7 view .LVU180
	.loc 1 88 7 view .LVU181
	str	r3, [sp, #60]
	.loc 1 88 18 is_stmt 0 view .LVU182
	mov	r3, #1
.LVL32:
	.loc 1 88 18 view .LVU183
	str	r3, [sp, #32]
.LVL33:
.L38:
	.loc 1 90 16 is_stmt 1 discriminator 1 view .LVU184
	.loc 1 90 7 discriminator 1 view .LVU185
	.loc 1 90 9 is_stmt 0 discriminator 1 view .LVU186
	ldr	r2, [sp, #60]
	cmp	r3, r2
	ble	.L40
.L43:
.L44:
	.loc 1 90 16 is_stmt 1 discriminator 4 view .LVU187
.LBE6:
	.loc 1 91 14 discriminator 4 view .LVU188
	.loc 1 91 5 discriminator 4 view .LVU189
	.loc 1 91 29 is_stmt 0 discriminator 4 view .LVU190
	ldr	r3, [sp, #48]
	add	r8, r8, r3
.LVL34:
	.loc 1 91 29 discriminator 4 view .LVU191
	ldr	r3, [sp, #36]
	b	.L36
.LVL35:
.L46:
	.loc 1 91 29 discriminator 4 view .LVU192
.LBE18:
	.loc 1 49 10 is_stmt 1 view .LVU193
	.loc 1 51 2 view .LVU194
	.loc 1 52 2 view .LVU195
	.loc 1 53 2 view .LVU196
	.loc 1 56 4 view .LVU197
.LBB19:
	.loc 1 57 5 view .LVU198
	.loc 1 57 5 view .LVU199
	.loc 1 57 5 view .LVU200
	.loc 1 57 5 view .LVU201
	.loc 1 57 5 view .LVU202
.LBE19:
	.loc 1 51 40 is_stmt 0 view .LVU203
	vdiv.f64	d0, d10, d15
	.loc 1 56 16 view .LVU204
	mov	r9, #0
.LBB27:
	.loc 1 57 16 view .LVU205
	mov	r8, #1
	.loc 1 57 15 view .LVU206
	vcvt.f32.f64	s0, d0
	bl	nearbyintf
.LVL36:
	.loc 1 57 13 view .LVU207
	vcvt.s32.f32	s22, s0
.LVL37:
	.loc 1 57 5 is_stmt 1 view .LVU208
	.loc 1 57 5 view .LVU209
	.loc 1 57 25 is_stmt 0 view .LVU210
	vmov	r3, s22	@ int
	mvn	r10, r3
	.loc 1 57 13 view .LVU211
	asr	r10, r10, #31
.LVL38:
	.loc 1 57 5 is_stmt 1 view .LVU212
.L17:
	.loc 1 64 14 discriminator 1 view .LVU213
	.loc 1 64 5 discriminator 1 view .LVU214
	.loc 1 64 7 is_stmt 0 discriminator 1 view .LVU215
	ldr	r3, [sp, #204]
.LVL39:
	.loc 1 64 7 discriminator 1 view .LVU216
	cmp	r10, #0
	bne	.L73
	.loc 1 64 5 is_stmt 1 discriminator 3 view .LVU217
	.loc 1 64 7 is_stmt 0 discriminator 3 view .LVU218
	cmp	r8, r3
	blt	.L3
.L6:
	.loc 1 57 14 is_stmt 1 view .LVU219
	.loc 1 58 6 view .LVU220
.LBB20:
	.loc 1 60 17 is_stmt 0 view .LVU221
	vmov.f32	s0, s23
.LBE20:
	.loc 1 58 32 view .LVU222
	add	r9, r9, #1
.LVL40:
	.loc 1 59 6 is_stmt 1 view .LVU223
.LBB23:
	.loc 1 60 7 view .LVU224
	.loc 1 60 7 view .LVU225
	.loc 1 60 7 view .LVU226
	.loc 1 60 7 view .LVU227
	.loc 1 60 7 view .LVU228
	.loc 1 60 17 is_stmt 0 view .LVU229
	bl	nearbyintf
.LVL41:
	.loc 1 60 15 view .LVU230
	vcvt.s32.f32	s28, s0
.LVL42:
	.loc 1 60 7 is_stmt 1 view .LVU231
	.loc 1 60 7 view .LVU232
	.loc 1 60 7 is_stmt 0 view .LVU233
	ldr	r3, [sp, #200]
.LBE23:
	.loc 1 59 18 view .LVU234
	mov	fp, #0
.LBB24:
	.loc 1 60 7 view .LVU235
	str	r3, [sp, #40]
	.loc 1 60 18 view .LVU236
	mov	r3, #1
	str	r3, [sp, #32]
	.loc 1 60 27 view .LVU237
	vmov	r3, s28	@ int
	mvn	r3, r3
	.loc 1 60 15 view .LVU238
	asr	r3, r3, #31
	str	r3, [sp, #44]
.LVL43:
	.loc 1 60 7 is_stmt 1 view .LVU239
.L7:
	.loc 1 63 16 discriminator 1 view .LVU240
	.loc 1 63 7 discriminator 1 view .LVU241
	.loc 1 63 9 is_stmt 0 discriminator 1 view .LVU242
	ldr	r3, [sp, #44]
	.loc 1 63 9 discriminator 1 view .LVU243
	ldr	r2, [sp, #40]
	.loc 1 63 9 discriminator 1 view .LVU244
	cmp	r3, #0
	.loc 1 63 9 discriminator 1 view .LVU245
	ldr	r3, [sp, #32]
	.loc 1 63 9 discriminator 1 view .LVU246
	bne	.L74
	.loc 1 63 7 is_stmt 1 discriminator 3 view .LVU247
	.loc 1 63 9 is_stmt 0 discriminator 3 view .LVU248
	cmp	r3, r2
	blt	.L16
.L8:
	.loc 1 60 16 is_stmt 1 view .LVU249
.LBB21:
	.loc 1 61 8 view .LVU250
	.loc 1 61 34 is_stmt 0 view .LVU251
	ldr	r3, [sp, #204]
	add	fp, fp, #1
.LVL44:
	.loc 1 61 34 view .LVU252
	str	r3, [sp, #76]
	ldr	r3, [sp, #64]
	str	r3, [sp, #204]
.LVL45:
.L9:
	.loc 1 62 17 is_stmt 1 view .LVU253
	.loc 1 62 8 view .LVU254
	.loc 1 62 22 is_stmt 0 view .LVU255
	vmov	s15, r9	@ int
	mov	r3, #0
	ldr	r2, [sp, #32]
	mvn	ip, #0
	str	r3, [sp, #28]
	vcvt.f32.s32	s1, s15
	str	r3, [sp, #24]
	vmov	s15, fp	@ int
	str	r3, [sp, #8]
	mov	r3, #1
	vcvt.f32.s32	s0, s15
	ldr	r1, [r7]
	ldr	r0, [r4]
	str	r3, [sp, #12]
	add	r3, r8, r3
	str	ip, [sp, #20]
	movw	ip, #:lower16:fb_hPutPSet
	movt	ip, #:upper16:fb_hPutPSet
	str	r3, [sp, #4]
	str	ip, [sp, #16]
	add	r3, r2, #1
	str	r3, [sp]
	mov	r3, r8
	bl	fb_GfxPut
.LVL46:
	.loc 1 62 8 is_stmt 1 view .LVU256
	.loc 1 62 10 is_stmt 0 view .LVU257
	cmp	r0, #0
	beq	.L13
	.loc 1 62 8 is_stmt 1 discriminator 2 view .LVU258
	.loc 1 62 22 is_stmt 0 discriminator 2 view .LVU259
	ldr	r3, .L75+16
	movw	r1, #:lower16:.LC0
	movt	r1, #:upper16:.LC0
	ldr	r2, .L75+20
	mov	r0, #62
.LVL47:
	.loc 1 62 22 discriminator 2 view .LVU260
	bl	fb_ErrorThrowAt
.LVL48:
	.loc 1 62 8 is_stmt 1 discriminator 2 view .LVU261
	.loc 1 62 8 is_stmt 0 discriminator 2 view .LVU262
	mov	pc, r0	@ indirect register jump
.LVL49:
.L71:
	.loc 1 62 8 discriminator 2 view .LVU263
.LBE21:
.LBE24:
.LBE27:
	.loc 1 40 34 is_stmt 1 view .LVU264
	.loc 1 43 10 view .LVU265
	.loc 1 43 2 view .LVU266
	.loc 1 43 4 is_stmt 0 view .LVU267
	beq	.L3
	mov	r9, #0
.LBB28:
	.loc 1 78 16 view .LVU268
	mov	r8, #1
.LBE28:
	.loc 1 43 4 view .LVU269
	mov	fp, r9
.LVL50:
.L35:
.LBB34:
	.loc 1 82 14 is_stmt 1 discriminator 1 view .LVU270
	.loc 1 82 5 discriminator 1 view .LVU271
	.loc 1 82 7 is_stmt 0 discriminator 1 view .LVU272
	ldr	r3, [sp, #212]
	cmp	r8, r3
	bgt	.L3
	ldr	r3, [sp, #208]
	str	r3, [sp, #72]
.LBB29:
	.loc 1 79 18 view .LVU273
	mov	r3, #1
	str	r3, [sp, #32]
.L32:
.LDL12:
.LVL51:
	.loc 1 81 16 is_stmt 1 discriminator 1 view .LVU274
	.loc 1 81 7 discriminator 1 view .LVU275
	.loc 1 81 9 is_stmt 0 discriminator 1 view .LVU276
	ldr	r3, [sp, #32]
	ldr	r2, [sp, #72]
	cmp	r3, r2
	ble	.L47
.L33:
.L34:
	.loc 1 81 16 is_stmt 1 discriminator 4 view .LVU277
.LBE29:
	.loc 1 82 14 discriminator 4 view .LVU278
	.loc 1 82 5 discriminator 4 view .LVU279
	.loc 1 82 29 is_stmt 0 discriminator 4 view .LVU280
	add	r8, r8, #1
.LVL52:
	.loc 1 82 29 discriminator 4 view .LVU281
	b	.L35
.LVL53:
.L73:
	.loc 1 82 29 discriminator 4 view .LVU282
.LBE34:
.LBB35:
	.loc 1 64 24 is_stmt 1 discriminator 2 view .LVU283
.LDL13:
	.loc 1 64 14 discriminator 2 view .LVU284
	.loc 1 64 5 discriminator 2 view .LVU285
	.loc 1 64 7 is_stmt 0 discriminator 2 view .LVU286
	cmp	r8, r3
	ble	.L6
	b	.L3
.LVL54:
.L72:
	.loc 1 64 7 discriminator 2 view .LVU287
.LBE35:
.LBB36:
	.loc 1 91 25 is_stmt 1 discriminator 2 view .LVU288
.LDL14:
	.loc 1 91 14 discriminator 2 view .LVU289
	.loc 1 91 5 discriminator 2 view .LVU290
	.loc 1 91 7 is_stmt 0 discriminator 2 view .LVU291
	cmp	r8, r3
	bgt	.L3
	b	.L37
.L39:
.LVL55:
.L40:
.LBB7:
	.loc 1 88 16 is_stmt 1 discriminator 1 view .LVU292
.LBB4:
	.loc 1 89 17 discriminator 1 view .LVU293
	.loc 1 89 8 discriminator 1 view .LVU294
	.loc 1 89 107 is_stmt 0 discriminator 1 view .LVU295
	vdiv.f64	d7, d9, d8
	vldr.32	s13, [sp, #32]	@ int
	vcvt.f64.s32	d6, s13
	vdiv.f64	d13, d6, d7
	vmov.f64	d0, d13
	bl	nearbyint
.LVL56:
	vmov.f64	d12, d0
	.loc 1 89 194 discriminator 1 view .LVU296
	vldr.64	d0, .L75
	vadd.f64	d0, d13, d0
	bl	nearbyint
.LVL57:
	vmov.f64	d7, d0
	.loc 1 89 23 discriminator 1 view .LVU297
	vldr.32	s13, [sp, #32]	@ int
	mov	r3, #0
	str	r3, [sp, #28]
	mvn	ip, #0
	str	r3, [sp, #24]
	vcvt.s32.f64	s14, d7
	vmov	s15, r9	@ int
	str	r3, [sp, #8]
	vcvt.f32.s32	s0, s13
	vcvt.f32.s32	s1, s15
	vcvt.s32.f64	s15, d12
	mov	r3, #6
	vstr.32	s14, [sp]	@ int
	ldr	r1, [r7]
	ldr	r0, [r4]
	vmov	r2, s15	@ int
	str	r3, [sp, #12]
	add	r3, r8, #1
	str	ip, [sp, #20]
	movw	ip, #:lower16:fb_hPutAlpha
	movt	ip, #:upper16:fb_hPutAlpha
	str	r3, [sp, #4]
	str	ip, [sp, #16]
	mov	r3, r8
	bl	fb_GfxPut
.LVL58:
	.loc 1 89 8 is_stmt 1 discriminator 1 view .LVU298
	.loc 1 89 10 is_stmt 0 discriminator 1 view .LVU299
	cmp	r0, #0
	beq	.L42
	.loc 1 89 8 is_stmt 1 discriminator 2 view .LVU300
	.loc 1 89 23 is_stmt 0 discriminator 2 view .LVU301
	ldr	r3, .L75+24
	movw	r1, #:lower16:.LC0
	movt	r1, #:upper16:.LC0
	ldr	r2, .L75+28
	mov	r0, #89
.LVL59:
	.loc 1 89 23 discriminator 2 view .LVU302
	bl	fb_ErrorThrowAt
.LVL60:
	.loc 1 89 8 is_stmt 1 discriminator 2 view .LVU303
	.loc 1 89 8 is_stmt 0 discriminator 2 view .LVU304
	mov	pc, r0	@ indirect register jump
.L76:
	.align	3
.L75:
	.word	0
	.word	1072693248
	.word	.L21
	.word	.L20
	.word	.L10
	.word	.L9
	.word	.L41
	.word	.L40
.LVL61:
.L47:
	.loc 1 89 8 discriminator 2 view .LVU305
.LBE4:
.LBE7:
.LBE36:
.LBB37:
.LBB32:
	ldr	r3, [sp, #64]
.LVL62:
	.loc 1 89 8 discriminator 2 view .LVU306
	str	r3, [sp, #204]
	ldr	r3, [sp, #212]
	str	r3, [sp, #84]
.L28:
.LVL63:
.L29:
	.loc 1 79 16 is_stmt 1 discriminator 1 view .LVU307
.LBB30:
	.loc 1 80 17 discriminator 1 view .LVU308
	.loc 1 80 8 discriminator 1 view .LVU309
	.loc 1 80 105 is_stmt 0 discriminator 1 view .LVU310
	vdiv.f64	d7, d9, d8
	vldr.32	s13, [sp, #32]	@ int
	.loc 1 80 255 discriminator 1 view .LVU311
	vldr.64	d12, .L77
	.loc 1 80 105 discriminator 1 view .LVU312
	vcvt.f64.s32	d6, s13
	vdiv.f64	d5, d6, d7
	vmov.f64	d0, d5
	vstr.64	d5, [sp, #64]	@ int
	bl	nearbyint
.LVL64:
	.loc 1 80 180 discriminator 1 view .LVU313
	vmov	s15, r8	@ int
	vdiv.f64	d6, d15, d10
	.loc 1 80 105 discriminator 1 view .LVU314
	vmov.f64	d13, d0
	.loc 1 80 180 discriminator 1 view .LVU315
	vcvt.f64.s32	d4, s15
	vdiv.f64	d7, d4, d6
	vmov.f64	d0, d7
	vstr.64	d7, [sp, #88]	@ int
	bl	nearbyint
.LVL65:
	.loc 1 80 255 discriminator 1 view .LVU316
	vldr.64	d5, [sp, #64]	@ int
	.loc 1 80 180 discriminator 1 view .LVU317
	vmov.f64	d6, d0
	.loc 1 80 255 discriminator 1 view .LVU318
	vadd.f64	d0, d5, d12
	.loc 1 80 180 discriminator 1 view .LVU319
	vstr.64	d6, [sp, #64]	@ int
	.loc 1 80 255 discriminator 1 view .LVU320
	bl	nearbyint
.LVL66:
	.loc 1 80 342 discriminator 1 view .LVU321
	vldr.64	d7, [sp, #88]	@ int
	.loc 1 80 255 discriminator 1 view .LVU322
	vmov.f64	d6, d0
	.loc 1 80 342 discriminator 1 view .LVU323
	vadd.f64	d0, d7, d12
	.loc 1 80 255 discriminator 1 view .LVU324
	vmov.f64	d12, d6
	.loc 1 80 342 discriminator 1 view .LVU325
	bl	nearbyint
.LVL67:
	vmov.f64	d7, d0
	.loc 1 80 22 discriminator 1 view .LVU326
	vldr.64	d5, [sp, #64]	@ int
	mov	r3, #0
	str	r3, [sp, #28]
	str	r3, [sp, #24]
	vmov	s13, r8	@ int
	str	r3, [sp, #8]
	vcvt.s32.f64	s24, d12
	vcvt.s32.f64	s14, d7
	vldr.32	s15, [sp, #32]	@ int
	mov	ip, #1
	vcvt.f32.s32	s1, s13
	vcvt.f32.s32	s0, s15
	vcvt.s32.f64	s15, d5
	vstr.32	s24, [sp]	@ int
	vstr.32	s14, [sp, #4]	@ int
	ldr	r1, [r7]
	ldr	r0, [r4]
	vmov	r3, s15	@ int
	vcvt.s32.f64	s15, d13
	str	ip, [sp, #12]
	mvn	ip, #0
	str	ip, [sp, #20]
	movw	ip, #:lower16:fb_hPutPSet
	movt	ip, #:upper16:fb_hPutPSet
	str	ip, [sp, #16]
	vmov	r2, s15	@ int
	bl	fb_GfxPut
.LVL68:
	.loc 1 80 8 is_stmt 1 discriminator 1 view .LVU327
	.loc 1 80 10 is_stmt 0 discriminator 1 view .LVU328
	cmp	r0, #0
	beq	.L31
	.loc 1 80 8 is_stmt 1 discriminator 2 view .LVU329
	.loc 1 80 22 is_stmt 0 discriminator 2 view .LVU330
	ldr	r3, .L77+8
	movw	r1, #:lower16:.LC0
	movt	r1, #:upper16:.LC0
	ldr	r2, .L77+12
	mov	r0, #80
.LVL69:
	.loc 1 80 22 discriminator 2 view .LVU331
	bl	fb_ErrorThrowAt
.LVL70:
	.loc 1 80 8 is_stmt 1 discriminator 2 view .LVU332
	.loc 1 80 8 is_stmt 0 discriminator 2 view .LVU333
	mov	pc, r0	@ indirect register jump
.LVL71:
.L21:
.L22:
	.loc 1 80 8 discriminator 2 view .LVU334
.LBE30:
.LBE32:
.LBE37:
.LBB38:
.LBB14:
.LBB12:
	.loc 1 71 17 is_stmt 1 discriminator 4 view .LVU335
.LBE12:
	.loc 1 72 16 discriminator 4 view .LVU336
	.loc 1 72 7 discriminator 4 view .LVU337
	.loc 1 72 31 is_stmt 0 discriminator 4 view .LVU338
	vmov	r2, s29	@ int
	ldr	r3, [sp, #80]
	str	r3, [sp, #212]
	ldr	r3, [sp, #32]
	add	r3, r3, r2
	str	r3, [sp, #32]
.LVL72:
	.loc 1 72 31 discriminator 4 view .LVU339
	ldr	r3, [sp, #204]
.LVL73:
	.loc 1 72 31 discriminator 4 view .LVU340
	str	r3, [sp, #64]
	b	.L23
.L10:
.L13:
	.loc 1 72 31 discriminator 4 view .LVU341
.LBE14:
.LBE38:
.LBB39:
.LBB25:
.LBB22:
	.loc 1 62 17 is_stmt 1 discriminator 4 view .LVU342
.LBE22:
	.loc 1 63 16 discriminator 4 view .LVU343
	.loc 1 63 7 discriminator 4 view .LVU344
	.loc 1 63 31 is_stmt 0 discriminator 4 view .LVU345
	vmov	r2, s28	@ int
	ldr	r3, [sp, #32]
	add	r3, r3, r2
	str	r3, [sp, #32]
.LVL74:
	.loc 1 63 31 discriminator 4 view .LVU346
	ldr	r3, [sp, #204]
.LVL75:
	.loc 1 63 31 discriminator 4 view .LVU347
	str	r3, [sp, #64]
	ldr	r3, [sp, #76]
	str	r3, [sp, #204]
.LVL76:
	.loc 1 63 31 discriminator 4 view .LVU348
	b	.L7
.LVL77:
.L41:
.L42:
	.loc 1 63 31 discriminator 4 view .LVU349
.LBE25:
.LBE39:
.LBB40:
.LBB8:
.LBB5:
	.loc 1 89 17 is_stmt 1 discriminator 4 view .LVU350
.LBE5:
	.loc 1 90 16 discriminator 4 view .LVU351
	.loc 1 90 7 discriminator 4 view .LVU352
	.loc 1 90 31 is_stmt 0 discriminator 4 view .LVU353
	ldr	r3, [sp, #32]
	add	r3, r3, #1
	str	r3, [sp, #32]
.LVL78:
	.loc 1 90 31 discriminator 4 view .LVU354
	b	.L38
.LVL79:
.L30:
.L31:
	.loc 1 90 31 discriminator 4 view .LVU355
.LBE8:
.LBE40:
.LBB41:
.LBB33:
.LBB31:
	.loc 1 80 17 is_stmt 1 discriminator 4 view .LVU356
.LBE31:
	.loc 1 81 16 discriminator 4 view .LVU357
	.loc 1 81 7 discriminator 4 view .LVU358
	.loc 1 81 31 is_stmt 0 discriminator 4 view .LVU359
	ldr	r3, [sp, #84]
	str	r3, [sp, #212]
	ldr	r3, [sp, #32]
	add	r3, r3, #1
	str	r3, [sp, #32]
.LVL80:
	.loc 1 81 31 discriminator 4 view .LVU360
	ldr	r3, [sp, #204]
.LVL81:
	.loc 1 81 31 discriminator 4 view .LVU361
	str	r3, [sp, #64]
	b	.L32
.LVL82:
.L70:
	.loc 1 81 31 discriminator 4 view .LVU362
.LBE33:
.LBE41:
.LBB42:
.LBB15:
	.loc 1 72 27 is_stmt 1 discriminator 2 view .LVU363
.LDL15:
	.loc 1 72 16 discriminator 2 view .LVU364
	.loc 1 72 7 discriminator 2 view .LVU365
	.loc 1 72 9 is_stmt 0 discriminator 2 view .LVU366
	cmp	r3, r2
	ble	.L19
.L25:
.L26:
	.loc 1 72 16 is_stmt 1 discriminator 10 view .LVU367
.LBE15:
	.loc 1 73 14 discriminator 10 view .LVU368
	.loc 1 73 5 discriminator 10 view .LVU369
	.loc 1 73 29 is_stmt 0 discriminator 10 view .LVU370
	add	r8, r8, #1
.LVL83:
	.loc 1 73 29 discriminator 10 view .LVU371
	b	.L27
.LVL84:
.L74:
	.loc 1 73 29 discriminator 10 view .LVU372
.LBE42:
.LBB43:
.LBB26:
	.loc 1 63 26 is_stmt 1 discriminator 2 view .LVU373
.LDL16:
	.loc 1 63 16 discriminator 2 view .LVU374
	.loc 1 63 7 discriminator 2 view .LVU375
	.loc 1 63 9 is_stmt 0 discriminator 2 view .LVU376
	cmp	r3, r2
	ble	.L8
.L15:
.L16:
	.loc 1 63 16 is_stmt 1 discriminator 10 view .LVU377
.LBE26:
	.loc 1 64 14 discriminator 10 view .LVU378
	.loc 1 64 5 discriminator 10 view .LVU379
	.loc 1 64 29 is_stmt 0 discriminator 10 view .LVU380
	vmov	r3, s22	@ int
.LVL85:
	.loc 1 64 29 discriminator 10 view .LVU381
	add	r8, r8, r3
.LVL86:
	.loc 1 64 29 discriminator 10 view .LVU382
	b	.L17
.L78:
	.align	3
.L77:
	.word	0
	.word	1072693248
	.word	.L30
	.word	.L29
.LBE43:
	.cfi_endproc
.LFE0:
	.size	IMG_CHANGE_SIZE_QUICK, .-IMG_CHANGE_SIZE_QUICK
	.section	.rodata.str1.4
	.align	2
.LC10:
	.ascii	"{MODLEVEL}\000"
	.section	.text.startup,"ax",%progbits
	.align	2
	.syntax unified
	.arm
	.fpu vfp
	.type	fb_ctor__bitmap, %function
fb_ctor__bitmap:
.LFB1:
	.loc 1 1 1 is_stmt 1 view -0
	.cfi_startproc
	@ args = 0, pretend = 0, frame = 0
	@ frame_needed = 0, uses_anonymous_args = 0
.L80:
	.loc 1 1 2 view .LVU384
	.loc 1 1 2 view .LVU385
	.loc 1 1 10 view .LVU386
	.loc 1 1 2 view .LVU387
	.loc 1 1 1 is_stmt 0 view .LVU388
	push	{r4, lr}
	.cfi_def_cfa_offset 8
	.cfi_offset 4, -8
	.cfi_offset 14, -4
	.loc 1 1 16 view .LVU389
	movw	r0, #:lower16:.LC0
	movt	r0, #:upper16:.LC0
	bl	fb_ErrorSetModName
.LVL87:
	mov	r4, r0
	.loc 1 1 16 view .LVU390
	movw	r0, #:lower16:.LC10
	movt	r0, #:upper16:.LC10
.LVL88:
	.loc 1 1 2 is_stmt 1 view .LVU391
	.loc 1 1 2 view .LVU392
	.loc 1 1 16 is_stmt 0 view .LVU393
	bl	fb_ErrorSetFuncName
.LVL89:
	.loc 1 1 2 is_stmt 1 view .LVU394
.LDL17:
	.loc 1 4 10 view .LVU395
	.loc 1 4 2 view .LVU396
	bl	fb_ErrorSetFuncName
.LVL90:
	.loc 1 4 2 view .LVU397
	mov	r0, r4
	.loc 1 4 1 is_stmt 0 view .LVU398
	pop	{r4, lr}
	.cfi_restore 14
	.cfi_restore 4
	.cfi_def_cfa_offset 0
.LVL91:
	.loc 1 4 2 view .LVU399
	b	fb_ErrorSetModName
.LVL92:
	.loc 1 4 2 view .LVU400
	.cfi_endproc
.LFE1:
	.size	fb_ctor__bitmap, .-fb_ctor__bitmap
	.section	.init_array,"aw"
	.align	2
	.word	fb_ctor__bitmap
	.text
.Letext0:
	.file 2 "OS2.2/Cpcdos/FBGUI/bitmap.c"
	.file 3 "<built-in>"
	.section	.note.GNU-stack,"",%progbits
