	.arch armv7-a
	.eabi_attribute 28, 1
	.eabi_attribute 19, 1
	.eabi_attribute 20, 1
	.eabi_attribute 21, 1
	.eabi_attribute 23, 3
	.eabi_attribute 24, 1
	.eabi_attribute 25, 1
	.eabi_attribute 26, 2
	.eabi_attribute 30, 2
	.eabi_attribute 34, 1
	.eabi_attribute 18, 4
	.file	"GUI.c"
	.text
.Ltext0:
	.cfi_sections	.debug_frame
	.section	.rodata.str1.4,"aMS",%progbits,1
	.align	2
.LC0:
	.ascii	"/home/pi/cpcdos/OS2.2/Cpcdos/FBGUI/ElieDraw_ctrl.bi"
	.ascii	"\000"
	.align	2
.LC1:
	.ascii	"\000"
	.text
	.align	2
	.arch armv7-a
	.syntax unified
	.arm
	.fpu vfp
	.type	_ZN8HCONTROLC1Ev, %function
_ZN8HCONTROLC1Ev:
.LVL0:
.LFB51:
	.file 1 "/home/pi/cpcdos/OS2.2/Cpcdos/FBGUI/ElieDraw_ctrl.bi"
	.loc 1 12 1 view -0
	.cfi_startproc
	@ args = 0, pretend = 0, frame = 0
	@ frame_needed = 0, uses_anonymous_args = 0
	.loc 1 12 2 view .LVU1
	.loc 1 12 2 view .LVU2
	.loc 1 12 2 view .LVU3
	.loc 1 12 1 is_stmt 0 view .LVU4
	push	{r4, lr}
	.cfi_def_cfa_offset 8
	.cfi_offset 4, -8
	.cfi_offset 14, -4
	.loc 1 12 1 view .LVU5
	mov	r4, r0
	.loc 1 12 2 view .LVU6
	bl	_ZN10fb_Object$C1Ev
.LVL1:
	.loc 1 12 2 is_stmt 1 view .LVU7
	.loc 1 12 18 is_stmt 0 view .LVU8
	ldr	r2, .L4
	.loc 1 12 2 view .LVU9
	mov	r3, #0
	.loc 1 12 18 view .LVU10
	str	r2, [r4]
	.loc 1 12 17 view .LVU11
	movw	r0, #:lower16:.LC0
	movt	r0, #:upper16:.LC0
	.loc 1 12 2 view .LVU12
	str	r3, [r4, #4]	@ unaligned
	str	r3, [r4, #8]	@ unaligned
	str	r3, [r4, #12]	@ unaligned
	.loc 1 12 2 is_stmt 1 view .LVU13
	str	r3, [r4, #16]	@ unaligned
	.loc 1 12 2 view .LVU14
	str	r3, [r4, #20]	@ unaligned
	.loc 1 12 2 view .LVU15
	str	r3, [r4, #24]	@ unaligned
	.loc 1 12 2 view .LVU16
	str	r3, [r4, #28]	@ unaligned
	.loc 1 12 2 view .LVU17
	str	r3, [r4, #32]	@ unaligned
	.loc 1 12 2 view .LVU18
	str	r3, [r4, #36]	@ unaligned
	.loc 1 12 2 view .LVU19
	str	r3, [r4, #40]	@ unaligned
	.loc 1 12 2 view .LVU20
	str	r3, [r4, #44]	@ unaligned
	.loc 1 12 2 view .LVU21
	str	r3, [r4, #48]	@ unaligned
	.loc 1 12 2 view .LVU22
	str	r3, [r4, #52]	@ unaligned
	.loc 1 12 2 view .LVU23
	str	r3, [r4, #56]	@ unaligned
	str	r3, [r4, #60]	@ unaligned
	str	r3, [r4, #64]	@ unaligned
	.loc 1 12 2 view .LVU24
	.loc 1 12 2 view .LVU25
	.loc 1 12 17 is_stmt 0 view .LVU26
	bl	fb_ErrorSetModName
.LVL2:
	mov	r4, r0
.LVL3:
	.loc 1 12 17 view .LVU27
	movw	r0, #:lower16:.LC1
	movt	r0, #:upper16:.LC1
.LVL4:
	.loc 1 12 2 is_stmt 1 view .LVU28
	.loc 1 12 2 view .LVU29
	.loc 1 12 17 is_stmt 0 view .LVU30
	bl	fb_ErrorSetFuncName
.LVL5:
	.loc 1 12 2 is_stmt 1 view .LVU31
.LDL1:
.LDL2:
	.loc 1 12 10 view .LVU32
	.loc 1 12 10 view .LVU33
	.loc 1 12 2 view .LVU34
	bl	fb_ErrorSetFuncName
.LVL6:
	.loc 1 12 2 view .LVU35
	mov	r0, r4
	.loc 1 12 1 is_stmt 0 view .LVU36
	pop	{r4, lr}
	.cfi_restore 14
	.cfi_restore 4
	.cfi_def_cfa_offset 0
.LVL7:
	.loc 1 12 2 view .LVU37
	b	fb_ErrorSetModName
.LVL8:
.L5:
	.loc 1 12 2 view .LVU38
	.align	2
.L4:
	.word	.LANCHOR0+8
	.cfi_endproc
.LFE51:
	.size	_ZN8HCONTROLC1Ev, .-_ZN8HCONTROLC1Ev
	.section	.rodata.str1.4
	.align	2
.LC2:
	.ascii	"/home/pi/cpcdos/OS2.2/Cpcdos/FBGUI/ElieDraw_picture"
	.ascii	"box.bas\000"
	.align	2
.LC3:
	.ascii	"REDRAW\000"
	.align	2
.LC4:
	.ascii	"cmd.png\000"
	.text
	.align	2
	.global	_ZN11PICTUREBOXH6REDRAWEv
	.syntax unified
	.arm
	.fpu vfp
	.type	_ZN11PICTUREBOXH6REDRAWEv, %function
_ZN11PICTUREBOXH6REDRAWEv:
.LVL9:
.LFB22:
	.file 2 "/home/pi/cpcdos/OS2.2/Cpcdos/FBGUI/ElieDraw_picturebox.bas"
	.loc 2 35 1 is_stmt 1 view -0
	.cfi_startproc
	@ args = 0, pretend = 0, frame = 32
	@ frame_needed = 0, uses_anonymous_args = 0
.L7:
	.loc 2 35 2 view .LVU40
	.loc 2 35 2 view .LVU41
	.loc 2 35 2 view .LVU42
	.loc 2 35 2 view .LVU43
	.loc 2 35 2 view .LVU44
	.loc 2 35 12 view .LVU45
	.loc 2 35 2 view .LVU46
	.loc 2 35 1 is_stmt 0 view .LVU47
	push	{r4, r5, r6, r7, lr}
	.cfi_def_cfa_offset 20
	.cfi_offset 4, -20
	.cfi_offset 5, -16
	.cfi_offset 6, -12
	.cfi_offset 7, -8
	.cfi_offset 14, -4
	mov	r4, r0
	.loc 2 35 16 view .LVU48
	movw	r0, #:lower16:.LC2
.LVL10:
	.loc 2 35 16 view .LVU49
	movt	r0, #:upper16:.LC2
	.loc 2 35 1 view .LVU50
	sub	sp, sp, #68
	.cfi_def_cfa_offset 88
	.loc 2 35 16 view .LVU51
	bl	fb_ErrorSetModName
.LVL11:
	mov	r6, r0
	.loc 2 35 16 view .LVU52
	movw	r0, #:lower16:.LC3
	movt	r0, #:upper16:.LC3
.LVL12:
	.loc 2 35 2 is_stmt 1 view .LVU53
	.loc 2 35 2 view .LVU54
	mov	r5, #0
	.loc 2 35 16 is_stmt 0 view .LVU55
	bl	fb_ErrorSetFuncName
.LVL13:
	.loc 2 40 15 view .LVU56
	str	r5, [sp]
	mov	r3, r5
	mov	r2, r5
	.loc 2 35 16 view .LVU57
	mov	r7, r0
.LVL14:
	.loc 2 35 2 is_stmt 1 view .LVU58
	.loc 2 37 2 view .LVU59
	.loc 2 37 2 view .LVU60
	.loc 2 40 15 is_stmt 0 view .LVU61
	ldr	r1, [r4, #88]
	ldr	r0, [r4, #84]
.LVL15:
	.loc 2 40 15 view .LVU62
	str	r5, [sp, #44]
	.loc 2 38 2 is_stmt 1 view .LVU63
	.loc 2 38 2 view .LVU64
	str	r5, [sp, #48]
	.loc 2 40 2 view .LVU65
	.loc 2 40 15 is_stmt 0 view .LVU66
	bl	fb_GfxImageCreate
.LVL16:
	.loc 2 40 2 is_stmt 1 view .LVU67
	.loc 2 42 20 is_stmt 0 view .LVU68
	mov	r3, #8
	.loc 2 40 13 view .LVU69
	str	r0, [sp, #44]
	.loc 2 42 2 is_stmt 1 view .LVU70
	.loc 2 42 20 is_stmt 0 view .LVU71
	str	r5, [sp]
	mvn	r1, #0
	add	r0, sp, #52
	movw	r2, #:lower16:.LC4
	movt	r2, #:upper16:.LC4
	.loc 2 42 2 view .LVU72
	str	r5, [sp, #52]
	str	r5, [sp, #56]
	str	r5, [sp, #60]
	.loc 2 42 12 view .LVU73
	mov	r5, #128
	str	r5, [sp, #40]
	.loc 2 42 2 is_stmt 1 view .LVU74
	.loc 2 42 12 is_stmt 0 view .LVU75
	str	r5, [sp, #36]
	.loc 2 42 2 is_stmt 1 view .LVU76
	.loc 2 42 2 view .LVU77
	.loc 2 42 20 is_stmt 0 view .LVU78
	bl	fb_StrAssign
.LVL17:
	.loc 2 42 2 is_stmt 1 view .LVU79
	.loc 2 42 16 is_stmt 0 view .LVU80
	add	r3, sp, #36
	mov	r2, #5
	mov	r1, #32
	add	r0, sp, #40
	str	r0, [sp]
	add	r0, sp, #52
	bl	CHARGER_PNG
.LVL18:
	.loc 2 42 2 is_stmt 1 view .LVU81
	.loc 2 42 10 is_stmt 0 view .LVU82
	str	r0, [sp, #48]
	.loc 2 42 2 is_stmt 1 view .LVU83
	add	r0, sp, #52
	bl	fb_StrDelete
.LVL19:
	.loc 2 44 2 view .LVU84
	ldr	r3, [r4, #24]
	str	r5, [sp, #4]
	add	r0, sp, #48
	str	r5, [sp]
	mov	r2, r3
	movw	r5, #:lower16:fb_hPutAlpha
	movt	r5, #:upper16:fb_hPutAlpha
	ldr	r1, [r4, #88]
	str	r1, [sp, #12]
	ldr	r1, [r4, #84]
	str	r1, [sp, #8]
	add	r1, sp, #44
	bl	IMG_CHANGE_SIZE_QUICK
.LVL20:
.L8:
	.loc 2 45 12 view .LVU85
	.loc 2 45 2 view .LVU86
	.loc 2 45 16 is_stmt 0 view .LVU87
	str	r5, [sp, #16]
	mov	r3, #0
	movt	r3, 65535
	str	r3, [sp, #4]
	str	r3, [sp]
	mov	r0, #0
	mov	r2, #6
	mvn	ip, #0
	vldr.32	s15, [r4, #28]	@ int
	ldr	r1, [sp, #44]
	vcvt.f32.s32	s1, s15
	vldr.32	s15, [r4, #24]	@ int
	str	r2, [sp, #12]
	mov	r2, r3
	str	r0, [sp, #28]
	vcvt.f32.s32	s0, s15
	str	r0, [sp, #24]
	str	r0, [sp, #8]
	str	ip, [sp, #20]
	bl	fb_GfxPut
.LVL21:
	.loc 2 45 2 is_stmt 1 view .LVU88
	.loc 2 45 4 is_stmt 0 view .LVU89
	cmp	r0, #0
	bne	.L15
.LVL22:
.L10:
	.loc 2 45 12 is_stmt 1 discriminator 4 view .LVU90
	.loc 2 47 12 discriminator 4 view .LVU91
	.loc 2 47 2 discriminator 4 view .LVU92
	mov	r0, r7
	bl	fb_ErrorSetFuncName
.LVL23:
	.loc 2 47 2 discriminator 4 view .LVU93
	mov	r0, r6
	bl	fb_ErrorSetModName
.LVL24:
	.loc 2 47 1 is_stmt 0 discriminator 4 view .LVU94
	add	sp, sp, #68
	.cfi_remember_state
	.cfi_def_cfa_offset 20
	@ sp needed
	pop	{r4, r5, r6, r7, pc}
.LVL25:
.L15:
	.cfi_restore_state
	.loc 2 45 2 is_stmt 1 discriminator 2 view .LVU95
	.loc 2 45 16 is_stmt 0 discriminator 2 view .LVU96
	ldr	r3, .L16
	movw	r1, #:lower16:.LC2
	movt	r1, #:upper16:.LC2
	ldr	r2, .L16+4
	mov	r0, #45
.LVL26:
	.loc 2 45 16 discriminator 2 view .LVU97
	bl	fb_ErrorThrowAt
.LVL27:
	.loc 2 45 2 is_stmt 1 discriminator 2 view .LVU98
	mov	pc, r0	@ indirect register jump
.L9:
	b	.L10
.L17:
	.align	2
.L16:
	.word	.L9
	.word	.L8
	.cfi_endproc
.LFE22:
	.size	_ZN11PICTUREBOXH6REDRAWEv, .-_ZN11PICTUREBOXH6REDRAWEv
	.section	.rodata.str1.4
	.align	2
.LC7:
	.ascii	"/home/pi/cpcdos/OS2.2/Cpcdos/FBGUI/drawingbox.bi\000"
	.text
	.align	2
	.global	_ZN6CANVAH6REDRAWEv
	.syntax unified
	.arm
	.fpu vfp
	.type	_ZN6CANVAH6REDRAWEv, %function
_ZN6CANVAH6REDRAWEv:
.LVL28:
.LFB30:
	.file 3 "/home/pi/cpcdos/OS2.2/Cpcdos/FBGUI/drawingbox.bi"
	.loc 3 32 1 view -0
	.cfi_startproc
	@ args = 0, pretend = 0, frame = 0
	@ frame_needed = 0, uses_anonymous_args = 0
.L19:
	.loc 3 32 2 view .LVU100
	.loc 3 32 2 view .LVU101
	.loc 3 32 12 view .LVU102
	.loc 3 32 2 view .LVU103
	.loc 3 32 1 is_stmt 0 view .LVU104
	push	{r4, r5, r6, r7, r8, lr}
	.cfi_def_cfa_offset 24
	.cfi_offset 4, -24
	.cfi_offset 5, -20
	.cfi_offset 6, -16
	.cfi_offset 7, -12
	.cfi_offset 8, -8
	.cfi_offset 14, -4
	mov	r4, r0
	.loc 3 32 16 view .LVU105
	movw	r0, #:lower16:.LC7
.LVL29:
	.loc 3 32 16 view .LVU106
	movt	r0, #:upper16:.LC7
	.loc 3 32 1 view .LVU107
	sub	sp, sp, #32
	.cfi_def_cfa_offset 56
	.loc 3 32 16 view .LVU108
	bl	fb_ErrorSetModName
.LVL30:
	mov	r7, r0
	.loc 3 32 16 view .LVU109
	movw	r0, #:lower16:.LC3
	movt	r0, #:upper16:.LC3
.LVL31:
	.loc 3 32 2 is_stmt 1 view .LVU110
	.loc 3 32 2 view .LVU111
	.loc 3 32 16 is_stmt 0 view .LVU112
	bl	fb_ErrorSetFuncName
.LVL32:
	.loc 3 40 15 view .LVU113
	mov	r3, #0
	str	r3, [sp]
	.loc 3 32 16 view .LVU114
	mov	r8, r0
.LVL33:
	.loc 3 32 2 is_stmt 1 view .LVU115
	.loc 3 39 2 view .LVU116
	.loc 3 39 2 view .LVU117
	.loc 3 40 2 view .LVU118
	.loc 3 40 15 is_stmt 0 view .LVU119
	mvn	r2, #1
	movw	r6, #:lower16:fb_hPutPSet
	movt	r6, #:upper16:fb_hPutPSet
	ldrd	r0, [r4, #84]
.LVL34:
	.loc 3 40 15 view .LVU120
	bl	fb_GfxImageCreate
.LVL35:
	mov	r5, r0
.LVL36:
	.loc 3 40 2 is_stmt 1 view .LVU121
.L20:
	.loc 3 42 12 view .LVU122
	.loc 3 42 2 view .LVU123
	.loc 3 42 16 is_stmt 0 view .LVU124
	str	r6, [sp, #16]
	mov	r0, #0
	mov	r3, r0
	mov	r2, #1
	vldr.32	s15, [r4, #28]	@ int
	movt	r3, 65535
	mvn	ip, #0
	mov	r1, r5
	vcvt.f32.s32	s1, s15
	vldr.32	s15, [r4, #24]	@ int
	str	r2, [sp, #12]
	mov	r2, r3
	str	r0, [sp, #28]
	vcvt.f32.s32	s0, s15
	str	r0, [sp, #24]
	str	r0, [sp, #8]
	str	r3, [sp, #4]
	str	r3, [sp]
	str	ip, [sp, #20]
	bl	fb_GfxPut
.LVL37:
	.loc 3 42 2 is_stmt 1 view .LVU125
	.loc 3 42 4 is_stmt 0 view .LVU126
	cmp	r0, #0
	bne	.L27
.LVL38:
.L22:
	.loc 3 42 12 is_stmt 1 discriminator 4 view .LVU127
	.loc 3 45 12 discriminator 4 view .LVU128
	.loc 3 45 2 discriminator 4 view .LVU129
	mov	r0, r8
	bl	fb_ErrorSetFuncName
.LVL39:
	.loc 3 45 2 discriminator 4 view .LVU130
	mov	r0, r7
	.loc 3 45 1 is_stmt 0 discriminator 4 view .LVU131
	add	sp, sp, #32
	.cfi_remember_state
	.cfi_def_cfa_offset 24
	@ sp needed
	pop	{r4, r5, r6, r7, r8, lr}
	.cfi_restore 14
	.cfi_restore 8
	.cfi_restore 7
	.cfi_restore 6
	.cfi_restore 5
	.cfi_restore 4
	.cfi_def_cfa_offset 0
.LVL40:
	.loc 3 45 2 discriminator 4 view .LVU132
	b	fb_ErrorSetModName
.LVL41:
.L27:
	.cfi_restore_state
	.loc 3 42 2 is_stmt 1 discriminator 2 view .LVU133
	.loc 3 42 16 is_stmt 0 discriminator 2 view .LVU134
	ldr	r3, .L28
	movw	r1, #:lower16:.LC7
	movt	r1, #:upper16:.LC7
	ldr	r2, .L28+4
	mov	r0, #42
.LVL42:
	.loc 3 42 16 discriminator 2 view .LVU135
	bl	fb_ErrorThrowAt
.LVL43:
	.loc 3 42 2 is_stmt 1 discriminator 2 view .LVU136
	mov	pc, r0	@ indirect register jump
.L21:
	b	.L22
.L29:
	.align	2
.L28:
	.word	.L21
	.word	.L20
	.cfi_endproc
.LFE30:
	.size	_ZN6CANVAH6REDRAWEv, .-_ZN6CANVAH6REDRAWEv
	.section	.rodata.str1.4
	.align	2
.LC10:
	.ascii	"/home/pi/cpcdos/OS2.2/Cpcdos/FBGUI/button_obj.bi\000"
	.text
	.align	2
	.global	_ZN7BUTTONH6REDRAWEv
	.syntax unified
	.arm
	.fpu vfp
	.type	_ZN7BUTTONH6REDRAWEv, %function
_ZN7BUTTONH6REDRAWEv:
.LVL44:
.LFB34:
	.file 4 "/home/pi/cpcdos/OS2.2/Cpcdos/FBGUI/button_obj.bi"
	.loc 4 32 1 view -0
	.cfi_startproc
	@ args = 0, pretend = 0, frame = 0
	@ frame_needed = 0, uses_anonymous_args = 0
.L31:
	.loc 4 32 2 view .LVU138
	.loc 4 32 2 view .LVU139
	.loc 4 32 12 view .LVU140
	.loc 4 32 2 view .LVU141
	.loc 4 32 1 is_stmt 0 view .LVU142
	push	{r4, r5, r6, r7, r8, lr}
	.cfi_def_cfa_offset 24
	.cfi_offset 4, -24
	.cfi_offset 5, -20
	.cfi_offset 6, -16
	.cfi_offset 7, -12
	.cfi_offset 8, -8
	.cfi_offset 14, -4
	mov	r4, r0
	.loc 4 32 16 view .LVU143
	movw	r0, #:lower16:.LC10
.LVL45:
	.loc 4 32 16 view .LVU144
	movt	r0, #:upper16:.LC10
	.loc 4 32 1 view .LVU145
	sub	sp, sp, #32
	.cfi_def_cfa_offset 56
	.loc 4 32 16 view .LVU146
	bl	fb_ErrorSetModName
.LVL46:
	mov	r7, r0
	.loc 4 32 16 view .LVU147
	movw	r0, #:lower16:.LC3
	movt	r0, #:upper16:.LC3
.LVL47:
	.loc 4 32 2 is_stmt 1 view .LVU148
	.loc 4 32 2 view .LVU149
	.loc 4 32 16 is_stmt 0 view .LVU150
	bl	fb_ErrorSetFuncName
.LVL48:
	.loc 4 40 15 view .LVU151
	mov	r3, #0
	str	r3, [sp]
	.loc 4 32 16 view .LVU152
	mov	r8, r0
.LVL49:
	.loc 4 32 2 is_stmt 1 view .LVU153
	.loc 4 39 2 view .LVU154
	.loc 4 39 2 view .LVU155
	.loc 4 40 2 view .LVU156
	.loc 4 40 15 is_stmt 0 view .LVU157
	mvn	r2, #1
	movw	r6, #:lower16:fb_hPutPSet
	movt	r6, #:upper16:fb_hPutPSet
	ldrd	r0, [r4, #84]
.LVL50:
	.loc 4 40 15 view .LVU158
	bl	fb_GfxImageCreate
.LVL51:
	mov	r5, r0
.LVL52:
	.loc 4 40 2 is_stmt 1 view .LVU159
.L32:
	.loc 4 42 12 view .LVU160
	.loc 4 42 2 view .LVU161
	.loc 4 42 16 is_stmt 0 view .LVU162
	str	r6, [sp, #16]
	mov	r0, #0
	mov	r3, r0
	mov	r2, #1
	vldr.32	s15, [r4, #28]	@ int
	movt	r3, 65535
	mvn	ip, #0
	mov	r1, r5
	vcvt.f32.s32	s1, s15
	vldr.32	s15, [r4, #24]	@ int
	str	r2, [sp, #12]
	mov	r2, r3
	str	r0, [sp, #28]
	vcvt.f32.s32	s0, s15
	str	r0, [sp, #24]
	str	r0, [sp, #8]
	str	r3, [sp, #4]
	str	r3, [sp]
	str	ip, [sp, #20]
	bl	fb_GfxPut
.LVL53:
	.loc 4 42 2 is_stmt 1 view .LVU163
	.loc 4 42 4 is_stmt 0 view .LVU164
	cmp	r0, #0
	bne	.L39
.LVL54:
.L34:
	.loc 4 42 12 is_stmt 1 discriminator 4 view .LVU165
	.loc 4 45 12 discriminator 4 view .LVU166
	.loc 4 45 2 discriminator 4 view .LVU167
	mov	r0, r8
	bl	fb_ErrorSetFuncName
.LVL55:
	.loc 4 45 2 discriminator 4 view .LVU168
	mov	r0, r7
	.loc 4 45 1 is_stmt 0 discriminator 4 view .LVU169
	add	sp, sp, #32
	.cfi_remember_state
	.cfi_def_cfa_offset 24
	@ sp needed
	pop	{r4, r5, r6, r7, r8, lr}
	.cfi_restore 14
	.cfi_restore 8
	.cfi_restore 7
	.cfi_restore 6
	.cfi_restore 5
	.cfi_restore 4
	.cfi_def_cfa_offset 0
.LVL56:
	.loc 4 45 2 discriminator 4 view .LVU170
	b	fb_ErrorSetModName
.LVL57:
.L39:
	.cfi_restore_state
	.loc 4 42 2 is_stmt 1 discriminator 2 view .LVU171
	.loc 4 42 16 is_stmt 0 discriminator 2 view .LVU172
	ldr	r3, .L40
	movw	r1, #:lower16:.LC10
	movt	r1, #:upper16:.LC10
	ldr	r2, .L40+4
	mov	r0, #42
.LVL58:
	.loc 4 42 16 discriminator 2 view .LVU173
	bl	fb_ErrorThrowAt
.LVL59:
	.loc 4 42 2 is_stmt 1 discriminator 2 view .LVU174
	mov	pc, r0	@ indirect register jump
.L33:
	b	.L34
.L41:
	.align	2
.L40:
	.word	.L33
	.word	.L32
	.cfi_endproc
.LFE34:
	.size	_ZN7BUTTONH6REDRAWEv, .-_ZN7BUTTONH6REDRAWEv
	.section	.rodata.str1.4
	.align	2
.LC13:
	.ascii	"/home/pi/cpcdos/OS2.2/Cpcdos/FBGUI/ElieDraw_Win.bas"
	.ascii	"\000"
	.align	2
.LC14:
	.ascii	"bahns.xf\000"
	.align	2
.LC15:
	.ascii	"OS/MEDIA/GUI/WIN/WIN_TL.png\000"
	.align	2
.LC16:
	.ascii	"OS/MEDIA/GUI/WIN/WIN_TR.png\000"
	.align	2
.LC17:
	.ascii	"OS/MEDIA/GUI/WIN/WIN_TM.png\000"
	.align	2
.LC18:
	.ascii	"ERROR\000"
	.align	2
.LC29:
	.ascii	"OS/MEDIA/GUI/WIN/B_CLOSE.png\000"
	.text
	.align	2
	.global	_ZN9CPCWINDOW6REDRAWEv
	.syntax unified
	.arm
	.fpu vfp
	.type	_ZN9CPCWINDOW6REDRAWEv, %function
_ZN9CPCWINDOW6REDRAWEv:
.LVL60:
.LFB9:
	.file 5 "/home/pi/cpcdos/OS2.2/Cpcdos/FBGUI/ElieDraw_Win.bas"
	.loc 5 186 1 view -0
	.cfi_startproc
	@ args = 0, pretend = 0, frame = 128
	@ frame_needed = 0, uses_anonymous_args = 0
.L43:
	.loc 5 186 2 view .LVU176
	.loc 5 186 2 view .LVU177
	.loc 5 186 2 view .LVU178
	.loc 5 186 2 view .LVU179
	.loc 5 186 2 view .LVU180
	.loc 5 186 2 view .LVU181
	.loc 5 186 2 view .LVU182
	.loc 5 186 2 view .LVU183
	.loc 5 186 2 view .LVU184
	.loc 5 186 2 view .LVU185
	.loc 5 186 2 view .LVU186
	.loc 5 186 2 view .LVU187
	.loc 5 186 2 view .LVU188
	.loc 5 186 2 view .LVU189
	.loc 5 186 2 view .LVU190
	.loc 5 186 11 view .LVU191
	.loc 5 186 2 view .LVU192
	.loc 5 186 1 is_stmt 0 view .LVU193
	push	{r4, r5, r6, r7, r8, r9, r10, fp, lr}
	.cfi_def_cfa_offset 36
	.cfi_offset 4, -36
	.cfi_offset 5, -32
	.cfi_offset 6, -28
	.cfi_offset 7, -24
	.cfi_offset 8, -20
	.cfi_offset 9, -16
	.cfi_offset 10, -12
	.cfi_offset 11, -8
	.cfi_offset 14, -4
	mov	r5, r0
	.loc 5 186 16 view .LVU194
	movw	r0, #:lower16:.LC13
.LVL61:
	.loc 5 186 16 view .LVU195
	movt	r0, #:upper16:.LC13
	.loc 5 186 1 view .LVU196
	sub	sp, sp, #164
	.cfi_def_cfa_offset 200
	.loc 5 186 16 view .LVU197
	bl	fb_ErrorSetModName
.LVL62:
	mov	r9, r0
	.loc 5 186 16 view .LVU198
	movw	r0, #:lower16:.LC3
	movt	r0, #:upper16:.LC3
	.loc 5 192 2 view .LVU199
	mov	r4, #0
.LVL63:
	.loc 5 186 2 is_stmt 1 view .LVU200
	.loc 5 186 2 view .LVU201
	.loc 5 186 16 is_stmt 0 view .LVU202
	bl	fb_ErrorSetFuncName
.LVL64:
	.loc 5 192 19 view .LVU203
	mov	r3, #9
	mvn	r1, #0
	.loc 5 186 16 view .LVU204
	mov	r10, r0
.LVL65:
	.loc 5 186 2 is_stmt 1 view .LVU205
	.loc 5 188 2 view .LVU206
	.loc 5 189 2 view .LVU207
	.loc 5 192 2 view .LVU208
	.loc 5 192 19 is_stmt 0 view .LVU209
	str	r4, [sp]
	add	r0, sp, #88
	movw	r2, #:lower16:.LC14
	movt	r2, #:upper16:.LC14
	.loc 5 192 2 view .LVU210
	str	r4, [sp, #88]
	str	r4, [sp, #92]
	.loc 5 205 11 view .LVU211
	mov	r7, #7
	.loc 5 192 2 view .LVU212
	str	r4, [sp, #96]
	.loc 5 192 2 is_stmt 1 view .LVU213
	.loc 5 192 19 is_stmt 0 view .LVU214
	bl	fb_StrAssign
.LVL66:
	.loc 5 192 2 is_stmt 1 view .LVU215
	mov	r2, #1
	add	r1, sp, #88
	movw	r0, #:lower16:FONT1$
	movt	r0, #:upper16:FONT1$
	bl	_ZN5XFONT9INTERFACE8LOADFONTER8FBSTRINGh
.LVL67:
	.loc 5 192 2 view .LVU216
	add	r0, sp, #88
	bl	fb_StrDelete
.LVL68:
	.loc 5 193 2 view .LVU217
	.loc 5 193 2 view .LVU218
	.loc 5 194 2 view .LVU219
	.loc 5 194 2 view .LVU220
	.loc 5 195 2 view .LVU221
	.loc 5 195 2 view .LVU222
	.loc 5 196 2 view .LVU223
	.loc 5 196 2 view .LVU224
	.loc 5 205 20 is_stmt 0 view .LVU225
	mov	r3, #28
	mvn	r1, #0
	add	r0, sp, #100
	str	r4, [sp]
	movw	r2, #:lower16:.LC15
	movt	r2, #:upper16:.LC15
	str	r4, [sp, #64]
	.loc 5 197 2 is_stmt 1 view .LVU226
	.loc 5 197 2 view .LVU227
	str	r4, [sp, #68]
	.loc 5 198 2 view .LVU228
	.loc 5 198 2 view .LVU229
	str	r4, [sp, #72]
	.loc 5 199 2 view .LVU230
	.loc 5 199 2 view .LVU231
	str	r4, [sp, #76]
	.loc 5 201 2 view .LVU232
	.loc 5 201 2 view .LVU233
.LVL69:
	.loc 5 205 2 view .LVU234
	.loc 5 205 2 is_stmt 0 view .LVU235
	str	r4, [sp, #100]
	str	r4, [sp, #104]
	str	r4, [sp, #108]
	.loc 5 205 11 view .LVU236
	str	r7, [sp, #36]
	.loc 5 205 2 is_stmt 1 view .LVU237
	.loc 5 205 11 is_stmt 0 view .LVU238
	str	r7, [sp, #32]
	.loc 5 205 2 is_stmt 1 view .LVU239
	.loc 5 205 2 view .LVU240
	.loc 5 205 20 is_stmt 0 view .LVU241
	bl	fb_StrAssign
.LVL70:
	.loc 5 205 2 is_stmt 1 view .LVU242
	.loc 5 205 16 is_stmt 0 view .LVU243
	add	r3, sp, #32
	mov	r2, #5
	mov	r1, #32
	add	r0, sp, #36
	str	r0, [sp]
	add	r0, sp, #100
	bl	CHARGER_PNG
.LVL71:
	mov	r6, r0
	.loc 5 205 2 view .LVU244
	add	r0, sp, #100
.LVL72:
	.loc 5 205 2 is_stmt 1 view .LVU245
	.loc 5 205 2 view .LVU246
	bl	fb_StrDelete
.LVL73:
	.loc 5 206 2 view .LVU247
	.loc 5 206 20 is_stmt 0 view .LVU248
	mov	r3, #28
	mvn	r1, #0
	add	r0, sp, #112
	str	r4, [sp]
	movw	r2, #:lower16:.LC16
	movt	r2, #:upper16:.LC16
	.loc 5 206 11 view .LVU249
	str	r7, [sp, #44]
	.loc 5 206 2 is_stmt 1 view .LVU250
	.loc 5 206 11 is_stmt 0 view .LVU251
	str	r7, [sp, #40]
	.loc 5 206 2 is_stmt 1 view .LVU252
	str	r4, [sp, #112]
	str	r4, [sp, #116]
	str	r4, [sp, #120]
	.loc 5 206 2 view .LVU253
	.loc 5 206 20 is_stmt 0 view .LVU254
	bl	fb_StrAssign
.LVL74:
	.loc 5 206 2 is_stmt 1 view .LVU255
	.loc 5 206 16 is_stmt 0 view .LVU256
	add	r3, sp, #40
	mov	r2, #5
	mov	r1, #32
	add	r0, sp, #44
	str	r0, [sp]
	add	r0, sp, #112
	bl	CHARGER_PNG
.LVL75:
	mov	r8, r0
	.loc 5 206 2 view .LVU257
	add	r0, sp, #112
.LVL76:
	.loc 5 206 2 is_stmt 1 view .LVU258
	.loc 5 206 2 view .LVU259
	bl	fb_StrDelete
.LVL77:
	.loc 5 207 2 view .LVU260
	.loc 5 207 20 is_stmt 0 view .LVU261
	mov	r3, #28
	mvn	r1, #0
	add	r0, sp, #124
	str	r4, [sp]
	movw	r2, #:lower16:.LC17
	movt	r2, #:upper16:.LC17
	.loc 5 207 11 view .LVU262
	mov	ip, #8
	.loc 5 207 2 view .LVU263
	str	r4, [sp, #124]
	.loc 5 207 11 view .LVU264
	str	ip, [sp, #52]
	.loc 5 207 2 is_stmt 1 view .LVU265
	.loc 5 207 11 is_stmt 0 view .LVU266
	mov	ip, #4
	.loc 5 207 2 view .LVU267
	str	r4, [sp, #128]
	.loc 5 207 11 view .LVU268
	str	ip, [sp, #48]
	.loc 5 207 2 is_stmt 1 view .LVU269
	.loc 5 207 2 view .LVU270
	.loc 5 207 2 is_stmt 0 view .LVU271
	str	r4, [sp, #132]
	.loc 5 207 20 view .LVU272
	bl	fb_StrAssign
.LVL78:
	.loc 5 207 2 is_stmt 1 view .LVU273
	.loc 5 207 16 is_stmt 0 view .LVU274
	add	r3, sp, #48
	mov	r2, #5
	mov	r1, #32
	add	r0, sp, #52
	str	r0, [sp]
	add	r0, sp, #124
	bl	CHARGER_PNG
.LVL79:
	.loc 5 207 2 is_stmt 1 view .LVU275
	.loc 5 207 19 is_stmt 0 view .LVU276
	str	r0, [sp, #64]
	.loc 5 207 2 is_stmt 1 view .LVU277
	add	r0, sp, #124
	bl	fb_StrDelete
.LVL80:
	.loc 5 209 2 view .LVU278
	.loc 5 209 4 is_stmt 0 view .LVU279
	cmp	r6, r4
	beq	.L90
.L44:
.L45:
	.loc 5 211 11 is_stmt 1 discriminator 1 view .LVU280
	.loc 5 211 11 discriminator 1 view .LVU281
	.loc 5 213 2 discriminator 1 view .LVU282
	.loc 5 213 2 is_stmt 0 discriminator 1 view .LVU283
	mov	r4, #0
	.loc 5 213 20 discriminator 1 view .LVU284
	mov	r3, #28
	mvn	r1, #0
	add	r0, sp, #136
	str	r4, [sp]
	movw	r2, #:lower16:.LC17
	movt	r2, #:upper16:.LC17
	.loc 5 213 11 discriminator 1 view .LVU285
	mov	r7, #4
	.loc 5 213 11 discriminator 1 view .LVU286
	mov	fp, #8
	.loc 5 213 11 discriminator 1 view .LVU287
	str	r7, [sp, #56]
	.loc 5 213 2 discriminator 1 view .LVU288
	str	r4, [sp, #136]
	str	r4, [sp, #140]
	str	r4, [sp, #144]
	.loc 5 213 11 discriminator 1 view .LVU289
	str	fp, [sp, #60]
	.loc 5 213 2 is_stmt 1 discriminator 1 view .LVU290
	.loc 5 213 2 discriminator 1 view .LVU291
	.loc 5 213 2 discriminator 1 view .LVU292
	.loc 5 213 20 is_stmt 0 discriminator 1 view .LVU293
	bl	fb_StrAssign
.LVL81:
	.loc 5 213 2 is_stmt 1 discriminator 1 view .LVU294
	.loc 5 213 16 is_stmt 0 discriminator 1 view .LVU295
	add	r3, sp, #56
	mov	r2, #5
	mov	r1, #32
	add	r0, sp, #60
	str	r0, [sp]
	add	r0, sp, #136
	bl	CHARGER_PNG
.LVL82:
	.loc 5 213 2 is_stmt 1 discriminator 1 view .LVU296
	.loc 5 213 18 is_stmt 0 discriminator 1 view .LVU297
	str	r0, [sp, #68]
	.loc 5 213 2 is_stmt 1 discriminator 1 view .LVU298
	add	r0, sp, #136
	bl	fb_StrDelete
.LVL83:
	.loc 5 215 2 discriminator 1 view .LVU299
	.loc 5 215 16 is_stmt 0 discriminator 1 view .LVU300
	str	r4, [sp]
	mov	r3, r4
	mov	r2, r4
	ldr	r0, [r5, #32]
	mov	r1, #19
	add	r0, r0, #2
	bl	fb_GfxImageCreate
.LVL84:
	.loc 5 215 2 is_stmt 1 discriminator 1 view .LVU301
	.loc 5 216 2 is_stmt 0 discriminator 1 view .LVU302
	stm	sp, {r7, fp}
	add	r1, sp, #76
	.loc 5 215 19 discriminator 1 view .LVU303
	str	r0, [sp, #76]
	.loc 5 216 2 is_stmt 1 discriminator 1 view .LVU304
	ldr	r3, [r5, #24]
	mov	r0, #19
.LVL85:
	.loc 5 216 2 is_stmt 0 discriminator 1 view .LVU305
	ldr	r2, [r5, #32]
	str	r0, [sp, #12]
	add	r0, sp, #68
	add	r2, r2, #2
	str	r2, [sp, #8]
	mov	r2, r3
	bl	IMG_CHANGE_SIZE_QUICK
.LVL86:
	.loc 5 218 2 is_stmt 1 discriminator 1 view .LVU306
	.loc 5 218 16 is_stmt 0 discriminator 1 view .LVU307
	str	r4, [sp]
	mov	r3, r4
	mov	r2, r4
	ldr	r0, [r5, #32]
	mov	r1, #9
	sub	r0, r0, #13
	bl	fb_GfxImageCreate
.LVL87:
	.loc 5 218 2 is_stmt 1 discriminator 1 view .LVU308
	.loc 5 219 2 is_stmt 0 discriminator 1 view .LVU309
	stm	sp, {r7, fp}
	.loc 5 218 20 discriminator 1 view .LVU310
	str	r0, [sp, #72]
	.loc 5 219 2 is_stmt 1 discriminator 1 view .LVU311
	add	r1, sp, #72
	.loc 5 219 64 is_stmt 0 discriminator 1 view .LVU312
	ldr	r3, [r5, #24]
	.loc 5 219 2 discriminator 1 view .LVU313
	add	r0, sp, #64
	ldr	r2, [r5, #32]
	movw	r7, #:lower16:fb_hPutAlpha
	movt	r7, #:upper16:fb_hPutAlpha
	sub	r2, r2, #12
	str	r2, [sp, #8]
	mov	r2, #9
	str	r2, [sp, #12]
	add	r2, r3, #7
	bl	IMG_CHANGE_SIZE_QUICK
.LVL88:
.L46:
	.loc 5 220 11 is_stmt 1 view .LVU314
	.loc 5 220 2 view .LVU315
	.loc 5 220 16 is_stmt 0 view .LVU316
	str	r7, [sp, #16]
	mov	r0, #0
	mov	r2, #6
	mvn	ip, #0
	.loc 5 220 122 view .LVU317
	ldr	r3, [r5, #28]
	.loc 5 220 16 view .LVU318
	ldr	r1, [sp, #72]
	.loc 5 220 122 view .LVU319
	sub	r3, r3, #1
	vmov	s1, r3	@ int
	.loc 5 220 77 view .LVU320
	ldr	r3, [r5, #24]
	.loc 5 220 16 view .LVU321
	vcvt.f32.s32	s1, s1
	str	r2, [sp, #12]
	.loc 5 220 77 view .LVU322
	add	r3, r3, #6
	vmov	s0, r3	@ int
	.loc 5 220 16 view .LVU323
	mov	r3, r0
	str	r0, [sp, #28]
	movt	r3, 65535
	vcvt.f32.s32	s0, s0
	mov	r2, r3
	str	r0, [sp, #24]
	str	r0, [sp, #8]
	str	r3, [sp, #4]
	str	r3, [sp]
	str	ip, [sp, #20]
	bl	fb_GfxPut
.LVL89:
	.loc 5 220 2 is_stmt 1 view .LVU324
	.loc 5 220 4 is_stmt 0 view .LVU325
	cmp	r0, #0
	bne	.L91
.LVL90:
.L47:
	.loc 5 220 11 is_stmt 1 discriminator 3 view .LVU326
	.loc 5 225 2 discriminator 3 view .LVU327
	.loc 5 226 3 discriminator 3 view .LVU328
	.loc 5 229 351 is_stmt 0 discriminator 3 view .LVU329
	ldr	r1, [r5, #48]
	.loc 5 229 3 discriminator 3 view .LVU330
	mov	r0, #0
	.loc 5 229 302 discriminator 3 view .LVU331
	ldr	r3, [r5, #44]
	.loc 5 229 3 discriminator 3 view .LVU332
	vldr.32	s15, [r5, #24]	@ int
	.loc 5 229 351 discriminator 3 view .LVU333
	lsl	r1, r1, #8
	.loc 5 229 73 discriminator 3 view .LVU334
	ldr	r2, [r5, #28]
	.loc 5 229 316 discriminator 3 view .LVU335
	orr	r1, r1, r3, lsl #16
	.loc 5 229 225 discriminator 3 view .LVU336
	ldr	r3, [r5, #36]
	.loc 5 229 3 discriminator 3 view .LVU337
	vcvt.f32.s32	s0, s15
	.loc 5 229 225 discriminator 3 view .LVU338
	add	r3, r2, r3
	.loc 5 229 104 discriminator 3 view .LVU339
	add	r2, r2, #25
	vmov	s1, r2	@ int
	.loc 5 229 150 discriminator 3 view .LVU340
	vmov	r2, s15	@ int
	.loc 5 229 259 discriminator 3 view .LVU341
	sub	r3, r3, #25
	vmov	s3, r3	@ int
	.loc 5 229 150 discriminator 3 view .LVU342
	ldr	r3, [r5, #32]
	.loc 5 229 3 discriminator 3 view .LVU343
	vcvt.f32.s32	s1, s1
	vcvt.f32.s32	s3, s3
	.loc 5 229 150 discriminator 3 view .LVU344
	add	r3, r2, r3
	vmov	s2, r3	@ int
	.loc 5 229 365 discriminator 3 view .LVU345
	ldr	r3, [r5, #52]
	.loc 5 229 3 discriminator 3 view .LVU346
	mov	r2, #2
	vcvt.f32.s32	s2, s2
	str	r0, [sp]
	.loc 5 229 365 discriminator 3 view .LVU347
	orr	r1, r1, r3
	.loc 5 229 3 discriminator 3 view .LVU348
	movw	r3, #65535
	orr	r1, r1, #-16777216
	.loc 5 226 3 discriminator 3 view .LVU349
	bl	fb_GfxLine
.LVL91:
	.loc 5 228 2 is_stmt 1 discriminator 3 view .LVU350
.L51:
.L52:
	.loc 5 230 11 discriminator 1 view .LVU351
	.loc 5 233 11 discriminator 1 view .LVU352
	.loc 5 233 2 discriminator 1 view .LVU353
	.loc 5 233 17 is_stmt 0 discriminator 1 view .LVU354
	str	r7, [sp, #16]
	mov	r0, #0
	mov	r3, r0
	mov	r2, #6
	vldr.32	s15, [r5, #28]	@ int
	movt	r3, 65535
	mvn	ip, #0
	mov	r1, r6
	vcvt.f32.s32	s1, s15
	vldr.32	s15, [r5, #24]	@ int
	str	r2, [sp, #12]
	mov	r2, r3
	str	r0, [sp, #28]
	vcvt.f32.s32	s0, s15
	str	r0, [sp, #24]
	str	r0, [sp, #8]
	str	r3, [sp, #4]
	str	r3, [sp]
	str	ip, [sp, #20]
	bl	fb_GfxPut
.LVL92:
	.loc 5 233 2 is_stmt 1 discriminator 1 view .LVU355
	.loc 5 233 4 is_stmt 0 discriminator 1 view .LVU356
	cmp	r0, #0
	bne	.L92
.LVL93:
.L54:
	.loc 5 233 11 is_stmt 1 discriminator 4 view .LVU357
	.loc 5 234 11 discriminator 4 view .LVU358
	.loc 5 234 2 discriminator 4 view .LVU359
	.loc 5 234 17 is_stmt 0 discriminator 4 view .LVU360
	str	r7, [sp, #16]
	mov	r0, #0
	mvn	ip, #0
	mov	r1, r8
	.loc 5 234 79 discriminator 4 view .LVU361
	ldr	r2, [r5, #32]
	ldr	r3, [r5, #24]
	.loc 5 234 17 discriminator 4 view .LVU362
	vldr.32	s15, [r5, #28]	@ int
	.loc 5 234 79 discriminator 4 view .LVU363
	add	r3, r3, r2
	.loc 5 234 17 discriminator 4 view .LVU364
	str	r0, [sp, #28]
	.loc 5 234 113 discriminator 4 view .LVU365
	sub	r3, r3, #7
	vmov	s0, r3	@ int
	.loc 5 234 17 discriminator 4 view .LVU366
	mov	r3, r0
	mov	r2, #6
	movt	r3, 65535
	str	r2, [sp, #12]
	vcvt.f32.s32	s0, s0
	vcvt.f32.s32	s1, s15
	mov	r2, r3
	str	r0, [sp, #24]
	str	r0, [sp, #8]
	str	r3, [sp, #4]
	str	r3, [sp]
	str	ip, [sp, #20]
	bl	fb_GfxPut
.LVL94:
	.loc 5 234 2 is_stmt 1 discriminator 4 view .LVU367
	.loc 5 234 4 is_stmt 0 discriminator 4 view .LVU368
	cmp	r0, #0
	bne	.L93
.LVL95:
.L56:
	.loc 5 234 11 is_stmt 1 discriminator 4 view .LVU369
	.loc 5 235 11 discriminator 4 view .LVU370
	.loc 5 235 2 discriminator 4 view .LVU371
	.loc 5 235 17 is_stmt 0 discriminator 4 view .LVU372
	str	r7, [sp, #16]
	mov	r0, #0
	mov	r2, #6
	mvn	ip, #0
	.loc 5 235 124 discriminator 4 view .LVU373
	ldr	r3, [r5, #28]
	.loc 5 235 17 discriminator 4 view .LVU374
	ldr	r1, [sp, #76]
	.loc 5 235 124 discriminator 4 view .LVU375
	add	r3, r3, #6
	vmov	s1, r3	@ int
	.loc 5 235 78 discriminator 4 view .LVU376
	ldr	r3, [r5, #24]
	.loc 5 235 17 discriminator 4 view .LVU377
	vcvt.f32.s32	s1, s1
	str	r2, [sp, #12]
	.loc 5 235 78 discriminator 4 view .LVU378
	sub	r3, r3, #1
	vmov	s0, r3	@ int
	.loc 5 235 17 discriminator 4 view .LVU379
	mov	r3, r0
	str	r0, [sp, #28]
	movt	r3, 65535
	vcvt.f32.s32	s0, s0
	mov	r2, r3
	str	r0, [sp, #24]
	str	r0, [sp, #8]
	str	r3, [sp, #4]
	str	r3, [sp]
	str	ip, [sp, #20]
	bl	fb_GfxPut
.LVL96:
	.loc 5 235 2 is_stmt 1 discriminator 4 view .LVU380
	.loc 5 235 4 is_stmt 0 discriminator 4 view .LVU381
	cmp	r0, #0
	beq	.L58
	.loc 5 235 2 is_stmt 1 discriminator 2 view .LVU382
	.loc 5 235 17 is_stmt 0 discriminator 2 view .LVU383
	ldr	r3, .L95+4
	movw	r1, #:lower16:.LC13
	movt	r1, #:upper16:.LC13
	ldr	r2, .L95+8
	mov	r0, #235
.LVL97:
	.loc 5 235 17 discriminator 2 view .LVU384
	bl	fb_ErrorThrowAt
.LVL98:
	.loc 5 235 2 is_stmt 1 discriminator 2 view .LVU385
	.loc 5 235 2 is_stmt 0 discriminator 2 view .LVU386
	mov	pc, r0	@ indirect register jump
.LVL99:
.L92:
	.loc 5 233 2 is_stmt 1 discriminator 2 view .LVU387
	.loc 5 233 17 is_stmt 0 discriminator 2 view .LVU388
	ldr	r3, .L95+12
	movw	r1, #:lower16:.LC13
	movt	r1, #:upper16:.LC13
	ldr	r2, .L95+16
	mov	r0, #233
.LVL100:
	.loc 5 233 17 discriminator 2 view .LVU389
	bl	fb_ErrorThrowAt
.LVL101:
	.loc 5 233 2 is_stmt 1 discriminator 2 view .LVU390
	.loc 5 233 2 is_stmt 0 discriminator 2 view .LVU391
	mov	pc, r0	@ indirect register jump
.LVL102:
.L91:
	.loc 5 220 2 is_stmt 1 discriminator 2 view .LVU392
	.loc 5 220 16 is_stmt 0 discriminator 2 view .LVU393
	ldr	r3, .L95+20
	movw	r1, #:lower16:.LC13
	movt	r1, #:upper16:.LC13
	ldr	r2, .L95+24
	mov	r0, #220
.LVL103:
	.loc 5 220 16 discriminator 2 view .LVU394
	bl	fb_ErrorThrowAt
.LVL104:
	.loc 5 220 2 is_stmt 1 discriminator 2 view .LVU395
	.loc 5 220 2 is_stmt 0 discriminator 2 view .LVU396
	mov	pc, r0	@ indirect register jump
.LVL105:
.L90:
.LBB2:
	.loc 5 210 3 is_stmt 1 view .LVU397
	.loc 5 210 21 is_stmt 0 view .LVU398
	mov	r1, #5
	movw	r0, #:lower16:.LC18
	movt	r0, #:upper16:.LC18
	bl	fb_StrAllocTempDescZEx
.LVL106:
	.loc 5 210 3 view .LVU399
	mov	r2, #1
	.loc 5 210 21 view .LVU400
	mov	r1, r0
.LVL107:
	.loc 5 210 3 is_stmt 1 view .LVU401
	mov	r0, r6
.LVL108:
	.loc 5 210 3 is_stmt 0 view .LVU402
	bl	fb_PrintString
.LVL109:
	.loc 5 210 3 view .LVU403
	b	.L45
.LVL110:
.L93:
	.loc 5 210 3 view .LVU404
.LBE2:
	.loc 5 234 2 is_stmt 1 discriminator 2 view .LVU405
	.loc 5 234 17 is_stmt 0 discriminator 2 view .LVU406
	ldr	r3, .L95+28
	movw	r1, #:lower16:.LC13
	movt	r1, #:upper16:.LC13
	ldr	r2, .L95+32
	mov	r0, #234
.LVL111:
	.loc 5 234 17 discriminator 2 view .LVU407
	bl	fb_ErrorThrowAt
.LVL112:
	.loc 5 234 2 is_stmt 1 discriminator 2 view .LVU408
	.loc 5 234 2 is_stmt 0 discriminator 2 view .LVU409
	mov	pc, r0	@ indirect register jump
.LVL113:
.L62:
.LBB3:
	.loc 5 262 12 is_stmt 1 discriminator 3 view .LVU410
.L60:
.L63:
.L64:
	.loc 5 262 12 is_stmt 0 discriminator 3 view .LVU411
.LBE3:
	.loc 5 263 11 is_stmt 1 discriminator 2 view .LVU412
	.loc 5 263 11 discriminator 2 view .LVU413
	.loc 5 277 11 discriminator 2 view .LVU414
	.loc 5 277 2 discriminator 2 view .LVU415
	mov	r0, r10
	bl	fb_ErrorSetFuncName
.LVL114:
	.loc 5 277 2 discriminator 2 view .LVU416
	mov	r0, r9
	bl	fb_ErrorSetModName
.LVL115:
	.loc 5 277 1 is_stmt 0 discriminator 2 view .LVU417
	add	sp, sp, #164
	.cfi_remember_state
	.cfi_def_cfa_offset 36
	@ sp needed
	pop	{r4, r5, r6, r7, r8, r9, r10, fp, pc}
.LVL116:
.L57:
	.cfi_restore_state
.L58:
	.loc 5 235 11 is_stmt 1 discriminator 4 view .LVU418
	.loc 5 236 11 discriminator 4 view .LVU419
	.loc 5 236 2 discriminator 4 view .LVU420
	.loc 5 236 17 is_stmt 0 discriminator 4 view .LVU421
	str	r7, [sp, #16]
	mov	r0, #0
	mov	r2, #6
	mvn	ip, #0
	.loc 5 236 78 discriminator 4 view .LVU422
	ldr	r3, [r5, #24]
	.loc 5 236 17 discriminator 4 view .LVU423
	vldr.32	s15, [r5, #28]	@ int
	.loc 5 236 78 discriminator 4 view .LVU424
	add	r3, r3, #7
	vmov	s0, r3	@ int
	.loc 5 236 17 discriminator 4 view .LVU425
	mov	r3, r0
	str	r2, [sp, #12]
	movt	r3, 65535
	vcvt.f32.s32	s0, s0
	vcvt.f32.s32	s1, s15
	ldr	r1, [sp, #72]
	mov	r2, r3
	str	r0, [sp, #28]
	str	r0, [sp, #24]
	str	r0, [sp, #8]
	str	r3, [sp, #4]
	str	r3, [sp]
	str	ip, [sp, #20]
	bl	fb_GfxPut
.LVL117:
	.loc 5 236 2 is_stmt 1 discriminator 4 view .LVU426
	.loc 5 236 4 is_stmt 0 discriminator 4 view .LVU427
	cmp	r0, #0
	bne	.L94
.LVL118:
.L59:
	.loc 5 236 11 is_stmt 1 discriminator 3 view .LVU428
	.loc 5 246 2 discriminator 3 view .LVU429
	mov	r1, #1
	movw	r0, #:lower16:FONT1$
	movt	r0, #:upper16:FONT1$
	.loc 5 249 2 is_stmt 0 discriminator 3 view .LVU430
	mov	r4, #0
.LVL119:
	.loc 5 246 2 discriminator 3 view .LVU431
	bl	_ZN5XFONT9INTERFACE16FONTINDEX__set__Eh
.LVL120:
	.loc 5 247 2 is_stmt 1 discriminator 3 view .LVU432
	mov	r1, #0
	movw	r0, #:lower16:FONT1$
	movt	r0, #:upper16:FONT1$
	bl	_ZN5XFONT9INTERFACE16BACKCOLOR__set__Ej
.LVL121:
	.loc 5 248 2 discriminator 3 view .LVU433
	mvn	r1, #0
	movw	r0, #:lower16:FONT1$
	movt	r0, #:upper16:FONT1$
	bl	_ZN5XFONT9INTERFACE16FORECOLOR__set__Ej
.LVL122:
	.loc 5 249 2 discriminator 3 view .LVU434
	ldr	r3, [r5, #24]
	ldr	r2, [r5, #28]
	mov	r1, r4
	vldr.32	s1, .L95
	add	r3, r3, #4
	add	r2, r2, #2
	str	r4, [sp, #4]
	sxth	r3, r3
	movw	r0, #:lower16:FONT1$
	movt	r0, #:upper16:FONT1$
	sxth	r2, r2
	vmov.f32	s0, s1
	str	r2, [sp]
	add	r2, r5, #56
	bl	_ZN5XFONT9INTERFACE10DRAWSTRINGEPvR8FBSTRINGssffh
.LVL123:
	.loc 5 255 2 discriminator 3 view .LVU435
	.loc 5 255 4 is_stmt 0 discriminator 3 view .LVU436
	ldrsb	r3, [r5, #88]
	cmp	r3, #1
	bne	.L64
.LBB4:
	.loc 5 255 3 is_stmt 1 discriminator 2 view .LVU437
	.loc 5 255 3 discriminator 2 view .LVU438
	.loc 5 255 3 discriminator 2 view .LVU439
	.loc 5 260 3 discriminator 2 view .LVU440
	.loc 5 260 22 is_stmt 0 discriminator 2 view .LVU441
	mov	r3, #29
	str	r4, [sp]
	mvn	r1, #0
	add	r0, sp, #148
	movw	r2, #:lower16:.LC29
	movt	r2, #:upper16:.LC29
	.loc 5 260 12 discriminator 2 view .LVU442
	mov	ip, #20
	.loc 5 260 3 discriminator 2 view .LVU443
	str	r4, [sp, #148]
	str	r4, [sp, #152]
	str	r4, [sp, #156]
	.loc 5 260 12 discriminator 2 view .LVU444
	str	ip, [sp, #84]
	.loc 5 260 3 is_stmt 1 discriminator 2 view .LVU445
	.loc 5 260 12 is_stmt 0 discriminator 2 view .LVU446
	str	ip, [sp, #80]
	.loc 5 260 3 is_stmt 1 discriminator 2 view .LVU447
	.loc 5 260 3 discriminator 2 view .LVU448
	.loc 5 260 22 is_stmt 0 discriminator 2 view .LVU449
	bl	fb_StrAssign
.LVL124:
	.loc 5 260 3 is_stmt 1 discriminator 2 view .LVU450
	.loc 5 260 18 is_stmt 0 discriminator 2 view .LVU451
	add	r3, sp, #84
	mov	r2, #5
	str	r3, [sp]
	mov	r1, #32
	add	r3, sp, #80
	add	r0, sp, #148
	bl	CHARGER_PNG
.LVL125:
	mov	r4, r0
	.loc 5 260 3 discriminator 2 view .LVU452
	add	r0, sp, #148
.LVL126:
	.loc 5 260 3 is_stmt 1 discriminator 2 view .LVU453
	.loc 5 260 3 discriminator 2 view .LVU454
	bl	fb_StrDelete
.LVL127:
.L61:
	.loc 5 262 12 view .LVU455
	.loc 5 262 3 view .LVU456
	.loc 5 262 18 is_stmt 0 view .LVU457
	str	r7, [sp, #16]
	mov	r0, #0
	mvn	ip, #0
	mov	r1, r4
	.loc 5 262 80 view .LVU458
	ldr	r2, [r5, #32]
	ldr	r3, [r5, #24]
	add	r3, r3, r2
	.loc 5 262 18 view .LVU459
	mov	r2, #6
	.loc 5 262 114 view .LVU460
	sub	r3, r3, #27
	vmov	s0, r3	@ int
	.loc 5 262 161 view .LVU461
	ldr	r3, [r5, #28]
	.loc 5 262 18 view .LVU462
	vcvt.f32.s32	s0, s0
	str	r2, [sp, #12]
	.loc 5 262 161 view .LVU463
	add	r3, r3, #2
	vmov	s1, r3	@ int
	.loc 5 262 18 view .LVU464
	mov	r3, r0
	str	r0, [sp, #28]
	movt	r3, 65535
	vcvt.f32.s32	s1, s1
	mov	r2, r3
	str	r0, [sp, #24]
	str	r0, [sp, #8]
	str	r3, [sp, #4]
	str	r3, [sp]
	str	ip, [sp, #20]
	bl	fb_GfxPut
.LVL128:
	.loc 5 262 3 is_stmt 1 view .LVU465
	.loc 5 262 5 is_stmt 0 view .LVU466
	cmp	r0, #0
	beq	.L64
	.loc 5 262 3 is_stmt 1 discriminator 2 view .LVU467
	.loc 5 262 18 is_stmt 0 discriminator 2 view .LVU468
	ldr	r3, .L95+36
	movw	r1, #:lower16:.LC13
	movt	r1, #:upper16:.LC13
	ldr	r2, .L95+40
	movw	r0, #262
.LVL129:
	.loc 5 262 18 discriminator 2 view .LVU469
	bl	fb_ErrorThrowAt
.LVL130:
	.loc 5 262 3 is_stmt 1 discriminator 2 view .LVU470
	.loc 5 262 3 is_stmt 0 discriminator 2 view .LVU471
	mov	pc, r0	@ indirect register jump
.LVL131:
.L53:
	.loc 5 262 3 discriminator 2 view .LVU472
	b	.L54
.L55:
	.loc 5 262 3 discriminator 2 view .LVU473
	b	.L56
.LVL132:
.L94:
	.loc 5 262 3 discriminator 2 view .LVU474
.LBE4:
	.loc 5 236 2 is_stmt 1 discriminator 2 view .LVU475
	.loc 5 236 17 is_stmt 0 discriminator 2 view .LVU476
	ldr	r3, .L95+44
	movw	r1, #:lower16:.LC13
	movt	r1, #:upper16:.LC13
	ldr	r2, .L95+48
	mov	r0, #236
.LVL133:
	.loc 5 236 17 discriminator 2 view .LVU477
	bl	fb_ErrorThrowAt
.LVL134:
	.loc 5 236 2 is_stmt 1 discriminator 2 view .LVU478
	.loc 5 236 2 is_stmt 0 discriminator 2 view .LVU479
	mov	pc, r0	@ indirect register jump
.L96:
	.align	2
.L95:
	.word	1065353216
	.word	.L57
	.word	.L56
	.word	.L53
	.word	.L52
	.word	.L47
	.word	.L46
	.word	.L55
	.word	.L54
	.word	.L62
	.word	.L61
	.word	.L59
	.word	.L58
	.cfi_endproc
.LFE9:
	.size	_ZN9CPCWINDOW6REDRAWEv, .-_ZN9CPCWINDOW6REDRAWEv
	.section	.rodata.str1.4
	.align	2
.LC32:
	.ascii	"/home/pi/cpcdos/OS2.2/Cpcdos/FBGUI/ElieDraw_textbox"
	.ascii	".bas\000"
	.align	2
.LC33:
	.ascii	"Textbox!!!\000"
	.text
	.align	2
	.global	_ZN8TEXTBOXH6REDRAWEv
	.syntax unified
	.arm
	.fpu vfp
	.type	_ZN8TEXTBOXH6REDRAWEv, %function
_ZN8TEXTBOXH6REDRAWEv:
.LVL135:
.LFB14:
	.file 6 "/home/pi/cpcdos/OS2.2/Cpcdos/FBGUI/ElieDraw_textbox.bas"
	.loc 6 35 1 is_stmt 1 view -0
	.cfi_startproc
	@ args = 0, pretend = 0, frame = 16
	@ frame_needed = 0, uses_anonymous_args = 0
.L98:
	.loc 6 35 2 view .LVU481
	.loc 6 35 2 view .LVU482
	.loc 6 35 2 view .LVU483
	.loc 6 35 12 view .LVU484
	.loc 6 35 2 view .LVU485
	.loc 6 35 1 is_stmt 0 view .LVU486
	push	{r4, r5, r6, r7, r8, lr}
	.cfi_def_cfa_offset 24
	.cfi_offset 4, -24
	.cfi_offset 5, -20
	.cfi_offset 6, -16
	.cfi_offset 7, -12
	.cfi_offset 8, -8
	.cfi_offset 14, -4
	mov	r4, r0
	.loc 6 35 16 view .LVU487
	movw	r0, #:lower16:.LC32
.LVL136:
	.loc 6 35 16 view .LVU488
	movt	r0, #:upper16:.LC32
	.loc 6 35 1 view .LVU489
	sub	sp, sp, #24
	.cfi_def_cfa_offset 48
	.loc 6 35 16 view .LVU490
	bl	fb_ErrorSetModName
.LVL137:
	mov	r7, r0
	.loc 6 35 16 view .LVU491
	movw	r0, #:lower16:.LC3
	movt	r0, #:upper16:.LC3
.LVL138:
	.loc 6 35 2 is_stmt 1 view .LVU492
	.loc 6 35 2 view .LVU493
	.loc 6 35 16 is_stmt 0 view .LVU494
	bl	fb_ErrorSetFuncName
.LVL139:
	.loc 6 37 2 view .LVU495
	vldr.32	s15, [r4, #24]	@ int
	.loc 6 37 216 view .LVU496
	ldr	r3, [r4, #88]
	.loc 6 37 2 view .LVU497
	mov	r5, #0
	.loc 6 35 16 view .LVU498
	mov	r8, r0
.LVL140:
	.loc 6 35 2 is_stmt 1 view .LVU499
	.loc 6 37 2 view .LVU500
	mvn	r1, #1
	vcvt.f32.s32	s0, s15
	vldr.32	s15, [r4, #28]	@ int
	mov	r0, r5
.LVL141:
	.loc 6 41 2 is_stmt 0 view .LVU501
	movw	r6, #:lower16:FONT1$
	movt	r6, #:upper16:FONT1$
	.loc 6 37 216 view .LVU502
	vmov	r2, s15	@ int
	.loc 6 37 2 view .LVU503
	vcvt.f32.s32	s1, s15
	.loc 6 37 216 view .LVU504
	add	r3, r2, r3
	.loc 6 37 142 view .LVU505
	ldr	r2, [r4, #24]
	.loc 6 37 216 view .LVU506
	vmov	s3, r3	@ int
	.loc 6 37 142 view .LVU507
	ldr	r3, [r4, #84]
	.loc 6 37 2 view .LVU508
	str	r5, [sp]
	.loc 6 37 142 view .LVU509
	add	r3, r2, r3
	vmov	s2, r3	@ int
	.loc 6 37 2 view .LVU510
	vcvt.f32.s32	s3, s3
	mov	r2, #2
	vcvt.f32.s32	s2, s2
	movw	r3, #65535
	bl	fb_GfxLine
.LVL142:
	.loc 6 38 2 is_stmt 1 view .LVU511
	.loc 6 38 32 is_stmt 0 view .LVU512
	ldr	r3, [r4, #24]
	.loc 6 38 2 view .LVU513
	vmov	s15, r3	@ int
	str	r5, [sp]
	mov	r0, r5
	mov	r1, #-16777216
	vcvt.f32.s32	s0, s15
	vldr.32	s15, [r4, #28]	@ int
	.loc 6 38 142 view .LVU514
	ldr	r2, [r4, #84]
	.loc 6 38 2 view .LVU515
	vcvt.f32.s32	s3, s15
	.loc 6 38 142 view .LVU516
	add	r3, r3, r2
	vmov	s2, r3	@ int
	.loc 6 38 2 view .LVU517
	mov	r2, #1
	movw	r3, #65535
	vcvt.f32.s32	s2, s2
	vmov.f32	s1, s3
	bl	fb_GfxLine
.LVL143:
	.loc 6 39 2 is_stmt 1 view .LVU518
	.loc 6 39 33 is_stmt 0 view .LVU519
	ldr	r3, [r4, #24]
	.loc 6 39 2 view .LVU520
	vmov	s15, r3	@ int
	str	r5, [sp]
	mov	r0, r5
	vcvt.f32.s32	s2, s15
	vldr.32	s15, [r4, #28]	@ int
	.loc 6 39 216 view .LVU521
	ldr	r2, [r4, #88]
	vmov	r1, s15	@ int
	.loc 6 39 2 view .LVU522
	vcvt.f32.s32	s1, s15
	.loc 6 39 216 view .LVU523
	add	r2, r1, r2
	vmov	s3, r2	@ int
	.loc 6 39 64 view .LVU524
	ldr	r2, [r4, #84]
	.loc 6 39 2 view .LVU525
	mov	r1, #-16777216
	vcvt.f32.s32	s3, s3
	.loc 6 39 64 view .LVU526
	add	r3, r3, r2
	vmov	s0, r3	@ int
	.loc 6 39 2 view .LVU527
	mov	r2, #1
	movw	r3, #65535
	vcvt.f32.s32	s0, s0
	bl	fb_GfxLine
.LVL144:
	.loc 6 41 2 is_stmt 1 view .LVU528
	mov	r1, r5
	mov	r0, r6
	bl	_ZN5XFONT9INTERFACE16BACKCOLOR__set__Ej
.LVL145:
	.loc 6 42 2 view .LVU529
	mov	r0, r6
	mov	r1, #-16777216
	bl	_ZN5XFONT9INTERFACE16FORECOLOR__set__Ej
.LVL146:
	.loc 6 43 2 view .LVU530
	.loc 6 43 20 is_stmt 0 view .LVU531
	mov	r3, #11
	add	r0, sp, #12
	str	r5, [sp]
	mvn	r1, #0
	movw	r2, #:lower16:.LC33
	movt	r2, #:upper16:.LC33
	.loc 6 43 2 view .LVU532
	str	r5, [sp, #12]
	str	r5, [sp, #16]
	str	r5, [sp, #20]
	.loc 6 43 2 is_stmt 1 view .LVU533
	.loc 6 43 20 is_stmt 0 view .LVU534
	bl	fb_StrAssign
.LVL147:
	.loc 6 43 2 is_stmt 1 view .LVU535
	str	r5, [sp, #4]
	mov	r1, r5
	vldr.32	s1, .L100
	mov	r0, r6
	ldr	r3, [r4, #24]
	ldr	r2, [r4, #28]
	add	r3, r3, #4
	vmov.f32	s0, s1
	add	r2, r2, #2
	sxth	r3, r3
	sxth	r2, r2
	str	r2, [sp]
	add	r2, sp, #12
	bl	_ZN5XFONT9INTERFACE10DRAWSTRINGEPvR8FBSTRINGssffh
.LVL148:
	.loc 6 43 2 view .LVU536
	add	r0, sp, #12
	bl	fb_StrDelete
.LVL149:
.LDL3:
	.loc 6 45 12 view .LVU537
	.loc 6 45 2 view .LVU538
	mov	r0, r8
	bl	fb_ErrorSetFuncName
.LVL150:
	.loc 6 45 2 view .LVU539
	mov	r0, r7
	bl	fb_ErrorSetModName
.LVL151:
	.loc 6 45 1 is_stmt 0 view .LVU540
	add	sp, sp, #24
	.cfi_def_cfa_offset 24
	@ sp needed
	pop	{r4, r5, r6, r7, r8, pc}
.LVL152:
.L101:
	.loc 6 45 1 view .LVU541
	.align	2
.L100:
	.word	1065353216
	.cfi_endproc
.LFE14:
	.size	_ZN8TEXTBOXH6REDRAWEv, .-_ZN8TEXTBOXH6REDRAWEv
	.section	.rodata.str1.4
	.align	2
.LC34:
	.ascii	"/home/pi/cpcdos/OS2.2/Cpcdos/FBGUI/ElieDraw_textblo"
	.ascii	"ck.bas\000"
	.align	2
.LC35:
	.ascii	"Textblock!!!\000"
	.text
	.align	2
	.global	_ZN10TEXTBLOCKH6REDRAWEv
	.syntax unified
	.arm
	.fpu vfp
	.type	_ZN10TEXTBLOCKH6REDRAWEv, %function
_ZN10TEXTBLOCKH6REDRAWEv:
.LVL153:
.LFB18:
	.file 7 "/home/pi/cpcdos/OS2.2/Cpcdos/FBGUI/ElieDraw_textblock.bas"
	.loc 7 35 1 is_stmt 1 view -0
	.cfi_startproc
	@ args = 0, pretend = 0, frame = 16
	@ frame_needed = 0, uses_anonymous_args = 0
.L103:
	.loc 7 35 2 view .LVU543
	.loc 7 35 2 view .LVU544
	.loc 7 35 2 view .LVU545
	.loc 7 35 12 view .LVU546
	.loc 7 35 2 view .LVU547
	.loc 7 35 1 is_stmt 0 view .LVU548
	push	{r4, r5, r6, r7, r8, lr}
	.cfi_def_cfa_offset 24
	.cfi_offset 4, -24
	.cfi_offset 5, -20
	.cfi_offset 6, -16
	.cfi_offset 7, -12
	.cfi_offset 8, -8
	.cfi_offset 14, -4
	mov	r4, r0
	.loc 7 35 16 view .LVU549
	movw	r0, #:lower16:.LC34
.LVL154:
	.loc 7 35 16 view .LVU550
	movt	r0, #:upper16:.LC34
	.loc 7 35 1 view .LVU551
	sub	sp, sp, #24
	.cfi_def_cfa_offset 48
	.loc 7 35 16 view .LVU552
	bl	fb_ErrorSetModName
.LVL155:
	mov	r7, r0
	.loc 7 35 16 view .LVU553
	movw	r0, #:lower16:.LC3
	movt	r0, #:upper16:.LC3
.LVL156:
	.loc 7 35 2 is_stmt 1 view .LVU554
	.loc 7 35 2 view .LVU555
	.loc 7 35 16 is_stmt 0 view .LVU556
	bl	fb_ErrorSetFuncName
.LVL157:
	.loc 7 37 2 view .LVU557
	vldr.32	s15, [r4, #24]	@ int
	.loc 7 37 216 view .LVU558
	ldr	r3, [r4, #88]
	.loc 7 37 2 view .LVU559
	mov	r5, #0
	.loc 7 35 16 view .LVU560
	mov	r8, r0
.LVL158:
	.loc 7 35 2 is_stmt 1 view .LVU561
	.loc 7 37 2 view .LVU562
	mvn	r1, #1
	vcvt.f32.s32	s0, s15
	vldr.32	s15, [r4, #28]	@ int
	mov	r0, r5
.LVL159:
	.loc 7 41 2 is_stmt 0 view .LVU563
	movw	r6, #:lower16:FONT1$
	movt	r6, #:upper16:FONT1$
	.loc 7 37 216 view .LVU564
	vmov	r2, s15	@ int
	.loc 7 37 2 view .LVU565
	vcvt.f32.s32	s1, s15
	.loc 7 37 216 view .LVU566
	add	r3, r2, r3
	.loc 7 37 142 view .LVU567
	ldr	r2, [r4, #24]
	.loc 7 37 216 view .LVU568
	vmov	s3, r3	@ int
	.loc 7 37 142 view .LVU569
	ldr	r3, [r4, #84]
	.loc 7 37 2 view .LVU570
	str	r5, [sp]
	.loc 7 37 142 view .LVU571
	add	r3, r2, r3
	vmov	s2, r3	@ int
	.loc 7 37 2 view .LVU572
	vcvt.f32.s32	s3, s3
	mov	r2, #2
	vcvt.f32.s32	s2, s2
	movw	r3, #65535
	bl	fb_GfxLine
.LVL160:
	.loc 7 38 2 is_stmt 1 view .LVU573
	.loc 7 38 32 is_stmt 0 view .LVU574
	ldr	r3, [r4, #24]
	.loc 7 38 2 view .LVU575
	vmov	s15, r3	@ int
	str	r5, [sp]
	mov	r0, r5
	mov	r1, #-16777216
	vcvt.f32.s32	s0, s15
	vldr.32	s15, [r4, #28]	@ int
	.loc 7 38 142 view .LVU576
	ldr	r2, [r4, #84]
	.loc 7 38 2 view .LVU577
	vcvt.f32.s32	s3, s15
	.loc 7 38 142 view .LVU578
	add	r3, r3, r2
	vmov	s2, r3	@ int
	.loc 7 38 2 view .LVU579
	mov	r2, #1
	movw	r3, #65535
	vcvt.f32.s32	s2, s2
	vmov.f32	s1, s3
	bl	fb_GfxLine
.LVL161:
	.loc 7 39 2 is_stmt 1 view .LVU580
	.loc 7 39 33 is_stmt 0 view .LVU581
	ldr	r3, [r4, #24]
	.loc 7 39 2 view .LVU582
	vmov	s15, r3	@ int
	str	r5, [sp]
	mov	r0, r5
	vcvt.f32.s32	s2, s15
	vldr.32	s15, [r4, #28]	@ int
	.loc 7 39 216 view .LVU583
	ldr	r2, [r4, #88]
	vmov	r1, s15	@ int
	.loc 7 39 2 view .LVU584
	vcvt.f32.s32	s1, s15
	.loc 7 39 216 view .LVU585
	add	r2, r1, r2
	vmov	s3, r2	@ int
	.loc 7 39 64 view .LVU586
	ldr	r2, [r4, #84]
	.loc 7 39 2 view .LVU587
	mov	r1, #-16777216
	vcvt.f32.s32	s3, s3
	.loc 7 39 64 view .LVU588
	add	r3, r3, r2
	vmov	s0, r3	@ int
	.loc 7 39 2 view .LVU589
	mov	r2, #1
	movw	r3, #65535
	vcvt.f32.s32	s0, s0
	bl	fb_GfxLine
.LVL162:
	.loc 7 41 2 is_stmt 1 view .LVU590
	mov	r1, r5
	mov	r0, r6
	bl	_ZN5XFONT9INTERFACE16BACKCOLOR__set__Ej
.LVL163:
	.loc 7 42 2 view .LVU591
	mov	r0, r6
	mov	r1, #-16777216
	bl	_ZN5XFONT9INTERFACE16FORECOLOR__set__Ej
.LVL164:
	.loc 7 43 2 view .LVU592
	.loc 7 43 20 is_stmt 0 view .LVU593
	mov	r3, #13
	add	r0, sp, #12
	str	r5, [sp]
	mvn	r1, #0
	movw	r2, #:lower16:.LC35
	movt	r2, #:upper16:.LC35
	.loc 7 43 2 view .LVU594
	str	r5, [sp, #12]
	str	r5, [sp, #16]
	str	r5, [sp, #20]
	.loc 7 43 2 is_stmt 1 view .LVU595
	.loc 7 43 20 is_stmt 0 view .LVU596
	bl	fb_StrAssign
.LVL165:
	.loc 7 43 2 is_stmt 1 view .LVU597
	str	r5, [sp, #4]
	mov	r1, r5
	vldr.32	s1, .L105
	mov	r0, r6
	ldr	r3, [r4, #24]
	ldr	r2, [r4, #28]
	add	r3, r3, #4
	vmov.f32	s0, s1
	add	r2, r2, #2
	sxth	r3, r3
	sxth	r2, r2
	str	r2, [sp]
	add	r2, sp, #12
	bl	_ZN5XFONT9INTERFACE10DRAWSTRINGEPvR8FBSTRINGssffh
.LVL166:
	.loc 7 43 2 view .LVU598
	add	r0, sp, #12
	bl	fb_StrDelete
.LVL167:
.LDL4:
	.loc 7 45 12 view .LVU599
	.loc 7 45 2 view .LVU600
	mov	r0, r8
	bl	fb_ErrorSetFuncName
.LVL168:
	.loc 7 45 2 view .LVU601
	mov	r0, r7
	bl	fb_ErrorSetModName
.LVL169:
	.loc 7 45 1 is_stmt 0 view .LVU602
	add	sp, sp, #24
	.cfi_def_cfa_offset 24
	@ sp needed
	pop	{r4, r5, r6, r7, r8, pc}
.LVL170:
.L106:
	.loc 7 45 1 view .LVU603
	.align	2
.L105:
	.word	1065353216
	.cfi_endproc
.LFE18:
	.size	_ZN10TEXTBLOCKH6REDRAWEv, .-_ZN10TEXTBLOCKH6REDRAWEv
	.section	.rodata.str1.4
	.align	2
.LC36:
	.ascii	"/home/pi/cpcdos/OS2.2/Cpcdos/FBGUI/ElieDraw_console"
	.ascii	".bas\000"
	.align	2
.LC37:
	.ascii	"Console!!!\000"
	.text
	.align	2
	.global	_ZN8CONSOLEH6REDRAWEv
	.syntax unified
	.arm
	.fpu vfp
	.type	_ZN8CONSOLEH6REDRAWEv, %function
_ZN8CONSOLEH6REDRAWEv:
.LVL171:
.LFB26:
	.file 8 "/home/pi/cpcdos/OS2.2/Cpcdos/FBGUI/ElieDraw_console.bas"
	.loc 8 35 1 is_stmt 1 view -0
	.cfi_startproc
	@ args = 0, pretend = 0, frame = 16
	@ frame_needed = 0, uses_anonymous_args = 0
.L108:
	.loc 8 35 2 view .LVU605
	.loc 8 35 2 view .LVU606
	.loc 8 35 2 view .LVU607
	.loc 8 35 12 view .LVU608
	.loc 8 35 2 view .LVU609
	.loc 8 35 1 is_stmt 0 view .LVU610
	push	{r4, r5, r6, r7, r8, lr}
	.cfi_def_cfa_offset 24
	.cfi_offset 4, -24
	.cfi_offset 5, -20
	.cfi_offset 6, -16
	.cfi_offset 7, -12
	.cfi_offset 8, -8
	.cfi_offset 14, -4
	mov	r4, r0
	.loc 8 35 16 view .LVU611
	movw	r0, #:lower16:.LC36
.LVL172:
	.loc 8 35 16 view .LVU612
	movt	r0, #:upper16:.LC36
	.loc 8 35 1 view .LVU613
	sub	sp, sp, #24
	.cfi_def_cfa_offset 48
	.loc 8 35 16 view .LVU614
	bl	fb_ErrorSetModName
.LVL173:
	mov	r7, r0
	.loc 8 35 16 view .LVU615
	movw	r0, #:lower16:.LC3
	movt	r0, #:upper16:.LC3
.LVL174:
	.loc 8 35 2 is_stmt 1 view .LVU616
	.loc 8 35 2 view .LVU617
	.loc 8 35 16 is_stmt 0 view .LVU618
	bl	fb_ErrorSetFuncName
.LVL175:
	.loc 8 37 2 view .LVU619
	vldr.32	s15, [r4, #24]	@ int
	.loc 8 37 216 view .LVU620
	ldr	r3, [r4, #88]
	.loc 8 37 2 view .LVU621
	mov	r5, #0
	.loc 8 35 16 view .LVU622
	mov	r8, r0
.LVL176:
	.loc 8 35 2 is_stmt 1 view .LVU623
	.loc 8 37 2 view .LVU624
	mvn	r1, #1
	vcvt.f32.s32	s0, s15
	vldr.32	s15, [r4, #28]	@ int
	mov	r0, r5
.LVL177:
	.loc 8 41 2 is_stmt 0 view .LVU625
	movw	r6, #:lower16:FONT1$
	movt	r6, #:upper16:FONT1$
	.loc 8 37 216 view .LVU626
	vmov	r2, s15	@ int
	.loc 8 37 2 view .LVU627
	vcvt.f32.s32	s1, s15
	.loc 8 37 216 view .LVU628
	add	r3, r2, r3
	.loc 8 37 142 view .LVU629
	ldr	r2, [r4, #24]
	.loc 8 37 216 view .LVU630
	vmov	s3, r3	@ int
	.loc 8 37 142 view .LVU631
	ldr	r3, [r4, #84]
	.loc 8 37 2 view .LVU632
	str	r5, [sp]
	.loc 8 37 142 view .LVU633
	add	r3, r2, r3
	vmov	s2, r3	@ int
	.loc 8 37 2 view .LVU634
	vcvt.f32.s32	s3, s3
	mov	r2, #2
	vcvt.f32.s32	s2, s2
	movw	r3, #65535
	bl	fb_GfxLine
.LVL178:
	.loc 8 38 2 is_stmt 1 view .LVU635
	.loc 8 38 32 is_stmt 0 view .LVU636
	ldr	r3, [r4, #24]
	.loc 8 38 2 view .LVU637
	vmov	s15, r3	@ int
	str	r5, [sp]
	mov	r0, r5
	mov	r1, #-16777216
	vcvt.f32.s32	s0, s15
	vldr.32	s15, [r4, #28]	@ int
	.loc 8 38 142 view .LVU638
	ldr	r2, [r4, #84]
	.loc 8 38 2 view .LVU639
	vcvt.f32.s32	s3, s15
	.loc 8 38 142 view .LVU640
	add	r3, r3, r2
	vmov	s2, r3	@ int
	.loc 8 38 2 view .LVU641
	mov	r2, #1
	movw	r3, #65535
	vcvt.f32.s32	s2, s2
	vmov.f32	s1, s3
	bl	fb_GfxLine
.LVL179:
	.loc 8 39 2 is_stmt 1 view .LVU642
	.loc 8 39 33 is_stmt 0 view .LVU643
	ldr	r3, [r4, #24]
	.loc 8 39 2 view .LVU644
	vmov	s15, r3	@ int
	str	r5, [sp]
	mov	r0, r5
	vcvt.f32.s32	s2, s15
	vldr.32	s15, [r4, #28]	@ int
	.loc 8 39 216 view .LVU645
	ldr	r2, [r4, #88]
	vmov	r1, s15	@ int
	.loc 8 39 2 view .LVU646
	vcvt.f32.s32	s1, s15
	.loc 8 39 216 view .LVU647
	add	r2, r1, r2
	vmov	s3, r2	@ int
	.loc 8 39 64 view .LVU648
	ldr	r2, [r4, #84]
	.loc 8 39 2 view .LVU649
	mov	r1, #-16777216
	vcvt.f32.s32	s3, s3
	.loc 8 39 64 view .LVU650
	add	r3, r3, r2
	vmov	s0, r3	@ int
	.loc 8 39 2 view .LVU651
	mov	r2, #1
	movw	r3, #65535
	vcvt.f32.s32	s0, s0
	bl	fb_GfxLine
.LVL180:
	.loc 8 41 2 is_stmt 1 view .LVU652
	mov	r1, r5
	mov	r0, r6
	bl	_ZN5XFONT9INTERFACE16BACKCOLOR__set__Ej
.LVL181:
	.loc 8 42 2 view .LVU653
	mov	r0, r6
	mov	r1, #-16777216
	bl	_ZN5XFONT9INTERFACE16FORECOLOR__set__Ej
.LVL182:
	.loc 8 43 2 view .LVU654
	.loc 8 43 20 is_stmt 0 view .LVU655
	mov	r3, #11
	add	r0, sp, #12
	str	r5, [sp]
	mvn	r1, #0
	movw	r2, #:lower16:.LC37
	movt	r2, #:upper16:.LC37
	.loc 8 43 2 view .LVU656
	str	r5, [sp, #12]
	str	r5, [sp, #16]
	str	r5, [sp, #20]
	.loc 8 43 2 is_stmt 1 view .LVU657
	.loc 8 43 20 is_stmt 0 view .LVU658
	bl	fb_StrAssign
.LVL183:
	.loc 8 43 2 is_stmt 1 view .LVU659
	str	r5, [sp, #4]
	mov	r1, r5
	vldr.32	s1, .L110
	mov	r0, r6
	ldr	r3, [r4, #24]
	ldr	r2, [r4, #28]
	add	r3, r3, #4
	vmov.f32	s0, s1
	add	r2, r2, #2
	sxth	r3, r3
	sxth	r2, r2
	str	r2, [sp]
	add	r2, sp, #12
	bl	_ZN5XFONT9INTERFACE10DRAWSTRINGEPvR8FBSTRINGssffh
.LVL184:
	.loc 8 43 2 view .LVU660
	add	r0, sp, #12
	bl	fb_StrDelete
.LVL185:
.LDL5:
	.loc 8 45 12 view .LVU661
	.loc 8 45 2 view .LVU662
	mov	r0, r8
	bl	fb_ErrorSetFuncName
.LVL186:
	.loc 8 45 2 view .LVU663
	mov	r0, r7
	bl	fb_ErrorSetModName
.LVL187:
	.loc 8 45 1 is_stmt 0 view .LVU664
	add	sp, sp, #24
	.cfi_def_cfa_offset 24
	@ sp needed
	pop	{r4, r5, r6, r7, r8, pc}
.LVL188:
.L111:
	.loc 8 45 1 view .LVU665
	.align	2
.L110:
	.word	1065353216
	.cfi_endproc
.LFE26:
	.size	_ZN8CONSOLEH6REDRAWEv, .-_ZN8CONSOLEH6REDRAWEv
	.section	.rodata.str1.4
	.align	2
.LC38:
	.ascii	"/home/pi/cpcdos/OS2.2/Cpcdos/FBGUI/SCI.bi\000"
	.align	2
.LC39:
	.ascii	"CPCMOUSE\000"
	.text
	.align	2
	.global	CPCMOUSE
	.syntax unified
	.arm
	.fpu vfp
	.type	CPCMOUSE, %function
CPCMOUSE:
.LFB0:
	.file 9 "/home/pi/cpcdos/OS2.2/Cpcdos/FBGUI/SCI.bi"
	.loc 9 6 1 is_stmt 1 view -0
	.cfi_startproc
	@ args = 0, pretend = 0, frame = 8
	@ frame_needed = 0, uses_anonymous_args = 0
.L113:
	.loc 9 6 2 view .LVU667
	.loc 9 6 2 view .LVU668
	.loc 9 6 2 view .LVU669
	.loc 9 6 2 view .LVU670
	.loc 9 6 10 view .LVU671
	.loc 9 6 2 view .LVU672
	.loc 9 6 1 is_stmt 0 view .LVU673
	push	{r4, r5, lr}
	.cfi_def_cfa_offset 12
	.cfi_offset 4, -12
	.cfi_offset 5, -8
	.cfi_offset 14, -4
	.loc 9 6 16 view .LVU674
	movw	r0, #:lower16:.LC38
	movt	r0, #:upper16:.LC38
	.loc 9 6 1 view .LVU675
	sub	sp, sp, #20
	.cfi_def_cfa_offset 32
	.loc 9 6 16 view .LVU676
	bl	fb_ErrorSetModName
.LVL189:
	mov	r4, r0
	.loc 9 6 16 view .LVU677
	movw	r0, #:lower16:.LC39
	movt	r0, #:upper16:.LC39
.LVL190:
	.loc 9 6 2 is_stmt 1 view .LVU678
	.loc 9 6 2 view .LVU679
	.loc 9 6 16 is_stmt 0 view .LVU680
	bl	fb_ErrorSetFuncName
.LVL191:
	.loc 9 7 2 view .LVU681
	movw	ip, #:lower16:.LANCHOR1
	movt	ip, #:upper16:.LANCHOR1
	add	r2, sp, #8
	add	r3, ip, #4
	.loc 9 6 16 view .LVU682
	mov	r5, r0
.LVL192:
	.loc 9 6 2 is_stmt 1 view .LVU683
	.loc 9 7 2 view .LVU684
	.loc 9 7 2 is_stmt 0 view .LVU685
	add	r1, sp, #12
	add	r0, ip, #12
.LVL193:
	.loc 9 7 2 view .LVU686
	str	r1, [sp]
	.loc 9 7 11 view .LVU687
	mov	r1, #0
	str	r1, [sp, #12]
	.loc 9 7 2 is_stmt 1 view .LVU688
	.loc 9 7 11 is_stmt 0 view .LVU689
	str	r1, [sp, #8]
	.loc 9 7 2 is_stmt 1 view .LVU690
	add	r1, ip, #8
	bl	fb_GetMouse
.LVL194:
.LDL6:
	.loc 9 8 10 view .LVU691
	.loc 9 8 2 view .LVU692
	mov	r0, r5
	bl	fb_ErrorSetFuncName
.LVL195:
	.loc 9 8 2 view .LVU693
	mov	r0, r4
	bl	fb_ErrorSetModName
.LVL196:
	.loc 9 8 1 is_stmt 0 view .LVU694
	add	sp, sp, #20
	.cfi_def_cfa_offset 12
	@ sp needed
	pop	{r4, r5, pc}
	.loc 9 8 1 view .LVU695
	.cfi_endproc
.LFE0:
	.size	CPCMOUSE, .-CPCMOUSE
	.align	2
	.global	_ZN9CPCWINDOWC1Ev
	.syntax unified
	.arm
	.fpu vfp
	.type	_ZN9CPCWINDOWC1Ev, %function
_ZN9CPCWINDOWC1Ev:
.LVL197:
.LFB1:
	.loc 5 50 1 is_stmt 1 view -0
	.cfi_startproc
	@ args = 0, pretend = 0, frame = 0
	@ frame_needed = 0, uses_anonymous_args = 0
	.loc 5 50 2 view .LVU697
	.loc 5 50 2 view .LVU698
	.loc 5 50 2 view .LVU699
	.loc 5 50 1 is_stmt 0 view .LVU700
	push	{r4, lr}
	.cfi_def_cfa_offset 8
	.cfi_offset 4, -8
	.cfi_offset 14, -4
	.loc 5 50 1 view .LVU701
	mov	r4, r0
	.loc 5 50 2 view .LVU702
	bl	_ZN8HCONTROLC1Ev
.LVL198:
	.loc 5 50 2 is_stmt 1 view .LVU703
	.loc 5 50 18 is_stmt 0 view .LVU704
	ldr	r2, .L117
	.loc 5 50 2 view .LVU705
	mov	r3, #0
	.loc 5 50 18 view .LVU706
	str	r2, [r4]
	.loc 5 50 17 view .LVU707
	movw	r0, #:lower16:.LC13
	movt	r0, #:upper16:.LC13
	.loc 5 50 2 view .LVU708
	str	r3, [r4, #68]	@ unaligned
	.loc 5 50 2 is_stmt 1 view .LVU709
	str	r3, [r4, #72]	@ unaligned
	.loc 5 50 2 view .LVU710
	str	r3, [r4, #76]	@ unaligned
	.loc 5 50 2 view .LVU711
	str	r3, [r4, #80]	@ unaligned
	.loc 5 50 2 view .LVU712
	str	r3, [r4, #84]	@ unaligned
	.loc 5 50 2 view .LVU713
	strb	r3, [r4, #88]
	.loc 5 50 2 view .LVU714
	strb	r3, [r4, #89]
	.loc 5 50 2 view .LVU715
	strb	r3, [r4, #90]
	.loc 5 50 2 view .LVU716
	strb	r3, [r4, #91]
	.loc 5 50 2 view .LVU717
	strb	r3, [r4, #92]
	.loc 5 50 2 view .LVU718
	strb	r3, [r4, #93]
	.loc 5 50 2 view .LVU719
	strb	r3, [r4, #94]
	.loc 5 50 2 view .LVU720
	strb	r3, [r4, #95]
	.loc 5 50 2 view .LVU721
	str	r3, [r4, #96]	@ unaligned
	.loc 5 50 2 view .LVU722
	strb	r3, [r4, #100]
	.loc 5 50 2 view .LVU723
	strb	r3, [r4, #101]
	.loc 5 50 2 view .LVU724
	.loc 5 50 2 view .LVU725
	.loc 5 50 17 is_stmt 0 view .LVU726
	bl	fb_ErrorSetModName
.LVL199:
	mov	r4, r0
.LVL200:
	.loc 5 50 17 view .LVU727
	movw	r0, #:lower16:.LC1
	movt	r0, #:upper16:.LC1
.LVL201:
	.loc 5 50 2 is_stmt 1 view .LVU728
	.loc 5 50 2 view .LVU729
	.loc 5 50 17 is_stmt 0 view .LVU730
	bl	fb_ErrorSetFuncName
.LVL202:
	.loc 5 50 2 is_stmt 1 view .LVU731
.LDL7:
.LDL8:
	.loc 5 50 11 view .LVU732
	.loc 5 51 11 view .LVU733
	.loc 5 51 2 view .LVU734
	bl	fb_ErrorSetFuncName
.LVL203:
	.loc 5 51 2 view .LVU735
	mov	r0, r4
	.loc 5 51 1 is_stmt 0 view .LVU736
	pop	{r4, lr}
	.cfi_restore 14
	.cfi_restore 4
	.cfi_def_cfa_offset 0
.LVL204:
	.loc 5 51 2 view .LVU737
	b	fb_ErrorSetModName
.LVL205:
.L118:
	.loc 5 51 2 view .LVU738
	.align	2
.L117:
	.word	.LANCHOR0+20
	.cfi_endproc
.LFE1:
	.size	_ZN9CPCWINDOWC1Ev, .-_ZN9CPCWINDOWC1Ev
	.align	2
	.global	_ZN9CPCWINDOWC1ER8FBSTRINGlllllS1_jlll
	.syntax unified
	.arm
	.fpu vfp
	.type	_ZN9CPCWINDOWC1ER8FBSTRINGlllllS1_jlll, %function
_ZN9CPCWINDOWC1ER8FBSTRINGlllllS1_jlll:
.LVL206:
.LFB2:
	.loc 5 53 1 is_stmt 1 view -0
	.cfi_startproc
	@ args = 32, pretend = 0, frame = 24
	@ frame_needed = 0, uses_anonymous_args = 0
.L120:
	.loc 5 53 2 view .LVU740
	.loc 5 53 2 view .LVU741
	.loc 5 53 11 view .LVU742
	.loc 5 53 2 view .LVU743
	.loc 5 53 1 is_stmt 0 view .LVU744
	push	{r4, r5, r6, r7, r8, r9, r10, fp, lr}
	.cfi_def_cfa_offset 36
	.cfi_offset 4, -36
	.cfi_offset 5, -32
	.cfi_offset 6, -28
	.cfi_offset 7, -24
	.cfi_offset 8, -20
	.cfi_offset 9, -16
	.cfi_offset 10, -12
	.cfi_offset 11, -8
	.cfi_offset 14, -4
	mov	r4, r0
	mov	r6, r3
	vpush.64	{d8}
	.cfi_def_cfa_offset 44
	.cfi_offset 80, -44
	.cfi_offset 81, -40
	sub	sp, sp, #36
	.cfi_def_cfa_offset 80
	.loc 5 53 1 view .LVU745
	mov	r5, r1
	.loc 5 53 16 view .LVU746
	movw	r0, #:lower16:.LC13
.LVL207:
	.loc 5 53 16 view .LVU747
	movt	r0, #:upper16:.LC13
	.loc 5 53 1 view .LVU748
	ldr	ip, [sp, #104]
	ldr	lr, [sp, #108]
	ldr	r3, [sp, #96]
.LVL208:
	.loc 5 53 1 view .LVU749
	ldr	r1, [sp, #100]
.LVL209:
	.loc 5 53 1 view .LVU750
	str	ip, [sp, #24]
	str	lr, [sp, #28]
	str	r2, [sp, #12]
	str	r3, [sp, #16]
	str	r1, [sp, #20]
	ldr	r10, [sp, #80]
	ldr	r9, [sp, #84]
	ldr	r7, [sp, #88]
	ldr	fp, [sp, #92]
	.loc 5 53 16 view .LVU751
	bl	fb_ErrorSetModName
.LVL210:
	.loc 5 53 16 view .LVU752
	vmov	s16, r0	@ int
.LVL211:
	.loc 5 53 2 is_stmt 1 view .LVU753
	.loc 5 53 2 view .LVU754
	.loc 5 53 16 is_stmt 0 view .LVU755
	movw	r0, #:lower16:.LC1
.LVL212:
	.loc 5 53 16 view .LVU756
	movt	r0, #:upper16:.LC1
	bl	fb_ErrorSetFuncName
.LVL213:
	mov	r8, r0
.LVL214:
	.loc 5 53 2 is_stmt 1 view .LVU757
	.loc 5 54 2 view .LVU758
	mov	r0, r4
.LVL215:
	.loc 5 54 2 is_stmt 0 view .LVU759
	bl	_ZN8HCONTROLC1Ev
.LVL216:
	.loc 5 54 2 is_stmt 1 view .LVU760
	.loc 5 54 18 is_stmt 0 view .LVU761
	mov	r0, r4
	ldr	r3, .L122
	.loc 5 54 20 view .LVU762
	mov	r2, r5
	.loc 5 54 2 view .LVU763
	mov	r5, #0
.LVL217:
	.loc 5 54 2 view .LVU764
	str	r5, [r4, #68]	@ unaligned
	.loc 5 54 2 is_stmt 1 view .LVU765
	str	r5, [r4, #72]	@ unaligned
	.loc 5 54 2 view .LVU766
	str	r5, [r4, #76]	@ unaligned
	.loc 5 54 2 view .LVU767
	str	r5, [r4, #80]	@ unaligned
	.loc 5 54 2 view .LVU768
	str	r5, [r4, #84]	@ unaligned
	.loc 5 54 2 view .LVU769
	strb	r5, [r4, #88]
	.loc 5 54 2 view .LVU770
	strb	r5, [r4, #89]
	.loc 5 54 2 view .LVU771
	strb	r5, [r4, #90]
	.loc 5 54 2 view .LVU772
	strb	r5, [r4, #91]
	.loc 5 54 2 view .LVU773
	strb	r5, [r4, #92]
	.loc 5 54 2 view .LVU774
	strb	r5, [r4, #93]
	.loc 5 54 2 view .LVU775
	strb	r5, [r4, #94]
	.loc 5 54 2 view .LVU776
	strb	r5, [r4, #95]
	.loc 5 54 2 view .LVU777
	str	r5, [r4, #96]	@ unaligned
	.loc 5 54 2 view .LVU778
	strb	r5, [r4, #100]
	.loc 5 54 2 view .LVU779
	strb	r5, [r4, #101]
	.loc 5 54 2 view .LVU780
	.loc 5 54 18 is_stmt 0 view .LVU781
	str	r3, [r0], #4
	.loc 5 54 2 is_stmt 1 view .LVU782
	.loc 5 54 20 is_stmt 0 view .LVU783
	mvn	r3, #0
	str	r5, [sp]
	mov	r1, r3
	bl	fb_StrAssign
.LVL218:
	.loc 5 55 2 is_stmt 1 view .LVU784
	.loc 5 55 33 is_stmt 0 view .LVU785
	ldr	r2, [sp, #12]
	str	r2, [r4, #16]
	.loc 5 56 2 is_stmt 1 view .LVU786
	.loc 5 66 20 is_stmt 0 view .LVU787
	mvn	r3, #0
	mov	r2, fp
	mov	r1, r3
	.loc 5 56 33 view .LVU788
	str	r6, [r4, #24]
	.loc 5 57 2 is_stmt 1 view .LVU789
	.loc 5 66 20 is_stmt 0 view .LVU790
	add	r0, r4, #56
	.loc 5 61 33 view .LVU791
	str	r6, [r4, #68]
	.loc 5 57 33 view .LVU792
	str	r10, [r4, #28]
	.loc 5 58 2 is_stmt 1 view .LVU793
	.loc 5 62 33 is_stmt 0 view .LVU794
	str	r10, [r4, #72]
	.loc 5 58 33 view .LVU795
	str	r9, [r4, #32]
	.loc 5 59 2 is_stmt 1 view .LVU796
	.loc 5 63 33 is_stmt 0 view .LVU797
	str	r9, [r4, #76]
	.loc 5 59 33 view .LVU798
	str	r7, [r4, #36]
	.loc 5 61 2 is_stmt 1 view .LVU799
	.loc 5 62 2 view .LVU800
	.loc 5 63 2 view .LVU801
	.loc 5 64 2 view .LVU802
	.loc 5 64 33 is_stmt 0 view .LVU803
	str	r7, [r4, #80]
	.loc 5 66 2 is_stmt 1 view .LVU804
	.loc 5 66 20 is_stmt 0 view .LVU805
	str	r5, [sp]
	bl	fb_StrAssign
.LVL219:
	.loc 5 67 2 is_stmt 1 view .LVU806
	.loc 5 67 34 is_stmt 0 view .LVU807
	ldr	r3, [sp, #16]
	.loc 5 68 33 view .LVU808
	ldr	r1, [sp, #20]
	.loc 5 86 2 view .LVU809
	mov	r0, r4
	.loc 5 68 33 view .LVU810
	ldr	ip, [sp, #24]
	ldr	lr, [sp, #28]
	.loc 5 67 34 view .LVU811
	str	r3, [r4, #40]
	.loc 5 68 2 is_stmt 1 view .LVU812
	.loc 5 69 2 view .LVU813
	.loc 5 70 2 view .LVU814
	.loc 5 72 35 is_stmt 0 view .LVU815
	movw	r3, #257
	movt	r3, 1
	.loc 5 68 33 view .LVU816
	str	r1, [r4, #44]
	str	ip, [r4, #48]
	str	lr, [r4, #52]
	.loc 5 72 2 is_stmt 1 view .LVU817
	.loc 5 73 2 view .LVU818
	.loc 5 74 2 view .LVU819
	.loc 5 75 2 view .LVU820
	.loc 5 76 2 view .LVU821
	.loc 5 77 2 view .LVU822
	.loc 5 78 2 view .LVU823
	.loc 5 79 2 view .LVU824
	.loc 5 80 2 view .LVU825
	.loc 5 72 35 is_stmt 0 view .LVU826
	str	r3, [r4, #88]
	str	r5, [r4, #92]
	.loc 5 81 2 is_stmt 1 view .LVU827
	.loc 5 79 36 is_stmt 0 view .LVU828
	strh	r5, [r4, #100]	@ movhi
	.loc 5 83 2 is_stmt 1 view .LVU829
	.loc 5 83 33 is_stmt 0 view .LVU830
	str	r5, [r4, #84]
	.loc 5 85 2 is_stmt 1 view .LVU831
	.loc 5 85 34 is_stmt 0 view .LVU832
	str	r5, [r4, #96]
	.loc 5 86 2 is_stmt 1 view .LVU833
	bl	_ZN9CPCWINDOW6REDRAWEv
.LVL220:
.LDL9:
	.loc 5 87 11 view .LVU834
	.loc 5 87 2 view .LVU835
	mov	r0, r8
	bl	fb_ErrorSetFuncName
.LVL221:
	.loc 5 87 2 view .LVU836
	vmov	r0, s16	@ int
	.loc 5 87 1 is_stmt 0 view .LVU837
	add	sp, sp, #36
	.cfi_def_cfa_offset 44
	@ sp needed
	vldm	sp!, {d8}
	.cfi_restore 80
	.cfi_restore 81
	.cfi_def_cfa_offset 36
.LVL222:
	.loc 5 87 1 view .LVU838
	pop	{r4, r5, r6, r7, r8, r9, r10, fp, lr}
	.cfi_restore 14
	.cfi_restore 11
	.cfi_restore 10
	.cfi_restore 9
	.cfi_restore 8
	.cfi_restore 7
	.cfi_restore 6
	.cfi_restore 5
	.cfi_restore 4
	.cfi_def_cfa_offset 0
.LVL223:
	.loc 5 87 2 view .LVU839
	b	fb_ErrorSetModName
.LVL224:
.L123:
	.loc 5 87 2 view .LVU840
	.align	2
.L122:
	.word	.LANCHOR0+20
	.cfi_endproc
.LFE2:
	.size	_ZN9CPCWINDOWC1ER8FBSTRINGlllllS1_jlll, .-_ZN9CPCWINDOWC1ER8FBSTRINGlllllS1_jlll
	.section	.rodata.str1.4
	.align	2
.LC40:
	.ascii	"ONMOVEWINDOW\000"
	.text
	.align	2
	.global	_ZN9CPCWINDOW12ONMOVEWINDOWEv
	.syntax unified
	.arm
	.fpu vfp
	.type	_ZN9CPCWINDOW12ONMOVEWINDOWEv, %function
_ZN9CPCWINDOW12ONMOVEWINDOWEv:
.LVL225:
.LFB4:
	.loc 5 97 1 is_stmt 1 view -0
	.cfi_startproc
	@ args = 0, pretend = 0, frame = 24
	@ frame_needed = 0, uses_anonymous_args = 0
.L125:
	.loc 5 97 2 view .LVU842
	.loc 5 97 2 view .LVU843
	.loc 5 97 2 view .LVU844
	.loc 5 97 2 view .LVU845
	.loc 5 97 11 view .LVU846
	.loc 5 97 2 view .LVU847
	.loc 5 97 1 is_stmt 0 view .LVU848
	push	{r4, r5, r6, lr}
	.cfi_def_cfa_offset 16
	.cfi_offset 4, -16
	.cfi_offset 5, -12
	.cfi_offset 6, -8
	.cfi_offset 14, -4
	mov	r4, r0
	.loc 5 97 16 view .LVU849
	movw	r0, #:lower16:.LC13
.LVL226:
	.loc 5 97 16 view .LVU850
	movt	r0, #:upper16:.LC13
	.loc 5 97 1 view .LVU851
	sub	sp, sp, #32
	.cfi_def_cfa_offset 48
	.loc 5 97 16 view .LVU852
	bl	fb_ErrorSetModName
.LVL227:
	mov	r5, r0
	.loc 5 97 16 view .LVU853
	movw	r0, #:lower16:.LC40
	movt	r0, #:upper16:.LC40
.LVL228:
	.loc 5 97 2 is_stmt 1 view .LVU854
	.loc 5 97 2 view .LVU855
	.loc 5 97 16 is_stmt 0 view .LVU856
	bl	fb_ErrorSetFuncName
.LVL229:
	.loc 5 100 2 view .LVU857
	add	r2, sp, #16
	add	r3, sp, #28
	str	r2, [sp]
	.loc 5 97 16 view .LVU858
	mov	r6, r0
.LVL230:
	.loc 5 97 2 is_stmt 1 view .LVU859
	.loc 5 98 2 view .LVU860
	.loc 5 98 2 view .LVU861
	mov	r2, #0
	.loc 5 100 2 is_stmt 0 view .LVU862
	add	r1, sp, #24
	str	r2, [sp, #20]
	.loc 5 98 2 is_stmt 1 view .LVU863
	.loc 5 98 2 view .LVU864
	str	r2, [sp, #24]
	.loc 5 98 2 view .LVU865
	.loc 5 98 2 view .LVU866
	.loc 5 100 2 is_stmt 0 view .LVU867
	add	r0, sp, #20
	str	r2, [sp, #28]
	.loc 5 100 2 is_stmt 1 view .LVU868
	.loc 5 100 11 is_stmt 0 view .LVU869
	str	r2, [sp, #16]
	.loc 5 100 2 is_stmt 1 view .LVU870
	.loc 5 100 11 is_stmt 0 view .LVU871
	str	r2, [sp, #12]
	.loc 5 100 2 is_stmt 1 view .LVU872
	add	r2, sp, #12
	bl	fb_GetMouse
.LVL231:
	.loc 5 101 2 view .LVU873
	.loc 5 101 4 is_stmt 0 view .LVU874
	ldr	r3, [r4, #84]
	cmp	r3, #0
	bne	.L132
	.loc 5 102 3 is_stmt 1 view .LVU875
	.loc 5 102 5 is_stmt 0 view .LVU876
	ldr	ip, [sp, #28]
	cmp	ip, #1
	beq	.L137
.L126:
.L127:
.L128:
.L129:
.L130:
.L131:
.L132:
	.loc 5 106 13 is_stmt 1 view .LVU877
	.loc 5 106 13 view .LVU878
	.loc 5 107 12 view .LVU879
	.loc 5 107 12 view .LVU880
	.loc 5 108 11 view .LVU881
	.loc 5 108 11 view .LVU882
	.loc 5 109 11 view .LVU883
	.loc 5 109 2 view .LVU884
	mov	r0, r6
	bl	fb_ErrorSetFuncName
.LVL232:
	.loc 5 109 2 view .LVU885
	mov	r0, r5
	bl	fb_ErrorSetModName
.LVL233:
	.loc 5 109 1 is_stmt 0 view .LVU886
	add	sp, sp, #32
	.cfi_remember_state
	.cfi_def_cfa_offset 16
	@ sp needed
	pop	{r4, r5, r6, pc}
.LVL234:
.L137:
	.cfi_restore_state
	.loc 5 103 4 is_stmt 1 view .LVU887
	.loc 5 103 24 is_stmt 0 view .LVU888
	ldr	r3, [r4, #24]
	.loc 5 103 22 view .LVU889
	ldr	r0, [sp, #20]
	.loc 5 103 103 view .LVU890
	ldr	lr, [r4, #32]
	.loc 5 103 11 view .LVU891
	cmp	r3, r0
	.loc 5 103 152 view .LVU892
	ldr	r2, [sp, #24]
	.loc 5 103 103 view .LVU893
	add	lr, r3, lr
	.loc 5 103 154 view .LVU894
	ldr	r1, [r4, #28]
	.loc 5 103 11 view .LVU895
	movge	r3, #0
	mvnlt	r3, #0
	.loc 5 103 58 view .LVU896
	cmp	r0, lr
	movge	r0, #0
	mvnlt	r0, #0
	.loc 5 103 141 view .LVU897
	cmp	r1, r2
	movge	lr, #0
	.loc 5 103 234 view .LVU898
	add	r1, r1, #25
	.loc 5 103 141 view .LVU899
	mvnlt	lr, #0
	.loc 5 103 189 view .LVU900
	cmp	r2, r1
	.loc 5 103 139 view .LVU901
	and	r3, r3, lr
	.loc 5 103 189 view .LVU902
	movge	r2, #0
	.loc 5 103 139 view .LVU903
	and	r3, r3, r0
	.loc 5 103 189 view .LVU904
	mvnlt	r2, #0
	.loc 5 103 6 view .LVU905
	tst	r3, r2
	.loc 5 104 5 is_stmt 1 view .LVU906
	.loc 5 104 38 is_stmt 0 view .LVU907
	strbne	ip, [r4, #93]
	.loc 5 105 5 is_stmt 1 view .LVU908
	.loc 5 105 20 is_stmt 0 view .LVU909
	movwne	r3, #:lower16:.LANCHOR1
	movtne	r3, #:upper16:.LANCHOR1
	ldrne	r2, [r4, #16]
	strne	r2, [r3]
	b	.L132
	.cfi_endproc
.LFE4:
	.size	_ZN9CPCWINDOW12ONMOVEWINDOWEv, .-_ZN9CPCWINDOW12ONMOVEWINDOWEv
	.section	.rodata.str1.4
	.align	2
.LC41:
	.ascii	"ONMINIMIZEWINDOW\000"
	.text
	.align	2
	.global	_ZN9CPCWINDOW16ONMINIMIZEWINDOWEv
	.syntax unified
	.arm
	.fpu vfp
	.type	_ZN9CPCWINDOW16ONMINIMIZEWINDOWEv, %function
_ZN9CPCWINDOW16ONMINIMIZEWINDOWEv:
.LVL235:
.LFB6:
	.loc 5 140 1 is_stmt 1 view -0
	.cfi_startproc
	@ args = 0, pretend = 0, frame = 24
	@ frame_needed = 0, uses_anonymous_args = 0
.L139:
	.loc 5 140 2 view .LVU911
	.loc 5 140 2 view .LVU912
	.loc 5 140 2 view .LVU913
	.loc 5 140 2 view .LVU914
	.loc 5 140 11 view .LVU915
	.loc 5 140 2 view .LVU916
	.loc 5 140 1 is_stmt 0 view .LVU917
	push	{r4, r5, r6, r7, lr}
	.cfi_def_cfa_offset 20
	.cfi_offset 4, -20
	.cfi_offset 5, -16
	.cfi_offset 6, -12
	.cfi_offset 7, -8
	.cfi_offset 14, -4
	mov	r5, r0
	.loc 5 140 16 view .LVU918
	movw	r0, #:lower16:.LC13
.LVL236:
	.loc 5 140 16 view .LVU919
	movt	r0, #:upper16:.LC13
	.loc 5 140 1 view .LVU920
	sub	sp, sp, #36
	.cfi_def_cfa_offset 56
	.loc 5 140 16 view .LVU921
	bl	fb_ErrorSetModName
.LVL237:
	mov	r6, r0
	.loc 5 140 16 view .LVU922
	movw	r0, #:lower16:.LC41
	movt	r0, #:upper16:.LC41
.LVL238:
	.loc 5 140 2 is_stmt 1 view .LVU923
	.loc 5 140 2 view .LVU924
	.loc 5 140 16 is_stmt 0 view .LVU925
	bl	fb_ErrorSetFuncName
.LVL239:
	.loc 5 143 2 view .LVU926
	add	r2, sp, #16
	add	r3, sp, #28
	str	r2, [sp]
	.loc 5 140 16 view .LVU927
	mov	r7, r0
.LVL240:
	.loc 5 140 2 is_stmt 1 view .LVU928
	.loc 5 141 2 view .LVU929
	.loc 5 141 2 view .LVU930
	.loc 5 143 2 is_stmt 0 view .LVU931
	add	r2, sp, #12
	add	r1, sp, #24
	add	r0, sp, #20
	mov	r4, #0
	str	r4, [sp, #20]
	.loc 5 141 2 is_stmt 1 view .LVU932
	.loc 5 141 2 view .LVU933
	str	r4, [sp, #24]
	.loc 5 141 2 view .LVU934
	.loc 5 141 2 view .LVU935
	str	r4, [sp, #28]
	.loc 5 143 2 view .LVU936
	.loc 5 143 11 is_stmt 0 view .LVU937
	str	r4, [sp, #16]
	.loc 5 143 2 is_stmt 1 view .LVU938
	.loc 5 143 11 is_stmt 0 view .LVU939
	str	r4, [sp, #12]
	.loc 5 143 2 is_stmt 1 view .LVU940
	bl	fb_GetMouse
.LVL241:
	.loc 5 144 2 view .LVU941
	.loc 5 144 4 is_stmt 0 view .LVU942
	ldr	r0, [sp, #28]
	cmp	r0, #1
	bne	.L146
	.loc 5 145 3 is_stmt 1 view .LVU943
	.loc 5 145 213 is_stmt 0 view .LVU944
	vldr.32	s13, [r5, #28]	@ int
	.loc 5 145 252 view .LVU945
	vldr.64	d7, .L151
	.loc 5 145 313 view .LVU946
	ldr	r3, [r5, #28]
	.loc 5 145 213 view .LVU947
	vcvt.f64.s32	d6, s13
	.loc 5 145 268 view .LVU948
	ldr	r2, [sp, #24]
	.loc 5 145 313 view .LVU949
	add	r3, r3, #25
	.loc 5 145 56 view .LVU950
	ldr	r1, [r5, #24]
	.loc 5 145 268 view .LVU951
	cmp	r2, r3
	.loc 5 145 56 view .LVU952
	ldr	r3, [r5, #32]
	.loc 5 145 21 view .LVU953
	ldr	ip, [sp, #20]
	.loc 5 145 268 view .LVU954
	movge	r2, #0
	.loc 5 145 252 view .LVU955
	vadd.f64	d6, d6, d7
	.loc 5 145 193 view .LVU956
	vldr.32	s15, [sp, #24]	@ int
	.loc 5 145 56 view .LVU957
	add	r1, r1, r3
	.loc 5 145 268 view .LVU958
	mvnlt	r2, #0
	.loc 5 145 90 view .LVU959
	sub	r3, r1, #27
	.loc 5 145 180 view .LVU960
	sub	r1, r1, #21
	.loc 5 145 193 view .LVU961
	vcvt.f64.s32	d7, s15
	.loc 5 145 10 view .LVU962
	cmp	r3, ip
	movge	r3, #0
	mvnlt	r3, #0
	.loc 5 145 100 view .LVU963
	cmp	ip, r1
	movge	r1, #0
	.loc 5 145 210 view .LVU964
	vcmpe.f64	d7, d6
	.loc 5 145 100 view .LVU965
	mvnlt	r1, #0
	.loc 5 145 98 view .LVU966
	and	r3, r3, r1
	.loc 5 145 266 view .LVU967
	and	r3, r3, r2
	.loc 5 145 210 view .LVU968
	vmrs	APSR_nzcv, FPSCR
	.loc 5 145 191 view .LVU969
	movle	r2, r4
	mvngt	r2, #0
	.loc 5 145 5 view .LVU970
	tst	r3, r2
	beq	.L146
.L142:
	.loc 5 147 4 is_stmt 1 view .LVU971
	.loc 5 148 6 is_stmt 0 view .LVU972
	ldrsb	r3, [r5, #94]
	.loc 5 156 19 view .LVU973
	ldr	r2, [r5, #16]
	.loc 5 148 6 view .LVU974
	cmp	r3, r4
	.loc 5 147 37 view .LVU975
	strb	r4, [r5, #95]
	.loc 5 148 4 is_stmt 1 view .LVU976
	.loc 5 148 57 view .LVU977
.LDL10:
	.loc 5 151 13 view .LVU978
	.loc 5 152 5 view .LVU979
	.loc 5 153 5 view .LVU980
	.loc 5 153 39 is_stmt 0 view .LVU981
	strbne	r0, [r5, #100]
	.loc 5 154 5 is_stmt 1 view .LVU982
	.loc 5 149 38 is_stmt 0 view .LVU983
	moveq	r4, r0
	strb	r4, [r5, #94]
	.loc 5 154 36 view .LVU984
	ldrne	r3, [r5, #80]
	.loc 5 150 36 view .LVU985
	ldreq	r3, [r5, #36]
	.loc 5 154 36 view .LVU986
	strne	r3, [r5, #36]
	.loc 5 149 5 is_stmt 1 view .LVU987
	.loc 5 150 5 view .LVU988
	.loc 5 150 36 is_stmt 0 view .LVU989
	streq	r3, [r5, #80]
	.loc 5 151 4 is_stmt 1 view .LVU990
	.loc 5 155 13 view .LVU991
	.loc 5 156 4 view .LVU992
	.loc 5 156 19 is_stmt 0 view .LVU993
	movw	r3, #:lower16:.LANCHOR1
	movt	r3, #:upper16:.LANCHOR1
	str	r2, [r3]
.L140:
.L143:
.L144:
.L145:
.L146:
	.loc 5 157 12 is_stmt 1 view .LVU994
	.loc 5 157 12 view .LVU995
	.loc 5 158 11 view .LVU996
	.loc 5 158 11 view .LVU997
	.loc 5 159 11 view .LVU998
	.loc 5 159 2 view .LVU999
	mov	r0, r7
	bl	fb_ErrorSetFuncName
.LVL242:
	.loc 5 159 2 view .LVU1000
	mov	r0, r6
	bl	fb_ErrorSetModName
.LVL243:
	.loc 5 159 1 is_stmt 0 view .LVU1001
	add	sp, sp, #36
	.cfi_def_cfa_offset 20
	@ sp needed
	pop	{r4, r5, r6, r7, pc}
.LVL244:
.L152:
	.loc 5 159 1 view .LVU1002
	.align	3
.L151:
	.word	0
	.word	1076035584
	.cfi_endproc
.LFE6:
	.size	_ZN9CPCWINDOW16ONMINIMIZEWINDOWEv, .-_ZN9CPCWINDOW16ONMINIMIZEWINDOWEv
	.section	.rodata.str1.4
	.align	2
.LC42:
	.ascii	"ONFOCUSWINDOW\000"
	.text
	.align	2
	.global	_ZN9CPCWINDOW13ONFOCUSWINDOWEv
	.syntax unified
	.arm
	.fpu vfp
	.type	_ZN9CPCWINDOW13ONFOCUSWINDOWEv, %function
_ZN9CPCWINDOW13ONFOCUSWINDOWEv:
.LVL245:
.LFB7:
	.loc 5 161 1 is_stmt 1 view -0
	.cfi_startproc
	@ args = 0, pretend = 0, frame = 24
	@ frame_needed = 0, uses_anonymous_args = 0
.L154:
	.loc 5 161 2 view .LVU1004
	.loc 5 161 2 view .LVU1005
	.loc 5 161 2 view .LVU1006
	.loc 5 161 2 view .LVU1007
	.loc 5 161 11 view .LVU1008
	.loc 5 161 2 view .LVU1009
	.loc 5 161 1 is_stmt 0 view .LVU1010
	push	{r4, r5, r6, lr}
	.cfi_def_cfa_offset 16
	.cfi_offset 4, -16
	.cfi_offset 5, -12
	.cfi_offset 6, -8
	.cfi_offset 14, -4
	mov	r4, r0
	.loc 5 161 16 view .LVU1011
	movw	r0, #:lower16:.LC13
.LVL246:
	.loc 5 161 16 view .LVU1012
	movt	r0, #:upper16:.LC13
	.loc 5 161 1 view .LVU1013
	sub	sp, sp, #32
	.cfi_def_cfa_offset 48
	.loc 5 161 16 view .LVU1014
	bl	fb_ErrorSetModName
.LVL247:
	mov	r5, r0
	.loc 5 161 16 view .LVU1015
	movw	r0, #:lower16:.LC42
	movt	r0, #:upper16:.LC42
.LVL248:
	.loc 5 161 2 is_stmt 1 view .LVU1016
	.loc 5 161 2 view .LVU1017
	.loc 5 161 16 is_stmt 0 view .LVU1018
	bl	fb_ErrorSetFuncName
.LVL249:
	.loc 5 164 2 view .LVU1019
	add	r2, sp, #16
	add	r3, sp, #28
	str	r2, [sp]
	.loc 5 161 16 view .LVU1020
	mov	r6, r0
.LVL250:
	.loc 5 161 2 is_stmt 1 view .LVU1021
	.loc 5 162 2 view .LVU1022
	.loc 5 162 2 view .LVU1023
	mov	r2, #0
	.loc 5 164 2 is_stmt 0 view .LVU1024
	add	r1, sp, #24
	str	r2, [sp, #20]
	.loc 5 162 2 is_stmt 1 view .LVU1025
	.loc 5 162 2 view .LVU1026
	str	r2, [sp, #24]
	.loc 5 162 2 view .LVU1027
	.loc 5 162 2 view .LVU1028
	.loc 5 164 2 is_stmt 0 view .LVU1029
	add	r0, sp, #20
	str	r2, [sp, #28]
	.loc 5 164 2 is_stmt 1 view .LVU1030
	.loc 5 164 11 is_stmt 0 view .LVU1031
	str	r2, [sp, #16]
	.loc 5 164 2 is_stmt 1 view .LVU1032
	.loc 5 164 11 is_stmt 0 view .LVU1033
	str	r2, [sp, #12]
	.loc 5 164 2 is_stmt 1 view .LVU1034
	add	r2, sp, #12
	bl	fb_GetMouse
.LVL251:
	.loc 5 165 2 view .LVU1035
	.loc 5 165 4 is_stmt 0 view .LVU1036
	ldr	ip, [sp, #28]
	cmp	ip, #1
	bne	.L159
	.loc 5 166 3 is_stmt 1 view .LVU1037
	.loc 5 166 23 is_stmt 0 view .LVU1038
	ldr	r3, [r4, #24]
	.loc 5 166 21 view .LVU1039
	ldr	r1, [sp, #20]
	.loc 5 166 102 view .LVU1040
	ldr	lr, [r4, #32]
	.loc 5 166 10 view .LVU1041
	cmp	r3, r1
	.loc 5 166 151 view .LVU1042
	ldr	r2, [sp, #24]
	.loc 5 166 102 view .LVU1043
	add	lr, r3, lr
	.loc 5 166 153 view .LVU1044
	ldr	r0, [r4, #28]
	.loc 5 166 10 view .LVU1045
	movge	r3, #0
	mvnlt	r3, #0
	.loc 5 166 57 view .LVU1046
	cmp	r1, lr
	.loc 5 166 233 view .LVU1047
	ldr	lr, [r4, #36]
	.loc 5 166 57 view .LVU1048
	movge	r1, #0
	mvnlt	r1, #0
	.loc 5 166 140 view .LVU1049
	cmp	r0, r2
	.loc 5 166 233 view .LVU1050
	add	lr, r0, lr
	.loc 5 166 140 view .LVU1051
	movge	r0, #0
	mvnlt	r0, #0
	.loc 5 166 188 view .LVU1052
	cmp	r2, lr
	.loc 5 166 138 view .LVU1053
	and	r3, r3, r0
	.loc 5 166 188 view .LVU1054
	movge	r2, #0
	.loc 5 166 138 view .LVU1055
	and	r3, r3, r1
	.loc 5 166 188 view .LVU1056
	mvnlt	r2, #0
	.loc 5 166 5 view .LVU1057
	tst	r3, r2
	.loc 5 167 4 is_stmt 1 view .LVU1058
	.loc 5 167 37 is_stmt 0 view .LVU1059
	strbne	ip, [r4, #92]
	.loc 5 168 4 is_stmt 1 view .LVU1060
	.loc 5 168 19 is_stmt 0 view .LVU1061
	movwne	r3, #:lower16:.LANCHOR1
	movtne	r3, #:upper16:.LANCHOR1
	ldrne	r2, [r4, #16]
	strne	r2, [r3]
.L155:
.L156:
.L157:
.L158:
.L159:
	.loc 5 169 12 is_stmt 1 view .LVU1062
	.loc 5 169 12 view .LVU1063
	.loc 5 170 11 view .LVU1064
	.loc 5 170 11 view .LVU1065
	.loc 5 171 11 view .LVU1066
	.loc 5 171 2 view .LVU1067
	mov	r0, r6
	bl	fb_ErrorSetFuncName
.LVL252:
	.loc 5 171 2 view .LVU1068
	mov	r0, r5
	bl	fb_ErrorSetModName
.LVL253:
	.loc 5 171 1 is_stmt 0 view .LVU1069
	add	sp, sp, #32
	.cfi_def_cfa_offset 16
	@ sp needed
	pop	{r4, r5, r6, pc}
	.loc 5 171 1 view .LVU1070
	.cfi_endproc
.LFE7:
	.size	_ZN9CPCWINDOW13ONFOCUSWINDOWEv, .-_ZN9CPCWINDOW13ONFOCUSWINDOWEv
	.section	.rodata.str1.4
	.align	2
.LC43:
	.ascii	"ONMAXIMIZEWINDOW\000"
	.text
	.align	2
	.global	_ZN9CPCWINDOW16ONMAXIMIZEWINDOWEv
	.syntax unified
	.arm
	.fpu vfp
	.type	_ZN9CPCWINDOW16ONMAXIMIZEWINDOWEv, %function
_ZN9CPCWINDOW16ONMAXIMIZEWINDOWEv:
.LVL254:
.LFB5:
	.loc 5 111 1 is_stmt 1 view -0
	.cfi_startproc
	@ args = 0, pretend = 0, frame = 24
	@ frame_needed = 0, uses_anonymous_args = 0
.L165:
	.loc 5 111 2 view .LVU1072
	.loc 5 111 2 view .LVU1073
	.loc 5 111 2 view .LVU1074
	.loc 5 111 2 view .LVU1075
	.loc 5 111 11 view .LVU1076
	.loc 5 111 2 view .LVU1077
	.loc 5 111 1 is_stmt 0 view .LVU1078
	push	{r4, r5, r6, r7, r8, r9, lr}
	.cfi_def_cfa_offset 28
	.cfi_offset 4, -28
	.cfi_offset 5, -24
	.cfi_offset 6, -20
	.cfi_offset 7, -16
	.cfi_offset 8, -12
	.cfi_offset 9, -8
	.cfi_offset 14, -4
	mov	r4, r0
	.loc 5 111 16 view .LVU1079
	movw	r0, #:lower16:.LC13
.LVL255:
	.loc 5 111 16 view .LVU1080
	movt	r0, #:upper16:.LC13
	.loc 5 111 1 view .LVU1081
	sub	sp, sp, #36
	.cfi_def_cfa_offset 64
	.loc 5 111 16 view .LVU1082
	bl	fb_ErrorSetModName
.LVL256:
	mov	r6, r0
	.loc 5 111 16 view .LVU1083
	movw	r0, #:lower16:.LC43
	movt	r0, #:upper16:.LC43
.LVL257:
	.loc 5 111 2 is_stmt 1 view .LVU1084
	.loc 5 111 2 view .LVU1085
	.loc 5 111 16 is_stmt 0 view .LVU1086
	bl	fb_ErrorSetFuncName
.LVL258:
	.loc 5 114 2 view .LVU1087
	add	r2, sp, #16
	add	r3, sp, #28
	str	r2, [sp]
	.loc 5 111 16 view .LVU1088
	mov	r7, r0
.LVL259:
	.loc 5 111 2 is_stmt 1 view .LVU1089
	.loc 5 112 2 view .LVU1090
	.loc 5 112 2 view .LVU1091
	.loc 5 114 2 is_stmt 0 view .LVU1092
	add	r2, sp, #12
	add	r1, sp, #24
	add	r0, sp, #20
	mov	r5, #0
	str	r5, [sp, #20]
	.loc 5 112 2 is_stmt 1 view .LVU1093
	.loc 5 112 2 view .LVU1094
	str	r5, [sp, #24]
	.loc 5 112 2 view .LVU1095
	.loc 5 112 2 view .LVU1096
	str	r5, [sp, #28]
	.loc 5 114 2 view .LVU1097
	.loc 5 114 11 is_stmt 0 view .LVU1098
	str	r5, [sp, #16]
	.loc 5 114 2 is_stmt 1 view .LVU1099
	.loc 5 114 11 is_stmt 0 view .LVU1100
	str	r5, [sp, #12]
	.loc 5 114 2 is_stmt 1 view .LVU1101
	bl	fb_GetMouse
.LVL260:
	.loc 5 115 2 view .LVU1102
	.loc 5 115 4 is_stmt 0 view .LVU1103
	ldr	r0, [sp, #28]
	cmp	r0, #1
	bne	.L172
	.loc 5 116 3 is_stmt 1 view .LVU1104
	.loc 5 116 221 is_stmt 0 view .LVU1105
	ldr	ip, [r4, #28]
	.loc 5 116 213 view .LVU1106
	vmov	s15, ip	@ int
	.loc 5 116 252 view .LVU1107
	vldr.64	d6, .L178
	.loc 5 116 268 view .LVU1108
	ldr	r2, [sp, #24]
	.loc 5 116 313 view .LVU1109
	add	r3, ip, #25
	.loc 5 116 213 view .LVU1110
	vcvt.f64.s32	d7, s15
	.loc 5 116 25 view .LVU1111
	ldr	r8, [r4, #24]
	.loc 5 116 58 view .LVU1112
	ldr	lr, [r4, #32]
	.loc 5 116 268 view .LVU1113
	cmp	r2, r3
	.loc 5 116 21 view .LVU1114
	ldr	r1, [sp, #20]
	.loc 5 116 268 view .LVU1115
	movge	r2, #0
	.loc 5 116 56 view .LVU1116
	add	r9, r8, lr
	.loc 5 116 268 view .LVU1117
	mvnlt	r2, #0
	.loc 5 116 252 view .LVU1118
	vadd.f64	d7, d7, d6
	.loc 5 116 193 view .LVU1119
	vldr.32	s13, [sp, #24]	@ int
	.loc 5 116 90 view .LVU1120
	sub	r3, r9, #41
	.loc 5 116 180 view .LVU1121
	sub	r9, r9, #35
	.loc 5 116 10 view .LVU1122
	cmp	r3, r1
	.loc 5 116 193 view .LVU1123
	vcvt.f64.s32	d6, s13
	.loc 5 116 10 view .LVU1124
	movge	r3, #0
	mvnlt	r3, #0
	.loc 5 116 100 view .LVU1125
	cmp	r1, r9
	movge	r1, #0
	mvnlt	r1, #0
	.loc 5 116 98 view .LVU1126
	and	r3, r3, r1
	.loc 5 116 210 view .LVU1127
	vcmpe.f64	d6, d7
	.loc 5 116 266 view .LVU1128
	and	r3, r3, r2
	.loc 5 116 210 view .LVU1129
	vmrs	APSR_nzcv, FPSCR
	.loc 5 116 191 view .LVU1130
	movle	r2, r5
	mvngt	r2, #0
	.loc 5 116 5 view .LVU1131
	tst	r3, r2
	beq	.L172
	.loc 5 118 4 is_stmt 1 view .LVU1132
	.loc 5 119 6 is_stmt 0 view .LVU1133
	ldrsb	r3, [r4, #95]
	.loc 5 118 37 view .LVU1134
	strb	r5, [r4, #94]
	.loc 5 119 4 is_stmt 1 view .LVU1135
	.loc 5 119 6 is_stmt 0 view .LVU1136
	cmp	r3, r5
	bne	.L177
	.loc 5 120 5 is_stmt 1 view .LVU1137
	.loc 5 121 5 view .LVU1138
	.loc 5 124 36 is_stmt 0 view .LVU1139
	ldr	r3, [r4, #36]
	.loc 5 120 38 view .LVU1140
	mov	r5, r0
	.loc 5 121 36 view .LVU1141
	str	r8, [r4, #68]
	.loc 5 122 5 is_stmt 1 view .LVU1142
	.loc 5 122 36 is_stmt 0 view .LVU1143
	str	ip, [r4, #72]
	.loc 5 123 5 is_stmt 1 view .LVU1144
	.loc 5 123 36 is_stmt 0 view .LVU1145
	str	lr, [r4, #76]
	.loc 5 124 5 is_stmt 1 view .LVU1146
	.loc 5 124 36 is_stmt 0 view .LVU1147
	str	r3, [r4, #80]
	.loc 5 125 4 is_stmt 1 view .LVU1148
.L168:
	.loc 5 133 19 is_stmt 0 view .LVU1149
	movw	r3, #:lower16:.LANCHOR1
	movt	r3, #:upper16:.LANCHOR1
	ldr	r2, [r4, #16]
	.loc 5 135 4 view .LVU1150
	mov	r0, r4
	strb	r5, [r4, #95]
	.loc 5 132 13 is_stmt 1 view .LVU1151
	.loc 5 133 4 view .LVU1152
	.loc 5 133 19 is_stmt 0 view .LVU1153
	str	r2, [r3]
	.loc 5 134 4 is_stmt 1 view .LVU1154
	.loc 5 134 37 is_stmt 0 view .LVU1155
	mov	r3, #1
	strb	r3, [r4, #92]
	.loc 5 135 4 is_stmt 1 view .LVU1156
	bl	_ZN9CPCWINDOW13ONFOCUSWINDOWEv
.LVL261:
.L166:
.L169:
.L170:
.L171:
.L172:
	.loc 5 136 12 view .LVU1157
	.loc 5 136 12 view .LVU1158
	.loc 5 137 11 view .LVU1159
	.loc 5 137 11 view .LVU1160
	.loc 5 138 11 view .LVU1161
	.loc 5 138 2 view .LVU1162
	mov	r0, r7
	bl	fb_ErrorSetFuncName
.LVL262:
	.loc 5 138 2 view .LVU1163
	mov	r0, r6
	bl	fb_ErrorSetModName
.LVL263:
	.loc 5 138 1 is_stmt 0 view .LVU1164
	add	sp, sp, #36
	.cfi_remember_state
	.cfi_def_cfa_offset 28
	@ sp needed
	pop	{r4, r5, r6, r7, r8, r9, pc}
.LVL264:
.L177:
	.cfi_restore_state
	.loc 5 119 57 is_stmt 1 discriminator 1 view .LVU1165
.LDL11:
	.loc 5 125 13 discriminator 1 view .LVU1166
	.loc 5 126 5 discriminator 1 view .LVU1167
	.loc 5 127 5 discriminator 1 view .LVU1168
	ldr	r3, [r4, #72]
	.loc 5 128 36 is_stmt 0 discriminator 1 view .LVU1169
	str	r3, [r4, #28]
	ldr	r3, [r4, #76]
	str	r3, [r4, #32]
	ldr	r3, [r4, #80]
	str	r3, [r4, #36]
	ldr	r3, [r4, #68]
	.loc 5 127 39 discriminator 1 view .LVU1170
	strb	r0, [r4, #101]
	.loc 5 128 5 is_stmt 1 discriminator 1 view .LVU1171
	.loc 5 129 5 discriminator 1 view .LVU1172
	.loc 5 130 5 discriminator 1 view .LVU1173
	.loc 5 131 5 discriminator 1 view .LVU1174
	.loc 5 128 36 is_stmt 0 discriminator 1 view .LVU1175
	str	r3, [r4, #24]
	b	.L168
.L179:
	.align	3
.L178:
	.word	0
	.word	1076035584
	.cfi_endproc
.LFE5:
	.size	_ZN9CPCWINDOW16ONMAXIMIZEWINDOWEv, .-_ZN9CPCWINDOW16ONMAXIMIZEWINDOWEv
	.section	.rodata.str1.4
	.align	2
.LC44:
	.ascii	"ONCLOSEWINDOW\000"
	.text
	.align	2
	.global	_ZN9CPCWINDOW13ONCLOSEWINDOWEv
	.syntax unified
	.arm
	.fpu vfp
	.type	_ZN9CPCWINDOW13ONCLOSEWINDOWEv, %function
_ZN9CPCWINDOW13ONCLOSEWINDOWEv:
.LVL265:
.LFB8:
	.loc 5 173 1 is_stmt 1 view -0
	.cfi_startproc
	@ args = 0, pretend = 0, frame = 24
	@ frame_needed = 0, uses_anonymous_args = 0
.L181:
	.loc 5 173 2 view .LVU1177
	.loc 5 173 2 view .LVU1178
	.loc 5 173 2 view .LVU1179
	.loc 5 173 2 view .LVU1180
	.loc 5 173 11 view .LVU1181
	.loc 5 173 2 view .LVU1182
	.loc 5 173 1 is_stmt 0 view .LVU1183
	push	{r4, r5, r6, lr}
	.cfi_def_cfa_offset 16
	.cfi_offset 4, -16
	.cfi_offset 5, -12
	.cfi_offset 6, -8
	.cfi_offset 14, -4
	mov	r4, r0
	.loc 5 173 16 view .LVU1184
	movw	r0, #:lower16:.LC13
.LVL266:
	.loc 5 173 16 view .LVU1185
	movt	r0, #:upper16:.LC13
	.loc 5 173 1 view .LVU1186
	sub	sp, sp, #32
	.cfi_def_cfa_offset 48
	.loc 5 173 16 view .LVU1187
	bl	fb_ErrorSetModName
.LVL267:
	mov	r5, r0
	.loc 5 173 16 view .LVU1188
	movw	r0, #:lower16:.LC44
	movt	r0, #:upper16:.LC44
.LVL268:
	.loc 5 173 2 is_stmt 1 view .LVU1189
	.loc 5 173 2 view .LVU1190
	.loc 5 173 16 is_stmt 0 view .LVU1191
	bl	fb_ErrorSetFuncName
.LVL269:
	.loc 5 176 2 view .LVU1192
	add	r2, sp, #16
	add	r3, sp, #28
	str	r2, [sp]
	.loc 5 173 16 view .LVU1193
	mov	r6, r0
.LVL270:
	.loc 5 173 2 is_stmt 1 view .LVU1194
	.loc 5 174 2 view .LVU1195
	.loc 5 174 2 view .LVU1196
	mov	r2, #0
	.loc 5 176 2 is_stmt 0 view .LVU1197
	add	r1, sp, #24
	str	r2, [sp, #20]
	.loc 5 174 2 is_stmt 1 view .LVU1198
	.loc 5 174 2 view .LVU1199
	str	r2, [sp, #24]
	.loc 5 174 2 view .LVU1200
	.loc 5 174 2 view .LVU1201
	.loc 5 176 2 is_stmt 0 view .LVU1202
	add	r0, sp, #20
	str	r2, [sp, #28]
	.loc 5 176 2 is_stmt 1 view .LVU1203
	.loc 5 176 11 is_stmt 0 view .LVU1204
	str	r2, [sp, #16]
	.loc 5 176 2 is_stmt 1 view .LVU1205
	.loc 5 176 11 is_stmt 0 view .LVU1206
	str	r2, [sp, #12]
	.loc 5 176 2 is_stmt 1 view .LVU1207
	add	r2, sp, #12
	bl	fb_GetMouse
.LVL271:
	.loc 5 177 2 view .LVU1208
	.loc 5 177 4 is_stmt 0 view .LVU1209
	ldr	ip, [sp, #28]
	cmp	ip, #1
	bne	.L186
	.loc 5 178 3 is_stmt 1 view .LVU1210
	.loc 5 178 212 is_stmt 0 view .LVU1211
	vldr.32	s13, [r4, #28]	@ int
	.loc 5 178 251 view .LVU1212
	vldr.64	d7, .L191
	.loc 5 178 312 view .LVU1213
	ldr	r3, [r4, #28]
	.loc 5 178 212 view .LVU1214
	vcvt.f64.s32	d6, s13
	.loc 5 178 267 view .LVU1215
	ldr	r2, [sp, #24]
	.loc 5 178 312 view .LVU1216
	add	r3, r3, #25
	.loc 5 178 56 view .LVU1217
	ldr	r1, [r4, #24]
	.loc 5 178 267 view .LVU1218
	cmp	r2, r3
	.loc 5 178 56 view .LVU1219
	ldr	r3, [r4, #32]
	.loc 5 178 21 view .LVU1220
	ldr	r0, [sp, #20]
	.loc 5 178 267 view .LVU1221
	movge	r2, #0
	.loc 5 178 251 view .LVU1222
	vadd.f64	d6, d6, d7
	.loc 5 178 192 view .LVU1223
	vldr.32	s15, [sp, #24]	@ int
	.loc 5 178 56 view .LVU1224
	add	r1, r1, r3
	.loc 5 178 267 view .LVU1225
	mvnlt	r2, #0
	.loc 5 178 90 view .LVU1226
	sub	r3, r1, #13
	.loc 5 178 180 view .LVU1227
	sub	r1, r1, #7
	.loc 5 178 192 view .LVU1228
	vcvt.f64.s32	d7, s15
	.loc 5 178 10 view .LVU1229
	cmp	r3, r0
	movge	r3, #0
	mvnlt	r3, #0
	.loc 5 178 100 view .LVU1230
	cmp	r0, r1
	movge	r1, #0
	.loc 5 178 209 view .LVU1231
	vcmpe.f64	d7, d6
	.loc 5 178 100 view .LVU1232
	mvnlt	r1, #0
	.loc 5 178 98 view .LVU1233
	and	r3, r3, r1
	.loc 5 178 265 view .LVU1234
	and	r3, r3, r2
	.loc 5 178 209 view .LVU1235
	vmrs	APSR_nzcv, FPSCR
	.loc 5 178 190 view .LVU1236
	movle	r2, #0
	mvngt	r2, #0
	.loc 5 178 5 view .LVU1237
	tst	r3, r2
	.loc 5 180 4 is_stmt 1 view .LVU1238
	.loc 5 180 37 is_stmt 0 view .LVU1239
	strbne	ip, [r4, #91]
	.loc 5 181 4 is_stmt 1 view .LVU1240
	.loc 5 181 19 is_stmt 0 view .LVU1241
	movwne	r3, #:lower16:.LANCHOR1
	movtne	r3, #:upper16:.LANCHOR1
	ldrne	r2, [r4, #16]
	strne	r2, [r3]
.L182:
.L183:
.L184:
.L185:
.L186:
	.loc 5 182 12 is_stmt 1 view .LVU1242
	.loc 5 182 12 view .LVU1243
	.loc 5 183 11 view .LVU1244
	.loc 5 183 11 view .LVU1245
	.loc 5 184 11 view .LVU1246
	.loc 5 184 2 view .LVU1247
	mov	r0, r6
	bl	fb_ErrorSetFuncName
.LVL272:
	.loc 5 184 2 view .LVU1248
	mov	r0, r5
	bl	fb_ErrorSetModName
.LVL273:
	.loc 5 184 1 is_stmt 0 view .LVU1249
	add	sp, sp, #32
	.cfi_def_cfa_offset 16
	@ sp needed
	pop	{r4, r5, r6, pc}
.LVL274:
.L192:
	.loc 5 184 1 view .LVU1250
	.align	3
.L191:
	.word	0
	.word	1076035584
	.cfi_endproc
.LFE8:
	.size	_ZN9CPCWINDOW13ONCLOSEWINDOWEv, .-_ZN9CPCWINDOW13ONCLOSEWINDOWEv
	.section	.rodata.str1.4
	.align	2
.LC45:
	.ascii	"DOEVENTS\000"
	.text
	.align	2
	.global	_ZN9CPCWINDOW8DOEVENTSEv
	.syntax unified
	.arm
	.fpu vfp
	.type	_ZN9CPCWINDOW8DOEVENTSEv, %function
_ZN9CPCWINDOW8DOEVENTSEv:
.LVL275:
.LFB3:
	.loc 5 89 1 is_stmt 1 view -0
	.cfi_startproc
	@ args = 0, pretend = 0, frame = 0
	@ frame_needed = 0, uses_anonymous_args = 0
.L194:
	.loc 5 89 2 view .LVU1252
	.loc 5 89 2 view .LVU1253
	.loc 5 89 11 view .LVU1254
	.loc 5 89 2 view .LVU1255
	.loc 5 89 1 is_stmt 0 view .LVU1256
	push	{r4, r5, r6, lr}
	.cfi_def_cfa_offset 16
	.cfi_offset 4, -16
	.cfi_offset 5, -12
	.cfi_offset 6, -8
	.cfi_offset 14, -4
	.loc 5 89 1 view .LVU1257
	mov	r4, r0
	.loc 5 89 16 view .LVU1258
	movw	r0, #:lower16:.LC13
.LVL276:
	.loc 5 89 16 view .LVU1259
	movt	r0, #:upper16:.LC13
	bl	fb_ErrorSetModName
.LVL277:
	mov	r5, r0
	.loc 5 89 16 view .LVU1260
	movw	r0, #:lower16:.LC45
	movt	r0, #:upper16:.LC45
.LVL278:
	.loc 5 89 2 is_stmt 1 view .LVU1261
	.loc 5 89 2 view .LVU1262
	.loc 5 89 16 is_stmt 0 view .LVU1263
	bl	fb_ErrorSetFuncName
.LVL279:
	mov	r6, r0
	.loc 5 90 2 view .LVU1264
	mov	r0, r4
.LVL280:
	.loc 5 89 2 is_stmt 1 view .LVU1265
	.loc 5 90 2 view .LVU1266
	bl	_ZN9CPCWINDOW13ONCLOSEWINDOWEv
.LVL281:
	.loc 5 91 2 view .LVU1267
	mov	r0, r4
	bl	_ZN9CPCWINDOW13ONFOCUSWINDOWEv
.LVL282:
	.loc 5 92 2 view .LVU1268
	mov	r0, r4
	bl	_ZN9CPCWINDOW12ONMOVEWINDOWEv
.LVL283:
	.loc 5 93 2 view .LVU1269
	mov	r0, r4
	bl	_ZN9CPCWINDOW16ONMINIMIZEWINDOWEv
.LVL284:
	.loc 5 94 2 view .LVU1270
	mov	r0, r4
	bl	_ZN9CPCWINDOW16ONMAXIMIZEWINDOWEv
.LVL285:
.LDL12:
	.loc 5 95 11 view .LVU1271
	.loc 5 95 2 view .LVU1272
	mov	r0, r6
	bl	fb_ErrorSetFuncName
.LVL286:
	.loc 5 95 2 view .LVU1273
	mov	r0, r5
	.loc 5 95 1 is_stmt 0 view .LVU1274
	pop	{r4, r5, r6, lr}
	.cfi_restore 14
	.cfi_restore 6
	.cfi_restore 5
	.cfi_restore 4
	.cfi_def_cfa_offset 0
.LVL287:
	.loc 5 95 2 view .LVU1275
	b	fb_ErrorSetModName
.LVL288:
	.loc 5 95 2 view .LVU1276
	.cfi_endproc
.LFE3:
	.size	_ZN9CPCWINDOW8DOEVENTSEv, .-_ZN9CPCWINDOW8DOEVENTSEv
	.section	.rodata.str1.4
	.align	2
.LC46:
	.ascii	"NEWWINDOW\000"
	.text
	.align	2
	.global	NEWWINDOW
	.syntax unified
	.arm
	.fpu vfp
	.type	NEWWINDOW, %function
NEWWINDOW:
.LVL289:
.LFB10:
	.loc 5 279 1 is_stmt 1 view -0
	.cfi_startproc
	@ args = 24, pretend = 0, frame = 40
	@ frame_needed = 0, uses_anonymous_args = 0
.L197:
	.loc 5 279 2 view .LVU1278
	.loc 5 279 2 view .LVU1279
	.loc 5 279 2 view .LVU1280
	.loc 5 279 2 view .LVU1281
	.loc 5 279 11 view .LVU1282
	.loc 5 279 2 view .LVU1283
	.loc 5 279 1 is_stmt 0 view .LVU1284
	push	{r4, r5, r6, r7, r8, r9, r10, fp, lr}
	.cfi_def_cfa_offset 36
	.cfi_offset 4, -36
	.cfi_offset 5, -32
	.cfi_offset 6, -28
	.cfi_offset 7, -24
	.cfi_offset 8, -20
	.cfi_offset 9, -16
	.cfi_offset 10, -12
	.cfi_offset 11, -8
	.cfi_offset 14, -4
	.loc 5 281 21 view .LVU1285
	movw	r4, #:lower16:.LANCHOR1
	movt	r4, #:upper16:.LANCHOR1
	.loc 5 279 1 view .LVU1286
	sub	sp, sp, #76
	.cfi_def_cfa_offset 112
	.loc 5 279 1 view .LVU1287
	mov	r7, r0
	.loc 5 279 16 view .LVU1288
	movw	r0, #:lower16:.LC13
.LVL290:
	.loc 5 279 16 view .LVU1289
	movt	r0, #:upper16:.LC13
	.loc 5 279 1 view .LVU1290
	mov	r8, r1
	mov	r9, r2
	str	r3, [sp, #36]
	movw	r5, #:lower16:.LANCHOR0
	movt	r5, #:upper16:.LANCHOR0
	ldr	r3, [sp, #116]
.LVL291:
	.loc 5 279 1 view .LVU1291
	str	r3, [sp, #44]
	movw	r6, #:lower16:.LC13
	movt	r6, #:upper16:.LC13
	ldr	r3, [sp, #120]
	str	r3, [sp, #48]
	ldr	r3, [sp, #124]
	ldr	ip, [sp, #112]
	str	r3, [sp, #52]
	ldr	r3, [sp, #128]
	str	r3, [sp, #56]
	str	ip, [sp, #40]
	ldr	r10, [sp, #132]
	.loc 5 279 16 view .LVU1292
	bl	fb_ErrorSetModName
.LVL292:
	.loc 5 279 16 view .LVU1293
	str	r0, [sp, #60]
.LVL293:
	.loc 5 279 2 is_stmt 1 view .LVU1294
	.loc 5 279 2 view .LVU1295
	.loc 5 279 16 is_stmt 0 view .LVU1296
	movw	r0, #:lower16:.LC46
.LVL294:
	.loc 5 279 16 view .LVU1297
	movt	r0, #:upper16:.LC46
	bl	fb_ErrorSetFuncName
.LVL295:
	.loc 5 281 42 view .LVU1298
	ldr	r3, [r4, #16]
	.loc 5 279 16 view .LVU1299
	str	r0, [sp, #64]
.LVL296:
	.loc 5 279 2 is_stmt 1 view .LVU1300
	.loc 5 281 2 view .LVU1301
	.loc 5 281 42 is_stmt 0 view .LVU1302
	add	r3, r3, #1
	.loc 5 281 21 view .LVU1303
	str	r3, [r4, #16]
.LVL297:
.L198:
	.loc 5 282 11 is_stmt 1 view .LVU1304
	.loc 5 282 2 view .LVU1305
	.loc 5 282 15 is_stmt 0 view .LVU1306
	ldr	r3, [r4, #16]
	mov	r1, #4
	str	r3, [sp, #8]
	mvn	r2, #0
	mov	r3, #1
	ldr	r0, .L214
	str	r3, [sp, #4]
	str	r3, [sp]
	mov	r3, #0
	bl	fb_ArrayRedimPresvEx
.LVL298:
	.loc 5 282 2 is_stmt 1 view .LVU1307
	.loc 5 282 4 is_stmt 0 view .LVU1308
	cmp	r0, #0
	bne	.L212
.LVL299:
.L199:
	.loc 5 282 11 is_stmt 1 discriminator 3 view .LVU1309
	.loc 5 283 2 discriminator 3 view .LVU1310
	.loc 5 283 15 is_stmt 0 discriminator 3 view .LVU1311
	mov	r0, #104
	bl	malloc
.LVL300:
	.loc 5 283 2 is_stmt 1 discriminator 3 view .LVU1312
	.loc 5 283 2 discriminator 3 view .LVU1313
	.loc 5 283 4 is_stmt 0 discriminator 3 view .LVU1314
	subs	r3, r0, #0
	str	r3, [sp, #68]
	beq	.L202
	.loc 5 283 2 is_stmt 1 discriminator 2 view .LVU1315
	ldr	r3, [sp, #56]
	mov	r1, r7
	str	r3, [sp, #24]
	ldr	r3, [sp, #52]
	str	r3, [sp, #20]
	ldr	r3, [sp, #48]
	str	r3, [sp, #16]
	ldr	r3, [sp, #44]
	str	r3, [sp, #12]
	ldr	r3, [sp, #40]
	str	r3, [sp, #8]
	ldr	r3, [sp, #36]
	str	r3, [sp, #4]
	mov	r3, r8
	ldr	r2, [r4, #16]
	str	r10, [sp, #28]
	str	r9, [sp]
	bl	_ZN9CPCWINDOWC1ER8FBSTRINGlllllS1_jlll
.LVL301:
.L202:
	.loc 5 283 11 discriminator 4 view .LVU1316
	.loc 5 283 2 discriminator 4 view .LVU1317
	.loc 5 283 12 is_stmt 0 discriminator 4 view .LVU1318
	ldr	fp, [r4, #16]
.LVL302:
	.loc 5 283 2 is_stmt 1 discriminator 4 view .LVU1319
	.loc 5 283 16 is_stmt 0 discriminator 4 view .LVU1320
	movw	r3, #283
	ldr	r2, [r5, #52]
	ldr	r1, [r5, #48]
	mov	r0, fp
	str	r6, [sp]
	bl	fb_ArrayBoundChk
.LVL303:
	.loc 5 283 2 is_stmt 1 discriminator 4 view .LVU1321
	.loc 5 283 4 is_stmt 0 discriminator 4 view .LVU1322
	cmp	r0, #0
	.loc 5 283 4 discriminator 4 view .LVU1323
	beq	.L213
	mov	pc, r0	@ indirect register jump
.LVL304:
.L212:
	.loc 5 282 2 is_stmt 1 discriminator 2 view .LVU1324
	.loc 5 282 15 is_stmt 0 discriminator 2 view .LVU1325
	ldr	r3, .L214+4
	movw	r1, #:lower16:.LC13
	movt	r1, #:upper16:.LC13
	ldr	r2, .L214+8
	movw	r0, #282
.LVL305:
	.loc 5 282 15 discriminator 2 view .LVU1326
	bl	fb_ErrorThrowAt
.LVL306:
	.loc 5 282 2 is_stmt 1 discriminator 2 view .LVU1327
	mov	pc, r0	@ indirect register jump
.LVL307:
.L213:
	.loc 5 283 19 discriminator 5 view .LVU1328
.LDL13:
	.loc 5 283 11 discriminator 5 view .LVU1329
	.loc 5 283 2 discriminator 5 view .LVU1330
	.loc 5 283 74 is_stmt 0 discriminator 5 view .LVU1331
	ldr	r3, [r5, #24]
	ldr	r2, [sp, #68]
	.loc 5 284 2 discriminator 5 view .LVU1332
	ldr	r0, [sp, #64]
.LVL308:
	.loc 5 283 74 discriminator 5 view .LVU1333
	str	r2, [r3, fp, lsl #2]
.LDL14:
	.loc 5 284 11 is_stmt 1 discriminator 5 view .LVU1334
	.loc 5 284 2 discriminator 5 view .LVU1335
	bl	fb_ErrorSetFuncName
.LVL309:
	.loc 5 284 2 discriminator 5 view .LVU1336
	ldr	r0, [sp, #60]
	.loc 5 284 1 is_stmt 0 discriminator 5 view .LVU1337
	add	sp, sp, #76
	.cfi_def_cfa_offset 36
	@ sp needed
	pop	{r4, r5, r6, r7, r8, r9, r10, fp, lr}
	.cfi_restore 14
	.cfi_restore 11
	.cfi_restore 10
	.cfi_restore 9
	.cfi_restore 8
	.cfi_restore 7
	.cfi_restore 6
	.cfi_restore 5
	.cfi_restore 4
	.cfi_def_cfa_offset 0
.LVL310:
	.loc 5 284 2 discriminator 5 view .LVU1338
	b	fb_ErrorSetModName
.LVL311:
.L215:
	.align	2
.L214:
	.word	.LANCHOR0+24
	.word	.L199
	.word	.L198
	.cfi_endproc
.LFE10:
	.size	NEWWINDOW, .-NEWWINDOW
	.align	2
	.global	_ZN8TEXTBOXHC1Ev
	.syntax unified
	.arm
	.fpu vfp
	.type	_ZN8TEXTBOXHC1Ev, %function
_ZN8TEXTBOXHC1Ev:
.LVL312:
.LFB12:
	.loc 6 14 1 is_stmt 1 view -0
	.cfi_startproc
	@ args = 0, pretend = 0, frame = 0
	@ frame_needed = 0, uses_anonymous_args = 0
	.loc 6 14 2 view .LVU1340
	.loc 6 14 2 view .LVU1341
	.loc 6 14 2 view .LVU1342
	.loc 6 14 1 is_stmt 0 view .LVU1343
	push	{r4, lr}
	.cfi_def_cfa_offset 8
	.cfi_offset 4, -8
	.cfi_offset 14, -4
	.loc 6 14 1 view .LVU1344
	mov	r4, r0
	.loc 6 14 2 view .LVU1345
	bl	_ZN8HCONTROLC1Ev
.LVL313:
	.loc 6 14 2 is_stmt 1 view .LVU1346
	.loc 6 14 18 is_stmt 0 view .LVU1347
	ldr	r2, .L218
	.loc 6 14 2 view .LVU1348
	mov	r3, #0
	.loc 6 14 18 view .LVU1349
	str	r2, [r4]
	.loc 6 14 17 view .LVU1350
	movw	r0, #:lower16:.LC32
	movt	r0, #:upper16:.LC32
	.loc 6 14 2 view .LVU1351
	str	r3, [r4, #68]	@ unaligned
	.loc 6 14 2 is_stmt 1 view .LVU1352
	str	r3, [r4, #72]	@ unaligned
	.loc 6 14 2 view .LVU1353
	str	r3, [r4, #76]	@ unaligned
	.loc 6 14 2 view .LVU1354
	str	r3, [r4, #80]	@ unaligned
	.loc 6 14 2 view .LVU1355
	str	r3, [r4, #84]	@ unaligned
	.loc 6 14 2 view .LVU1356
	str	r3, [r4, #88]	@ unaligned
	.loc 6 14 2 view .LVU1357
	strb	r3, [r4, #92]
	.loc 6 14 2 view .LVU1358
	.loc 6 14 2 view .LVU1359
	.loc 6 14 17 is_stmt 0 view .LVU1360
	bl	fb_ErrorSetModName
.LVL314:
	mov	r4, r0
.LVL315:
	.loc 6 14 17 view .LVU1361
	movw	r0, #:lower16:.LC1
	movt	r0, #:upper16:.LC1
.LVL316:
	.loc 6 14 2 is_stmt 1 view .LVU1362
	.loc 6 14 2 view .LVU1363
	.loc 6 14 17 is_stmt 0 view .LVU1364
	bl	fb_ErrorSetFuncName
.LVL317:
	.loc 6 14 2 is_stmt 1 view .LVU1365
.LDL15:
.LDL16:
	.loc 6 14 12 view .LVU1366
	.loc 6 15 12 view .LVU1367
	.loc 6 15 2 view .LVU1368
	bl	fb_ErrorSetFuncName
.LVL318:
	.loc 6 15 2 view .LVU1369
	mov	r0, r4
	.loc 6 15 1 is_stmt 0 view .LVU1370
	pop	{r4, lr}
	.cfi_restore 14
	.cfi_restore 4
	.cfi_def_cfa_offset 0
.LVL319:
	.loc 6 15 2 view .LVU1371
	b	fb_ErrorSetModName
.LVL320:
.L219:
	.loc 6 15 2 view .LVU1372
	.align	2
.L218:
	.word	.LANCHOR0+148
	.cfi_endproc
.LFE12:
	.size	_ZN8TEXTBOXHC1Ev, .-_ZN8TEXTBOXHC1Ev
	.align	2
	.global	_ZN8TEXTBOXHC1ER8FBSTRINGllllll
	.syntax unified
	.arm
	.fpu vfp
	.type	_ZN8TEXTBOXHC1ER8FBSTRINGllllll, %function
_ZN8TEXTBOXHC1ER8FBSTRINGllllll:
.LVL321:
.LFB13:
	.loc 6 17 1 is_stmt 1 view -0
	.cfi_startproc
	@ args = 16, pretend = 0, frame = 16
	@ frame_needed = 0, uses_anonymous_args = 0
.L221:
	.loc 6 17 2 view .LVU1374
	.loc 6 17 2 view .LVU1375
	.loc 6 17 2 view .LVU1376
	.loc 6 17 2 view .LVU1377
	.loc 6 17 2 view .LVU1378
	.loc 6 17 2 view .LVU1379
	.loc 6 17 12 view .LVU1380
	.loc 6 17 2 view .LVU1381
	.loc 6 17 1 is_stmt 0 view .LVU1382
	push	{r4, r5, r6, r7, r8, r9, r10, fp, lr}
	.cfi_def_cfa_offset 36
	.cfi_offset 4, -36
	.cfi_offset 5, -32
	.cfi_offset 6, -28
	.cfi_offset 7, -24
	.cfi_offset 8, -20
	.cfi_offset 9, -16
	.cfi_offset 10, -12
	.cfi_offset 11, -8
	.cfi_offset 14, -4
	.loc 6 17 16 view .LVU1383
	movw	r6, #:lower16:.LC32
	movt	r6, #:upper16:.LC32
	.loc 6 17 1 view .LVU1384
	sub	sp, sp, #28
	.cfi_def_cfa_offset 64
	.loc 6 17 1 view .LVU1385
	mov	r4, r0
	mov	r7, r3
	mov	r5, r1
	.loc 6 17 16 view .LVU1386
	mov	r0, r6
.LVL322:
	.loc 6 17 1 view .LVU1387
	ldr	r3, [sp, #72]
.LVL323:
	.loc 6 17 1 view .LVU1388
	ldr	r1, [sp, #76]
.LVL324:
	.loc 6 17 1 view .LVU1389
	str	r2, [sp, #12]
	str	r3, [sp, #16]
	str	r1, [sp, #20]
	ldr	r9, [sp, #64]
	ldr	r8, [sp, #68]
	.loc 6 17 16 view .LVU1390
	bl	fb_ErrorSetModName
.LVL325:
	.loc 6 17 16 view .LVU1391
	mov	r10, r0
.LVL326:
	.loc 6 17 2 is_stmt 1 view .LVU1392
	.loc 6 17 2 view .LVU1393
	.loc 6 17 16 is_stmt 0 view .LVU1394
	movw	r0, #:lower16:.LC1
.LVL327:
	.loc 6 17 16 view .LVU1395
	movt	r0, #:upper16:.LC1
	bl	fb_ErrorSetFuncName
.LVL328:
	mov	fp, r0
.LVL329:
	.loc 6 17 2 is_stmt 1 view .LVU1396
	.loc 6 18 2 view .LVU1397
	mov	r0, r4
.LVL330:
	.loc 6 18 2 is_stmt 0 view .LVU1398
	bl	_ZN8HCONTROLC1Ev
.LVL331:
	.loc 6 18 2 is_stmt 1 view .LVU1399
	.loc 6 18 18 is_stmt 0 view .LVU1400
	mov	r0, r4
	.loc 6 18 20 view .LVU1401
	mov	r2, r5
	.loc 6 18 18 view .LVU1402
	movw	r5, #:lower16:.LANCHOR0
.LVL332:
	.loc 6 18 18 view .LVU1403
	movt	r5, #:upper16:.LANCHOR0
	.loc 6 18 2 view .LVU1404
	mov	r3, #0
	str	r3, [r4, #68]	@ unaligned
	.loc 6 18 2 is_stmt 1 view .LVU1405
	str	r3, [r4, #72]	@ unaligned
	.loc 6 18 2 view .LVU1406
	str	r3, [r4, #76]	@ unaligned
	.loc 6 18 2 view .LVU1407
	str	r3, [r4, #80]	@ unaligned
	.loc 6 18 2 view .LVU1408
	str	r3, [r4, #84]	@ unaligned
	.loc 6 18 2 view .LVU1409
	str	r3, [r4, #88]	@ unaligned
	.loc 6 18 2 view .LVU1410
	strb	r3, [r4, #92]
	.loc 6 18 2 view .LVU1411
	.loc 6 18 20 is_stmt 0 view .LVU1412
	str	r3, [sp]
	.loc 6 18 18 view .LVU1413
	add	r3, r5, #148
	str	r3, [r0], #4
	.loc 6 18 2 is_stmt 1 view .LVU1414
	.loc 6 18 20 is_stmt 0 view .LVU1415
	mvn	r3, #0
	mov	r1, r3
	bl	fb_StrAssign
.LVL333:
	.loc 6 19 2 is_stmt 1 view .LVU1416
	.loc 6 19 33 is_stmt 0 view .LVU1417
	ldr	r2, [sp, #12]
	.loc 6 23 33 view .LVU1418
	ldr	r3, [sp, #16]
	.loc 6 27 16 view .LVU1419
	mov	r0, r7
	.loc 6 24 33 view .LVU1420
	ldr	r1, [sp, #20]
	.loc 6 19 33 view .LVU1421
	str	r2, [r4, #16]
	.loc 6 20 2 is_stmt 1 view .LVU1422
	.loc 6 20 33 is_stmt 0 view .LVU1423
	str	r7, [r4, #20]
	.loc 6 21 2 is_stmt 1 view .LVU1424
	.loc 6 23 33 is_stmt 0 view .LVU1425
	str	r3, [r4, #84]
	.loc 6 27 16 view .LVU1426
	mov	r3, #27
	.loc 6 24 33 view .LVU1427
	str	r1, [r4, #88]
	.loc 6 21 33 view .LVU1428
	str	r9, [r4, #68]
	.loc 6 22 2 is_stmt 1 view .LVU1429
	.loc 6 22 33 is_stmt 0 view .LVU1430
	str	r8, [r4, #72]
	.loc 6 23 2 is_stmt 1 view .LVU1431
	.loc 6 24 2 view .LVU1432
	.loc 6 27 2 view .LVU1433
.LVL334:
	.loc 6 27 2 view .LVU1434
	.loc 6 27 16 is_stmt 0 view .LVU1435
	str	r6, [sp]
	ldr	r2, [r5, #52]
	ldr	r1, [r5, #48]
	bl	fb_ArrayBoundChk
.LVL335:
	.loc 6 27 2 is_stmt 1 view .LVU1436
	.loc 6 27 4 is_stmt 0 view .LVU1437
	cmp	r0, #0
	.loc 6 27 4 view .LVU1438
	bne	.L231
	.loc 6 27 19 is_stmt 1 discriminator 1 view .LVU1439
.LDL17:
	.loc 6 27 12 discriminator 1 view .LVU1440
	.loc 6 27 2 discriminator 1 view .LVU1441
	.loc 6 27 12 is_stmt 0 discriminator 1 view .LVU1442
	ldr	r3, [r5, #24]
	.loc 6 27 16 discriminator 1 view .LVU1443
	mov	r2, r6
	mov	r1, #27
	.loc 6 27 12 discriminator 1 view .LVU1444
	ldr	r7, [r3, r7, lsl #2]
.LVL336:
	.loc 6 27 2 is_stmt 1 discriminator 1 view .LVU1445
	.loc 6 27 16 is_stmt 0 discriminator 1 view .LVU1446
	mov	r0, r7
.LVL337:
	.loc 6 27 16 discriminator 1 view .LVU1447
	bl	fb_NullPtrChk
.LVL338:
	.loc 6 27 2 is_stmt 1 discriminator 1 view .LVU1448
	.loc 6 27 4 is_stmt 0 discriminator 1 view .LVU1449
	cmp	r0, #0
	.loc 6 27 4 discriminator 1 view .LVU1450
	bne	.L236
	.loc 6 27 19 is_stmt 1 discriminator 4 view .LVU1451
.LDL18:
	.loc 6 27 12 discriminator 4 view .LVU1452
	.loc 6 27 2 discriminator 4 view .LVU1453
	.loc 6 27 78 is_stmt 0 discriminator 4 view .LVU1454
	ldr	r3, [r7, #24]
	add	r9, r9, #4
	add	r9, r3, r9
	.loc 6 27 33 discriminator 4 view .LVU1455
	str	r9, [r4, #24]
	.loc 6 28 2 is_stmt 1 discriminator 4 view .LVU1456
	.loc 6 28 16 is_stmt 0 discriminator 4 view .LVU1457
	str	r6, [sp]
	mov	r3, #28
	.loc 6 28 12 discriminator 4 view .LVU1458
	ldr	r7, [r4, #20]
.LVL339:
	.loc 6 28 2 is_stmt 1 discriminator 4 view .LVU1459
	.loc 6 28 16 is_stmt 0 discriminator 4 view .LVU1460
	ldr	r2, [r5, #52]
	ldr	r1, [r5, #48]
	mov	r0, r7
.LVL340:
	.loc 6 28 16 discriminator 4 view .LVU1461
	bl	fb_ArrayBoundChk
.LVL341:
	.loc 6 28 2 is_stmt 1 discriminator 4 view .LVU1462
	.loc 6 28 4 is_stmt 0 discriminator 4 view .LVU1463
	cmp	r0, #0
	.loc 6 28 4 discriminator 4 view .LVU1464
	bne	.L237
	.loc 6 28 19 is_stmt 1 discriminator 1 view .LVU1465
.LDL19:
	.loc 6 28 12 discriminator 1 view .LVU1466
	.loc 6 28 2 discriminator 1 view .LVU1467
	.loc 6 28 12 is_stmt 0 discriminator 1 view .LVU1468
	ldr	r3, [r5, #24]
	.loc 6 28 16 discriminator 1 view .LVU1469
	mov	r2, r6
	mov	r1, #28
	.loc 6 28 12 discriminator 1 view .LVU1470
	ldr	r5, [r3, r7, lsl #2]
.LVL342:
	.loc 6 28 2 is_stmt 1 discriminator 1 view .LVU1471
	.loc 6 28 16 is_stmt 0 discriminator 1 view .LVU1472
	mov	r0, r5
.LVL343:
	.loc 6 28 16 discriminator 1 view .LVU1473
	bl	fb_NullPtrChk
.LVL344:
	.loc 6 28 2 is_stmt 1 discriminator 1 view .LVU1474
	.loc 6 28 4 is_stmt 0 discriminator 1 view .LVU1475
	cmp	r0, #0
	.loc 6 28 4 discriminator 1 view .LVU1476
	bne	.L238
	.loc 6 28 19 is_stmt 1 discriminator 4 view .LVU1477
.LDL20:
	.loc 6 28 12 discriminator 4 view .LVU1478
	.loc 6 28 2 discriminator 4 view .LVU1479
	.loc 6 28 78 is_stmt 0 discriminator 4 view .LVU1480
	ldr	r3, [r5, #28]
	add	r8, r8, #25
	.loc 6 31 2 discriminator 4 view .LVU1481
	mov	r0, r4
.LVL345:
	.loc 6 28 78 discriminator 4 view .LVU1482
	add	r8, r3, r8
	.loc 6 30 35 discriminator 4 view .LVU1483
	mov	r3, #1
	.loc 6 28 33 discriminator 4 view .LVU1484
	str	r8, [r4, #28]
	.loc 6 30 2 is_stmt 1 discriminator 4 view .LVU1485
	.loc 6 30 35 is_stmt 0 discriminator 4 view .LVU1486
	strb	r3, [r4, #92]
	.loc 6 31 2 is_stmt 1 discriminator 4 view .LVU1487
	bl	_ZN8TEXTBOXH6REDRAWEv
.LVL346:
.LDL21:
	.loc 6 32 12 discriminator 4 view .LVU1488
	.loc 6 32 2 discriminator 4 view .LVU1489
	mov	r0, fp
	bl	fb_ErrorSetFuncName
.LVL347:
	.loc 6 32 2 discriminator 4 view .LVU1490
	mov	r0, r10
	.loc 6 32 1 is_stmt 0 discriminator 4 view .LVU1491
	add	sp, sp, #28
	.cfi_remember_state
	.cfi_def_cfa_offset 36
	@ sp needed
	pop	{r4, r5, r6, r7, r8, r9, r10, fp, lr}
	.cfi_restore 14
	.cfi_restore 11
	.cfi_restore 10
	.cfi_restore 9
	.cfi_restore 8
	.cfi_restore 7
	.cfi_restore 6
	.cfi_restore 5
	.cfi_restore 4
	.cfi_def_cfa_offset 0
.LVL348:
	.loc 6 32 2 discriminator 4 view .LVU1492
	b	fb_ErrorSetModName
.LVL349:
.L231:
	.cfi_restore_state
	.loc 6 28 2 is_stmt 1 discriminator 5 view .LVU1493
	mov	pc, r0	@ indirect register jump
.LVL350:
.L238:
	.loc 6 28 2 view .LVU1494
	mov	pc, r0	@ indirect register jump
.LVL351:
.L237:
	.loc 6 28 2 view .LVU1495
	mov	pc, r0	@ indirect register jump
.LVL352:
.L236:
	.loc 6 28 2 view .LVU1496
	mov	pc, r0	@ indirect register jump
	.cfi_endproc
.LFE13:
	.size	_ZN8TEXTBOXHC1ER8FBSTRINGllllll, .-_ZN8TEXTBOXHC1ER8FBSTRINGllllll
	.section	.rodata.str1.4
	.align	2
.LC49:
	.ascii	"NEWTEXTBOX\000"
	.text
	.align	2
	.global	NEWTEXTBOX
	.syntax unified
	.arm
	.fpu vfp
	.type	NEWTEXTBOX, %function
NEWTEXTBOX:
.LVL353:
.LFB15:
	.loc 6 53 1 view -0
	.cfi_startproc
	@ args = 8, pretend = 0, frame = 24
	@ frame_needed = 0, uses_anonymous_args = 0
.L240:
	.loc 6 53 2 view .LVU1498
	.loc 6 53 2 view .LVU1499
	.loc 6 53 2 view .LVU1500
	.loc 6 53 2 view .LVU1501
	.loc 6 53 12 view .LVU1502
	.loc 6 53 2 view .LVU1503
	.loc 6 53 1 is_stmt 0 view .LVU1504
	push	{r4, r5, r6, r7, r8, r9, r10, fp, lr}
	.cfi_def_cfa_offset 36
	.cfi_offset 4, -36
	.cfi_offset 5, -32
	.cfi_offset 6, -28
	.cfi_offset 7, -24
	.cfi_offset 8, -20
	.cfi_offset 9, -16
	.cfi_offset 10, -12
	.cfi_offset 11, -8
	.cfi_offset 14, -4
	.loc 6 55 21 view .LVU1505
	movw	r4, #:lower16:.LANCHOR1
	movt	r4, #:upper16:.LANCHOR1
	.loc 6 53 1 view .LVU1506
	sub	sp, sp, #44
	.cfi_def_cfa_offset 80
	.loc 6 53 1 view .LVU1507
	mov	r7, r0
	.loc 6 53 16 view .LVU1508
	movw	r0, #:lower16:.LC32
.LVL354:
	.loc 6 53 16 view .LVU1509
	movt	r0, #:upper16:.LC32
	.loc 6 53 1 view .LVU1510
	mov	r8, r1
	movw	r5, #:lower16:.LANCHOR0
	movt	r5, #:upper16:.LANCHOR0
	strd	r2, [sp, #20]
	ldr	r9, [sp, #80]
	movw	r6, #:lower16:.LC32
	movt	r6, #:upper16:.LC32
	ldr	r10, [sp, #84]
	.loc 6 53 16 view .LVU1511
	bl	fb_ErrorSetModName
.LVL355:
	.loc 6 53 16 view .LVU1512
	str	r0, [sp, #28]
.LVL356:
	.loc 6 53 2 is_stmt 1 view .LVU1513
	.loc 6 53 2 view .LVU1514
	.loc 6 53 16 is_stmt 0 view .LVU1515
	movw	r0, #:lower16:.LC49
.LVL357:
	.loc 6 53 16 view .LVU1516
	movt	r0, #:upper16:.LC49
	bl	fb_ErrorSetFuncName
.LVL358:
	.loc 6 55 42 view .LVU1517
	ldr	r3, [r4, #20]
	.loc 6 53 16 view .LVU1518
	str	r0, [sp, #32]
.LVL359:
	.loc 6 53 2 is_stmt 1 view .LVU1519
	.loc 6 55 2 view .LVU1520
	.loc 6 55 42 is_stmt 0 view .LVU1521
	add	r3, r3, #1
	.loc 6 55 21 view .LVU1522
	str	r3, [r4, #20]
.LVL360:
.L241:
	.loc 6 56 12 is_stmt 1 view .LVU1523
	.loc 6 56 2 view .LVU1524
	.loc 6 56 15 is_stmt 0 view .LVU1525
	ldr	r3, [r4, #20]
	mov	r1, #4
	str	r3, [sp, #8]
	mvn	r2, #0
	mov	r3, #1
	ldr	r0, .L257
	str	r3, [sp, #4]
	str	r3, [sp]
	mov	r3, #0
	bl	fb_ArrayRedimPresvEx
.LVL361:
	.loc 6 56 2 is_stmt 1 view .LVU1526
	.loc 6 56 4 is_stmt 0 view .LVU1527
	cmp	r0, #0
	bne	.L255
.LVL362:
.L242:
	.loc 6 56 12 is_stmt 1 discriminator 3 view .LVU1528
	.loc 6 57 2 discriminator 3 view .LVU1529
	.loc 6 57 15 is_stmt 0 discriminator 3 view .LVU1530
	mov	r0, #96
	bl	malloc
.LVL363:
	.loc 6 57 2 is_stmt 1 discriminator 3 view .LVU1531
	.loc 6 57 2 discriminator 3 view .LVU1532
	.loc 6 57 4 is_stmt 0 discriminator 3 view .LVU1533
	subs	r3, r0, #0
	str	r3, [sp, #36]
	beq	.L245
	.loc 6 57 2 is_stmt 1 discriminator 2 view .LVU1534
	ldr	r3, [sp, #24]
	mov	r1, r7
	str	r3, [sp, #4]
	ldr	r3, [sp, #20]
	str	r3, [sp]
	mov	r3, r8
	ldr	r2, [r4, #20]
	str	r10, [sp, #12]
	str	r9, [sp, #8]
	bl	_ZN8TEXTBOXHC1ER8FBSTRINGllllll
.LVL364:
.L245:
	.loc 6 57 12 discriminator 4 view .LVU1535
	.loc 6 57 2 discriminator 4 view .LVU1536
	.loc 6 57 12 is_stmt 0 discriminator 4 view .LVU1537
	ldr	fp, [r4, #20]
.LVL365:
	.loc 6 57 2 is_stmt 1 discriminator 4 view .LVU1538
	.loc 6 57 16 is_stmt 0 discriminator 4 view .LVU1539
	mov	r3, #57
	ldr	r2, [r5, #180]
	ldr	r1, [r5, #176]
	mov	r0, fp
	str	r6, [sp]
	bl	fb_ArrayBoundChk
.LVL366:
	.loc 6 57 2 is_stmt 1 discriminator 4 view .LVU1540
	.loc 6 57 4 is_stmt 0 discriminator 4 view .LVU1541
	cmp	r0, #0
	.loc 6 57 4 discriminator 4 view .LVU1542
	beq	.L256
	mov	pc, r0	@ indirect register jump
.LVL367:
.L255:
	.loc 6 56 2 is_stmt 1 discriminator 2 view .LVU1543
	.loc 6 56 15 is_stmt 0 discriminator 2 view .LVU1544
	ldr	r3, .L257+4
	movw	r1, #:lower16:.LC32
	movt	r1, #:upper16:.LC32
	ldr	r2, .L257+8
	mov	r0, #56
.LVL368:
	.loc 6 56 15 discriminator 2 view .LVU1545
	bl	fb_ErrorThrowAt
.LVL369:
	.loc 6 56 2 is_stmt 1 discriminator 2 view .LVU1546
	mov	pc, r0	@ indirect register jump
.LVL370:
.L256:
	.loc 6 57 19 discriminator 5 view .LVU1547
.LDL22:
	.loc 6 57 12 discriminator 5 view .LVU1548
	.loc 6 57 2 discriminator 5 view .LVU1549
	.loc 6 57 74 is_stmt 0 discriminator 5 view .LVU1550
	ldr	r3, [r5, #152]
	ldr	r2, [sp, #36]
	.loc 6 58 2 discriminator 5 view .LVU1551
	ldr	r0, [sp, #32]
.LVL371:
	.loc 6 57 74 discriminator 5 view .LVU1552
	str	r2, [r3, fp, lsl #2]
.LDL23:
	.loc 6 58 12 is_stmt 1 discriminator 5 view .LVU1553
	.loc 6 58 2 discriminator 5 view .LVU1554
	bl	fb_ErrorSetFuncName
.LVL372:
	.loc 6 58 2 discriminator 5 view .LVU1555
	ldr	r0, [sp, #28]
	.loc 6 58 1 is_stmt 0 discriminator 5 view .LVU1556
	add	sp, sp, #44
	.cfi_def_cfa_offset 36
	@ sp needed
	pop	{r4, r5, r6, r7, r8, r9, r10, fp, lr}
	.cfi_restore 14
	.cfi_restore 11
	.cfi_restore 10
	.cfi_restore 9
	.cfi_restore 8
	.cfi_restore 7
	.cfi_restore 6
	.cfi_restore 5
	.cfi_restore 4
	.cfi_def_cfa_offset 0
.LVL373:
	.loc 6 58 2 discriminator 5 view .LVU1557
	b	fb_ErrorSetModName
.LVL374:
.L258:
	.align	2
.L257:
	.word	.LANCHOR0+152
	.word	.L242
	.word	.L241
	.cfi_endproc
.LFE15:
	.size	NEWTEXTBOX, .-NEWTEXTBOX
	.align	2
	.global	_ZN10TEXTBLOCKHC1Ev
	.syntax unified
	.arm
	.fpu vfp
	.type	_ZN10TEXTBLOCKHC1Ev, %function
_ZN10TEXTBLOCKHC1Ev:
.LVL375:
.LFB16:
	.loc 7 14 1 is_stmt 1 view -0
	.cfi_startproc
	@ args = 0, pretend = 0, frame = 0
	@ frame_needed = 0, uses_anonymous_args = 0
	.loc 7 14 2 view .LVU1559
	.loc 7 14 2 view .LVU1560
	.loc 7 14 2 view .LVU1561
	.loc 7 14 1 is_stmt 0 view .LVU1562
	push	{r4, lr}
	.cfi_def_cfa_offset 8
	.cfi_offset 4, -8
	.cfi_offset 14, -4
	.loc 7 14 1 view .LVU1563
	mov	r4, r0
	.loc 7 14 2 view .LVU1564
	bl	_ZN8HCONTROLC1Ev
.LVL376:
	.loc 7 14 2 is_stmt 1 view .LVU1565
	.loc 7 14 18 is_stmt 0 view .LVU1566
	ldr	r2, .L261
	.loc 7 14 2 view .LVU1567
	mov	r3, #0
	.loc 7 14 18 view .LVU1568
	str	r2, [r4]
	.loc 7 14 17 view .LVU1569
	movw	r0, #:lower16:.LC34
	movt	r0, #:upper16:.LC34
	.loc 7 14 2 view .LVU1570
	str	r3, [r4, #68]	@ unaligned
	.loc 7 14 2 is_stmt 1 view .LVU1571
	str	r3, [r4, #72]	@ unaligned
	.loc 7 14 2 view .LVU1572
	str	r3, [r4, #76]	@ unaligned
	.loc 7 14 2 view .LVU1573
	str	r3, [r4, #80]	@ unaligned
	.loc 7 14 2 view .LVU1574
	str	r3, [r4, #84]	@ unaligned
	.loc 7 14 2 view .LVU1575
	str	r3, [r4, #88]	@ unaligned
	.loc 7 14 2 view .LVU1576
	strb	r3, [r4, #92]
	.loc 7 14 2 view .LVU1577
	.loc 7 14 2 view .LVU1578
	.loc 7 14 17 is_stmt 0 view .LVU1579
	bl	fb_ErrorSetModName
.LVL377:
	mov	r4, r0
.LVL378:
	.loc 7 14 17 view .LVU1580
	movw	r0, #:lower16:.LC1
	movt	r0, #:upper16:.LC1
.LVL379:
	.loc 7 14 2 is_stmt 1 view .LVU1581
	.loc 7 14 2 view .LVU1582
	.loc 7 14 17 is_stmt 0 view .LVU1583
	bl	fb_ErrorSetFuncName
.LVL380:
	.loc 7 14 2 is_stmt 1 view .LVU1584
.LDL24:
.LDL25:
	.loc 7 14 12 view .LVU1585
	.loc 7 15 12 view .LVU1586
	.loc 7 15 2 view .LVU1587
	bl	fb_ErrorSetFuncName
.LVL381:
	.loc 7 15 2 view .LVU1588
	mov	r0, r4
	.loc 7 15 1 is_stmt 0 view .LVU1589
	pop	{r4, lr}
	.cfi_restore 14
	.cfi_restore 4
	.cfi_def_cfa_offset 0
.LVL382:
	.loc 7 15 2 view .LVU1590
	b	fb_ErrorSetModName
.LVL383:
.L262:
	.loc 7 15 2 view .LVU1591
	.align	2
.L261:
	.word	.LANCHOR0+276
	.cfi_endproc
.LFE16:
	.size	_ZN10TEXTBLOCKHC1Ev, .-_ZN10TEXTBLOCKHC1Ev
	.align	2
	.global	_ZN10TEXTBLOCKHC1ER8FBSTRINGllllll
	.syntax unified
	.arm
	.fpu vfp
	.type	_ZN10TEXTBLOCKHC1ER8FBSTRINGllllll, %function
_ZN10TEXTBLOCKHC1ER8FBSTRINGllllll:
.LVL384:
.LFB17:
	.loc 7 17 1 is_stmt 1 view -0
	.cfi_startproc
	@ args = 16, pretend = 0, frame = 16
	@ frame_needed = 0, uses_anonymous_args = 0
.L264:
	.loc 7 17 2 view .LVU1593
	.loc 7 17 2 view .LVU1594
	.loc 7 17 2 view .LVU1595
	.loc 7 17 2 view .LVU1596
	.loc 7 17 2 view .LVU1597
	.loc 7 17 2 view .LVU1598
	.loc 7 17 12 view .LVU1599
	.loc 7 17 2 view .LVU1600
	.loc 7 17 1 is_stmt 0 view .LVU1601
	push	{r4, r5, r6, r7, r8, r9, r10, fp, lr}
	.cfi_def_cfa_offset 36
	.cfi_offset 4, -36
	.cfi_offset 5, -32
	.cfi_offset 6, -28
	.cfi_offset 7, -24
	.cfi_offset 8, -20
	.cfi_offset 9, -16
	.cfi_offset 10, -12
	.cfi_offset 11, -8
	.cfi_offset 14, -4
	.loc 7 17 16 view .LVU1602
	movw	r6, #:lower16:.LC34
	movt	r6, #:upper16:.LC34
	.loc 7 17 1 view .LVU1603
	sub	sp, sp, #28
	.cfi_def_cfa_offset 64
	.loc 7 17 1 view .LVU1604
	mov	r4, r0
	mov	r7, r3
	mov	r5, r1
	.loc 7 17 16 view .LVU1605
	mov	r0, r6
.LVL385:
	.loc 7 17 1 view .LVU1606
	ldr	r3, [sp, #72]
.LVL386:
	.loc 7 17 1 view .LVU1607
	ldr	r1, [sp, #76]
.LVL387:
	.loc 7 17 1 view .LVU1608
	str	r2, [sp, #12]
	str	r3, [sp, #16]
	str	r1, [sp, #20]
	ldr	r9, [sp, #64]
	ldr	r8, [sp, #68]
	.loc 7 17 16 view .LVU1609
	bl	fb_ErrorSetModName
.LVL388:
	.loc 7 17 16 view .LVU1610
	mov	r10, r0
.LVL389:
	.loc 7 17 2 is_stmt 1 view .LVU1611
	.loc 7 17 2 view .LVU1612
	.loc 7 17 16 is_stmt 0 view .LVU1613
	movw	r0, #:lower16:.LC1
.LVL390:
	.loc 7 17 16 view .LVU1614
	movt	r0, #:upper16:.LC1
	bl	fb_ErrorSetFuncName
.LVL391:
	mov	fp, r0
.LVL392:
	.loc 7 17 2 is_stmt 1 view .LVU1615
	.loc 7 18 2 view .LVU1616
	mov	r0, r4
.LVL393:
	.loc 7 18 2 is_stmt 0 view .LVU1617
	bl	_ZN8HCONTROLC1Ev
.LVL394:
	.loc 7 18 2 is_stmt 1 view .LVU1618
	.loc 7 18 18 is_stmt 0 view .LVU1619
	mov	r0, r4
	.loc 7 18 20 view .LVU1620
	mov	r2, r5
	.loc 7 18 18 view .LVU1621
	movw	r5, #:lower16:.LANCHOR0
.LVL395:
	.loc 7 18 18 view .LVU1622
	movt	r5, #:upper16:.LANCHOR0
	.loc 7 18 2 view .LVU1623
	mov	r3, #0
	str	r3, [r4, #68]	@ unaligned
	.loc 7 18 2 is_stmt 1 view .LVU1624
	str	r3, [r4, #72]	@ unaligned
	.loc 7 18 2 view .LVU1625
	str	r3, [r4, #76]	@ unaligned
	.loc 7 18 2 view .LVU1626
	str	r3, [r4, #80]	@ unaligned
	.loc 7 18 2 view .LVU1627
	str	r3, [r4, #84]	@ unaligned
	.loc 7 18 2 view .LVU1628
	str	r3, [r4, #88]	@ unaligned
	.loc 7 18 2 view .LVU1629
	strb	r3, [r4, #92]
	.loc 7 18 2 view .LVU1630
	.loc 7 18 20 is_stmt 0 view .LVU1631
	str	r3, [sp]
	.loc 7 18 18 view .LVU1632
	add	r3, r5, #276
	str	r3, [r0], #4
	.loc 7 18 2 is_stmt 1 view .LVU1633
	.loc 7 18 20 is_stmt 0 view .LVU1634
	mvn	r3, #0
	mov	r1, r3
	bl	fb_StrAssign
.LVL396:
	.loc 7 19 2 is_stmt 1 view .LVU1635
	.loc 7 19 33 is_stmt 0 view .LVU1636
	ldr	r2, [sp, #12]
	.loc 7 23 33 view .LVU1637
	ldr	r3, [sp, #16]
	.loc 7 27 16 view .LVU1638
	mov	r0, r7
	.loc 7 24 33 view .LVU1639
	ldr	r1, [sp, #20]
	.loc 7 19 33 view .LVU1640
	str	r2, [r4, #16]
	.loc 7 20 2 is_stmt 1 view .LVU1641
	.loc 7 20 33 is_stmt 0 view .LVU1642
	str	r7, [r4, #20]
	.loc 7 21 2 is_stmt 1 view .LVU1643
	.loc 7 23 33 is_stmt 0 view .LVU1644
	str	r3, [r4, #84]
	.loc 7 27 16 view .LVU1645
	mov	r3, #27
	.loc 7 24 33 view .LVU1646
	str	r1, [r4, #88]
	.loc 7 21 33 view .LVU1647
	str	r9, [r4, #68]
	.loc 7 22 2 is_stmt 1 view .LVU1648
	.loc 7 22 33 is_stmt 0 view .LVU1649
	str	r8, [r4, #72]
	.loc 7 23 2 is_stmt 1 view .LVU1650
	.loc 7 24 2 view .LVU1651
	.loc 7 27 2 view .LVU1652
.LVL397:
	.loc 7 27 2 view .LVU1653
	.loc 7 27 16 is_stmt 0 view .LVU1654
	str	r6, [sp]
	ldr	r2, [r5, #52]
	ldr	r1, [r5, #48]
	bl	fb_ArrayBoundChk
.LVL398:
	.loc 7 27 2 is_stmt 1 view .LVU1655
	.loc 7 27 4 is_stmt 0 view .LVU1656
	cmp	r0, #0
	.loc 7 27 4 view .LVU1657
	bne	.L274
	.loc 7 27 19 is_stmt 1 discriminator 1 view .LVU1658
.LDL26:
	.loc 7 27 12 discriminator 1 view .LVU1659
	.loc 7 27 2 discriminator 1 view .LVU1660
	.loc 7 27 12 is_stmt 0 discriminator 1 view .LVU1661
	ldr	r3, [r5, #24]
	.loc 7 27 16 discriminator 1 view .LVU1662
	mov	r2, r6
	mov	r1, #27
	.loc 7 27 12 discriminator 1 view .LVU1663
	ldr	r7, [r3, r7, lsl #2]
.LVL399:
	.loc 7 27 2 is_stmt 1 discriminator 1 view .LVU1664
	.loc 7 27 16 is_stmt 0 discriminator 1 view .LVU1665
	mov	r0, r7
.LVL400:
	.loc 7 27 16 discriminator 1 view .LVU1666
	bl	fb_NullPtrChk
.LVL401:
	.loc 7 27 2 is_stmt 1 discriminator 1 view .LVU1667
	.loc 7 27 4 is_stmt 0 discriminator 1 view .LVU1668
	cmp	r0, #0
	.loc 7 27 4 discriminator 1 view .LVU1669
	bne	.L279
	.loc 7 27 19 is_stmt 1 discriminator 4 view .LVU1670
.LDL27:
	.loc 7 27 12 discriminator 4 view .LVU1671
	.loc 7 27 2 discriminator 4 view .LVU1672
	.loc 7 27 78 is_stmt 0 discriminator 4 view .LVU1673
	ldr	r3, [r7, #24]
	add	r9, r9, #4
	add	r9, r3, r9
	.loc 7 27 33 discriminator 4 view .LVU1674
	str	r9, [r4, #24]
	.loc 7 28 2 is_stmt 1 discriminator 4 view .LVU1675
	.loc 7 28 16 is_stmt 0 discriminator 4 view .LVU1676
	str	r6, [sp]
	mov	r3, #28
	.loc 7 28 12 discriminator 4 view .LVU1677
	ldr	r7, [r4, #20]
.LVL402:
	.loc 7 28 2 is_stmt 1 discriminator 4 view .LVU1678
	.loc 7 28 16 is_stmt 0 discriminator 4 view .LVU1679
	ldr	r2, [r5, #52]
	ldr	r1, [r5, #48]
	mov	r0, r7
.LVL403:
	.loc 7 28 16 discriminator 4 view .LVU1680
	bl	fb_ArrayBoundChk
.LVL404:
	.loc 7 28 2 is_stmt 1 discriminator 4 view .LVU1681
	.loc 7 28 4 is_stmt 0 discriminator 4 view .LVU1682
	cmp	r0, #0
	.loc 7 28 4 discriminator 4 view .LVU1683
	bne	.L280
	.loc 7 28 19 is_stmt 1 discriminator 1 view .LVU1684
.LDL28:
	.loc 7 28 12 discriminator 1 view .LVU1685
	.loc 7 28 2 discriminator 1 view .LVU1686
	.loc 7 28 12 is_stmt 0 discriminator 1 view .LVU1687
	ldr	r3, [r5, #24]
	.loc 7 28 16 discriminator 1 view .LVU1688
	mov	r2, r6
	mov	r1, #28
	.loc 7 28 12 discriminator 1 view .LVU1689
	ldr	r5, [r3, r7, lsl #2]
.LVL405:
	.loc 7 28 2 is_stmt 1 discriminator 1 view .LVU1690
	.loc 7 28 16 is_stmt 0 discriminator 1 view .LVU1691
	mov	r0, r5
.LVL406:
	.loc 7 28 16 discriminator 1 view .LVU1692
	bl	fb_NullPtrChk
.LVL407:
	.loc 7 28 2 is_stmt 1 discriminator 1 view .LVU1693
	.loc 7 28 4 is_stmt 0 discriminator 1 view .LVU1694
	cmp	r0, #0
	.loc 7 28 4 discriminator 1 view .LVU1695
	bne	.L281
	.loc 7 28 19 is_stmt 1 discriminator 4 view .LVU1696
.LDL29:
	.loc 7 28 12 discriminator 4 view .LVU1697
	.loc 7 28 2 discriminator 4 view .LVU1698
	.loc 7 28 78 is_stmt 0 discriminator 4 view .LVU1699
	ldr	r3, [r5, #28]
	add	r8, r8, #25
	.loc 7 31 2 discriminator 4 view .LVU1700
	mov	r0, r4
.LVL408:
	.loc 7 28 78 discriminator 4 view .LVU1701
	add	r8, r3, r8
	.loc 7 30 35 discriminator 4 view .LVU1702
	mov	r3, #1
	.loc 7 28 33 discriminator 4 view .LVU1703
	str	r8, [r4, #28]
	.loc 7 30 2 is_stmt 1 discriminator 4 view .LVU1704
	.loc 7 30 35 is_stmt 0 discriminator 4 view .LVU1705
	strb	r3, [r4, #92]
	.loc 7 31 2 is_stmt 1 discriminator 4 view .LVU1706
	bl	_ZN10TEXTBLOCKH6REDRAWEv
.LVL409:
.LDL30:
	.loc 7 32 12 discriminator 4 view .LVU1707
	.loc 7 32 2 discriminator 4 view .LVU1708
	mov	r0, fp
	bl	fb_ErrorSetFuncName
.LVL410:
	.loc 7 32 2 discriminator 4 view .LVU1709
	mov	r0, r10
	.loc 7 32 1 is_stmt 0 discriminator 4 view .LVU1710
	add	sp, sp, #28
	.cfi_remember_state
	.cfi_def_cfa_offset 36
	@ sp needed
	pop	{r4, r5, r6, r7, r8, r9, r10, fp, lr}
	.cfi_restore 14
	.cfi_restore 11
	.cfi_restore 10
	.cfi_restore 9
	.cfi_restore 8
	.cfi_restore 7
	.cfi_restore 6
	.cfi_restore 5
	.cfi_restore 4
	.cfi_def_cfa_offset 0
.LVL411:
	.loc 7 32 2 discriminator 4 view .LVU1711
	b	fb_ErrorSetModName
.LVL412:
.L274:
	.cfi_restore_state
	.loc 7 28 2 is_stmt 1 discriminator 5 view .LVU1712
	mov	pc, r0	@ indirect register jump
.LVL413:
.L281:
	.loc 7 28 2 view .LVU1713
	mov	pc, r0	@ indirect register jump
.LVL414:
.L280:
	.loc 7 28 2 view .LVU1714
	mov	pc, r0	@ indirect register jump
.LVL415:
.L279:
	.loc 7 28 2 view .LVU1715
	mov	pc, r0	@ indirect register jump
	.cfi_endproc
.LFE17:
	.size	_ZN10TEXTBLOCKHC1ER8FBSTRINGllllll, .-_ZN10TEXTBLOCKHC1ER8FBSTRINGllllll
	.section	.rodata.str1.4
	.align	2
.LC52:
	.ascii	"NEWTEXTBLOCK\000"
	.text
	.align	2
	.global	NEWTEXTBLOCK
	.syntax unified
	.arm
	.fpu vfp
	.type	NEWTEXTBLOCK, %function
NEWTEXTBLOCK:
.LVL416:
.LFB19:
	.loc 7 53 1 view -0
	.cfi_startproc
	@ args = 8, pretend = 0, frame = 24
	@ frame_needed = 0, uses_anonymous_args = 0
.L283:
	.loc 7 53 2 view .LVU1717
	.loc 7 53 2 view .LVU1718
	.loc 7 53 2 view .LVU1719
	.loc 7 53 2 view .LVU1720
	.loc 7 53 12 view .LVU1721
	.loc 7 53 2 view .LVU1722
	.loc 7 53 1 is_stmt 0 view .LVU1723
	push	{r4, r5, r6, r7, r8, r9, r10, fp, lr}
	.cfi_def_cfa_offset 36
	.cfi_offset 4, -36
	.cfi_offset 5, -32
	.cfi_offset 6, -28
	.cfi_offset 7, -24
	.cfi_offset 8, -20
	.cfi_offset 9, -16
	.cfi_offset 10, -12
	.cfi_offset 11, -8
	.cfi_offset 14, -4
	.loc 7 55 23 view .LVU1724
	movw	r4, #:lower16:.LANCHOR1
	movt	r4, #:upper16:.LANCHOR1
	.loc 7 53 1 view .LVU1725
	sub	sp, sp, #44
	.cfi_def_cfa_offset 80
	.loc 7 53 1 view .LVU1726
	mov	r7, r0
	.loc 7 53 16 view .LVU1727
	movw	r0, #:lower16:.LC34
.LVL417:
	.loc 7 53 16 view .LVU1728
	movt	r0, #:upper16:.LC34
	.loc 7 53 1 view .LVU1729
	mov	r8, r1
	movw	r5, #:lower16:.LANCHOR0
	movt	r5, #:upper16:.LANCHOR0
	strd	r2, [sp, #20]
	ldr	r9, [sp, #80]
	movw	r6, #:lower16:.LC34
	movt	r6, #:upper16:.LC34
	ldr	r10, [sp, #84]
	.loc 7 53 16 view .LVU1730
	bl	fb_ErrorSetModName
.LVL418:
	.loc 7 53 16 view .LVU1731
	str	r0, [sp, #28]
.LVL419:
	.loc 7 53 2 is_stmt 1 view .LVU1732
	.loc 7 53 2 view .LVU1733
	.loc 7 53 16 is_stmt 0 view .LVU1734
	movw	r0, #:lower16:.LC52
.LVL420:
	.loc 7 53 16 view .LVU1735
	movt	r0, #:upper16:.LC52
	bl	fb_ErrorSetFuncName
.LVL421:
	.loc 7 55 46 view .LVU1736
	ldr	r3, [r4, #24]
	.loc 7 53 16 view .LVU1737
	str	r0, [sp, #32]
.LVL422:
	.loc 7 53 2 is_stmt 1 view .LVU1738
	.loc 7 55 2 view .LVU1739
	.loc 7 55 46 is_stmt 0 view .LVU1740
	add	r3, r3, #1
	.loc 7 55 23 view .LVU1741
	str	r3, [r4, #24]
.LVL423:
.L284:
	.loc 7 56 12 is_stmt 1 view .LVU1742
	.loc 7 56 2 view .LVU1743
	.loc 7 56 15 is_stmt 0 view .LVU1744
	ldr	r3, [r4, #24]
	mov	r1, #4
	str	r3, [sp, #8]
	mvn	r2, #0
	mov	r3, #1
	ldr	r0, .L300
	str	r3, [sp, #4]
	str	r3, [sp]
	mov	r3, #0
	bl	fb_ArrayRedimPresvEx
.LVL424:
	.loc 7 56 2 is_stmt 1 view .LVU1745
	.loc 7 56 4 is_stmt 0 view .LVU1746
	cmp	r0, #0
	bne	.L298
.LVL425:
.L285:
	.loc 7 56 12 is_stmt 1 discriminator 3 view .LVU1747
	.loc 7 57 2 discriminator 3 view .LVU1748
	.loc 7 57 15 is_stmt 0 discriminator 3 view .LVU1749
	mov	r0, #96
	bl	malloc
.LVL426:
	.loc 7 57 2 is_stmt 1 discriminator 3 view .LVU1750
	.loc 7 57 2 discriminator 3 view .LVU1751
	.loc 7 57 4 is_stmt 0 discriminator 3 view .LVU1752
	subs	r3, r0, #0
	str	r3, [sp, #36]
	beq	.L288
	.loc 7 57 2 is_stmt 1 discriminator 2 view .LVU1753
	ldr	r3, [sp, #24]
	mov	r1, r7
	str	r3, [sp, #4]
	ldr	r3, [sp, #20]
	str	r3, [sp]
	mov	r3, r8
	ldr	r2, [r4, #24]
	str	r10, [sp, #12]
	str	r9, [sp, #8]
	bl	_ZN10TEXTBLOCKHC1ER8FBSTRINGllllll
.LVL427:
.L288:
	.loc 7 57 12 discriminator 4 view .LVU1754
	.loc 7 57 2 discriminator 4 view .LVU1755
	.loc 7 57 12 is_stmt 0 discriminator 4 view .LVU1756
	ldr	fp, [r4, #24]
.LVL428:
	.loc 7 57 2 is_stmt 1 discriminator 4 view .LVU1757
	.loc 7 57 16 is_stmt 0 discriminator 4 view .LVU1758
	mov	r3, #57
	ldr	r2, [r5, #308]
	ldr	r1, [r5, #304]
	mov	r0, fp
	str	r6, [sp]
	bl	fb_ArrayBoundChk
.LVL429:
	.loc 7 57 2 is_stmt 1 discriminator 4 view .LVU1759
	.loc 7 57 4 is_stmt 0 discriminator 4 view .LVU1760
	cmp	r0, #0
	.loc 7 57 4 discriminator 4 view .LVU1761
	beq	.L299
	mov	pc, r0	@ indirect register jump
.LVL430:
.L298:
	.loc 7 56 2 is_stmt 1 discriminator 2 view .LVU1762
	.loc 7 56 15 is_stmt 0 discriminator 2 view .LVU1763
	ldr	r3, .L300+4
	movw	r1, #:lower16:.LC34
	movt	r1, #:upper16:.LC34
	ldr	r2, .L300+8
	mov	r0, #56
.LVL431:
	.loc 7 56 15 discriminator 2 view .LVU1764
	bl	fb_ErrorThrowAt
.LVL432:
	.loc 7 56 2 is_stmt 1 discriminator 2 view .LVU1765
	mov	pc, r0	@ indirect register jump
.LVL433:
.L299:
	.loc 7 57 19 discriminator 5 view .LVU1766
.LDL31:
	.loc 7 57 12 discriminator 5 view .LVU1767
	.loc 7 57 2 discriminator 5 view .LVU1768
	.loc 7 57 79 is_stmt 0 discriminator 5 view .LVU1769
	ldr	r3, [r5, #280]
	ldr	r2, [sp, #36]
	.loc 7 58 2 discriminator 5 view .LVU1770
	ldr	r0, [sp, #32]
.LVL434:
	.loc 7 57 79 discriminator 5 view .LVU1771
	str	r2, [r3, fp, lsl #2]
.LDL32:
	.loc 7 58 12 is_stmt 1 discriminator 5 view .LVU1772
	.loc 7 58 2 discriminator 5 view .LVU1773
	bl	fb_ErrorSetFuncName
.LVL435:
	.loc 7 58 2 discriminator 5 view .LVU1774
	ldr	r0, [sp, #28]
	.loc 7 58 1 is_stmt 0 discriminator 5 view .LVU1775
	add	sp, sp, #44
	.cfi_def_cfa_offset 36
	@ sp needed
	pop	{r4, r5, r6, r7, r8, r9, r10, fp, lr}
	.cfi_restore 14
	.cfi_restore 11
	.cfi_restore 10
	.cfi_restore 9
	.cfi_restore 8
	.cfi_restore 7
	.cfi_restore 6
	.cfi_restore 5
	.cfi_restore 4
	.cfi_def_cfa_offset 0
.LVL436:
	.loc 7 58 2 discriminator 5 view .LVU1776
	b	fb_ErrorSetModName
.LVL437:
.L301:
	.align	2
.L300:
	.word	.LANCHOR0+280
	.word	.L285
	.word	.L284
	.cfi_endproc
.LFE19:
	.size	NEWTEXTBLOCK, .-NEWTEXTBLOCK
	.align	2
	.global	_ZN11PICTUREBOXHC1Ev
	.syntax unified
	.arm
	.fpu vfp
	.type	_ZN11PICTUREBOXHC1Ev, %function
_ZN11PICTUREBOXHC1Ev:
.LVL438:
.LFB20:
	.loc 2 14 1 is_stmt 1 view -0
	.cfi_startproc
	@ args = 0, pretend = 0, frame = 0
	@ frame_needed = 0, uses_anonymous_args = 0
	.loc 2 14 2 view .LVU1778
	.loc 2 14 2 view .LVU1779
	.loc 2 14 2 view .LVU1780
	.loc 2 14 1 is_stmt 0 view .LVU1781
	push	{r4, lr}
	.cfi_def_cfa_offset 8
	.cfi_offset 4, -8
	.cfi_offset 14, -4
	.loc 2 14 1 view .LVU1782
	mov	r4, r0
	.loc 2 14 2 view .LVU1783
	bl	_ZN8HCONTROLC1Ev
.LVL439:
	.loc 2 14 2 is_stmt 1 view .LVU1784
	.loc 2 14 18 is_stmt 0 view .LVU1785
	ldr	r2, .L304
	.loc 2 14 2 view .LVU1786
	mov	r3, #0
	.loc 2 14 18 view .LVU1787
	str	r2, [r4]
	.loc 2 14 17 view .LVU1788
	movw	r0, #:lower16:.LC2
	movt	r0, #:upper16:.LC2
	.loc 2 14 2 view .LVU1789
	str	r3, [r4, #68]	@ unaligned
	.loc 2 14 2 is_stmt 1 view .LVU1790
	str	r3, [r4, #72]	@ unaligned
	.loc 2 14 2 view .LVU1791
	str	r3, [r4, #76]	@ unaligned
	.loc 2 14 2 view .LVU1792
	str	r3, [r4, #80]	@ unaligned
	.loc 2 14 2 view .LVU1793
	str	r3, [r4, #84]	@ unaligned
	.loc 2 14 2 view .LVU1794
	str	r3, [r4, #88]	@ unaligned
	.loc 2 14 2 view .LVU1795
	strb	r3, [r4, #92]
	.loc 2 14 2 view .LVU1796
	.loc 2 14 2 view .LVU1797
	.loc 2 14 17 is_stmt 0 view .LVU1798
	bl	fb_ErrorSetModName
.LVL440:
	mov	r4, r0
.LVL441:
	.loc 2 14 17 view .LVU1799
	movw	r0, #:lower16:.LC1
	movt	r0, #:upper16:.LC1
.LVL442:
	.loc 2 14 2 is_stmt 1 view .LVU1800
	.loc 2 14 2 view .LVU1801
	.loc 2 14 17 is_stmt 0 view .LVU1802
	bl	fb_ErrorSetFuncName
.LVL443:
	.loc 2 14 2 is_stmt 1 view .LVU1803
.LDL33:
.LDL34:
	.loc 2 14 12 view .LVU1804
	.loc 2 15 12 view .LVU1805
	.loc 2 15 2 view .LVU1806
	bl	fb_ErrorSetFuncName
.LVL444:
	.loc 2 15 2 view .LVU1807
	mov	r0, r4
	.loc 2 15 1 is_stmt 0 view .LVU1808
	pop	{r4, lr}
	.cfi_restore 14
	.cfi_restore 4
	.cfi_def_cfa_offset 0
.LVL445:
	.loc 2 15 2 view .LVU1809
	b	fb_ErrorSetModName
.LVL446:
.L305:
	.loc 2 15 2 view .LVU1810
	.align	2
.L304:
	.word	.LANCHOR0+404
	.cfi_endproc
.LFE20:
	.size	_ZN11PICTUREBOXHC1Ev, .-_ZN11PICTUREBOXHC1Ev
	.align	2
	.global	_ZN11PICTUREBOXHC1ER8FBSTRINGllllll
	.syntax unified
	.arm
	.fpu vfp
	.type	_ZN11PICTUREBOXHC1ER8FBSTRINGllllll, %function
_ZN11PICTUREBOXHC1ER8FBSTRINGllllll:
.LVL447:
.LFB21:
	.loc 2 17 1 is_stmt 1 view -0
	.cfi_startproc
	@ args = 16, pretend = 0, frame = 16
	@ frame_needed = 0, uses_anonymous_args = 0
.L307:
	.loc 2 17 2 view .LVU1812
	.loc 2 17 2 view .LVU1813
	.loc 2 17 2 view .LVU1814
	.loc 2 17 2 view .LVU1815
	.loc 2 17 2 view .LVU1816
	.loc 2 17 2 view .LVU1817
	.loc 2 17 12 view .LVU1818
	.loc 2 17 2 view .LVU1819
	.loc 2 17 1 is_stmt 0 view .LVU1820
	push	{r4, r5, r6, r7, r8, r9, r10, fp, lr}
	.cfi_def_cfa_offset 36
	.cfi_offset 4, -36
	.cfi_offset 5, -32
	.cfi_offset 6, -28
	.cfi_offset 7, -24
	.cfi_offset 8, -20
	.cfi_offset 9, -16
	.cfi_offset 10, -12
	.cfi_offset 11, -8
	.cfi_offset 14, -4
	.loc 2 17 16 view .LVU1821
	movw	r6, #:lower16:.LC2
	movt	r6, #:upper16:.LC2
	.loc 2 17 1 view .LVU1822
	sub	sp, sp, #28
	.cfi_def_cfa_offset 64
	.loc 2 17 1 view .LVU1823
	mov	r4, r0
	mov	r7, r3
	mov	r5, r1
	.loc 2 17 16 view .LVU1824
	mov	r0, r6
.LVL448:
	.loc 2 17 1 view .LVU1825
	ldr	r3, [sp, #72]
.LVL449:
	.loc 2 17 1 view .LVU1826
	ldr	r1, [sp, #76]
.LVL450:
	.loc 2 17 1 view .LVU1827
	str	r2, [sp, #12]
	str	r3, [sp, #16]
	str	r1, [sp, #20]
	ldr	r9, [sp, #64]
	ldr	r8, [sp, #68]
	.loc 2 17 16 view .LVU1828
	bl	fb_ErrorSetModName
.LVL451:
	.loc 2 17 16 view .LVU1829
	mov	r10, r0
.LVL452:
	.loc 2 17 2 is_stmt 1 view .LVU1830
	.loc 2 17 2 view .LVU1831
	.loc 2 17 16 is_stmt 0 view .LVU1832
	movw	r0, #:lower16:.LC1
.LVL453:
	.loc 2 17 16 view .LVU1833
	movt	r0, #:upper16:.LC1
	bl	fb_ErrorSetFuncName
.LVL454:
	mov	fp, r0
.LVL455:
	.loc 2 17 2 is_stmt 1 view .LVU1834
	.loc 2 18 2 view .LVU1835
	mov	r0, r4
.LVL456:
	.loc 2 18 2 is_stmt 0 view .LVU1836
	bl	_ZN8HCONTROLC1Ev
.LVL457:
	.loc 2 18 2 is_stmt 1 view .LVU1837
	.loc 2 18 18 is_stmt 0 view .LVU1838
	mov	r0, r4
	.loc 2 18 20 view .LVU1839
	mov	r2, r5
	.loc 2 18 18 view .LVU1840
	movw	r5, #:lower16:.LANCHOR0
.LVL458:
	.loc 2 18 18 view .LVU1841
	movt	r5, #:upper16:.LANCHOR0
	.loc 2 18 2 view .LVU1842
	mov	r3, #0
	str	r3, [r4, #68]	@ unaligned
	.loc 2 18 2 is_stmt 1 view .LVU1843
	str	r3, [r4, #72]	@ unaligned
	.loc 2 18 2 view .LVU1844
	str	r3, [r4, #76]	@ unaligned
	.loc 2 18 2 view .LVU1845
	str	r3, [r4, #80]	@ unaligned
	.loc 2 18 2 view .LVU1846
	str	r3, [r4, #84]	@ unaligned
	.loc 2 18 2 view .LVU1847
	str	r3, [r4, #88]	@ unaligned
	.loc 2 18 2 view .LVU1848
	strb	r3, [r4, #92]
	.loc 2 18 2 view .LVU1849
	.loc 2 18 20 is_stmt 0 view .LVU1850
	str	r3, [sp]
	.loc 2 18 18 view .LVU1851
	add	r3, r5, #404
	str	r3, [r0], #4
	.loc 2 18 2 is_stmt 1 view .LVU1852
	.loc 2 18 20 is_stmt 0 view .LVU1853
	mvn	r3, #0
	mov	r1, r3
	bl	fb_StrAssign
.LVL459:
	.loc 2 19 2 is_stmt 1 view .LVU1854
	.loc 2 19 33 is_stmt 0 view .LVU1855
	ldr	r2, [sp, #12]
	.loc 2 23 33 view .LVU1856
	ldr	r3, [sp, #16]
	.loc 2 27 16 view .LVU1857
	mov	r0, r7
	.loc 2 24 33 view .LVU1858
	ldr	r1, [sp, #20]
	.loc 2 19 33 view .LVU1859
	str	r2, [r4, #16]
	.loc 2 20 2 is_stmt 1 view .LVU1860
	.loc 2 20 33 is_stmt 0 view .LVU1861
	str	r7, [r4, #20]
	.loc 2 21 2 is_stmt 1 view .LVU1862
	.loc 2 23 33 is_stmt 0 view .LVU1863
	str	r3, [r4, #84]
	.loc 2 27 16 view .LVU1864
	mov	r3, #27
	.loc 2 24 33 view .LVU1865
	str	r1, [r4, #88]
	.loc 2 21 33 view .LVU1866
	str	r9, [r4, #68]
	.loc 2 22 2 is_stmt 1 view .LVU1867
	.loc 2 22 33 is_stmt 0 view .LVU1868
	str	r8, [r4, #72]
	.loc 2 23 2 is_stmt 1 view .LVU1869
	.loc 2 24 2 view .LVU1870
	.loc 2 27 2 view .LVU1871
.LVL460:
	.loc 2 27 2 view .LVU1872
	.loc 2 27 16 is_stmt 0 view .LVU1873
	str	r6, [sp]
	ldr	r2, [r5, #52]
	ldr	r1, [r5, #48]
	bl	fb_ArrayBoundChk
.LVL461:
	.loc 2 27 2 is_stmt 1 view .LVU1874
	.loc 2 27 4 is_stmt 0 view .LVU1875
	cmp	r0, #0
	.loc 2 27 4 view .LVU1876
	bne	.L317
	.loc 2 27 19 is_stmt 1 discriminator 1 view .LVU1877
.LDL35:
	.loc 2 27 12 discriminator 1 view .LVU1878
	.loc 2 27 2 discriminator 1 view .LVU1879
	.loc 2 27 12 is_stmt 0 discriminator 1 view .LVU1880
	ldr	r3, [r5, #24]
	.loc 2 27 16 discriminator 1 view .LVU1881
	mov	r2, r6
	mov	r1, #27
	.loc 2 27 12 discriminator 1 view .LVU1882
	ldr	r7, [r3, r7, lsl #2]
.LVL462:
	.loc 2 27 2 is_stmt 1 discriminator 1 view .LVU1883
	.loc 2 27 16 is_stmt 0 discriminator 1 view .LVU1884
	mov	r0, r7
.LVL463:
	.loc 2 27 16 discriminator 1 view .LVU1885
	bl	fb_NullPtrChk
.LVL464:
	.loc 2 27 2 is_stmt 1 discriminator 1 view .LVU1886
	.loc 2 27 4 is_stmt 0 discriminator 1 view .LVU1887
	cmp	r0, #0
	.loc 2 27 4 discriminator 1 view .LVU1888
	bne	.L322
	.loc 2 27 19 is_stmt 1 discriminator 4 view .LVU1889
.LDL36:
	.loc 2 27 12 discriminator 4 view .LVU1890
	.loc 2 27 2 discriminator 4 view .LVU1891
	.loc 2 27 78 is_stmt 0 discriminator 4 view .LVU1892
	ldr	r3, [r7, #24]
	add	r9, r9, #4
	add	r9, r3, r9
	.loc 2 27 33 discriminator 4 view .LVU1893
	str	r9, [r4, #24]
	.loc 2 28 2 is_stmt 1 discriminator 4 view .LVU1894
	.loc 2 28 16 is_stmt 0 discriminator 4 view .LVU1895
	str	r6, [sp]
	mov	r3, #28
	.loc 2 28 12 discriminator 4 view .LVU1896
	ldr	r7, [r4, #20]
.LVL465:
	.loc 2 28 2 is_stmt 1 discriminator 4 view .LVU1897
	.loc 2 28 16 is_stmt 0 discriminator 4 view .LVU1898
	ldr	r2, [r5, #52]
	ldr	r1, [r5, #48]
	mov	r0, r7
.LVL466:
	.loc 2 28 16 discriminator 4 view .LVU1899
	bl	fb_ArrayBoundChk
.LVL467:
	.loc 2 28 2 is_stmt 1 discriminator 4 view .LVU1900
	.loc 2 28 4 is_stmt 0 discriminator 4 view .LVU1901
	cmp	r0, #0
	.loc 2 28 4 discriminator 4 view .LVU1902
	bne	.L323
	.loc 2 28 19 is_stmt 1 discriminator 1 view .LVU1903
.LDL37:
	.loc 2 28 12 discriminator 1 view .LVU1904
	.loc 2 28 2 discriminator 1 view .LVU1905
	.loc 2 28 12 is_stmt 0 discriminator 1 view .LVU1906
	ldr	r3, [r5, #24]
	.loc 2 28 16 discriminator 1 view .LVU1907
	mov	r2, r6
	mov	r1, #28
	.loc 2 28 12 discriminator 1 view .LVU1908
	ldr	r5, [r3, r7, lsl #2]
.LVL468:
	.loc 2 28 2 is_stmt 1 discriminator 1 view .LVU1909
	.loc 2 28 16 is_stmt 0 discriminator 1 view .LVU1910
	mov	r0, r5
.LVL469:
	.loc 2 28 16 discriminator 1 view .LVU1911
	bl	fb_NullPtrChk
.LVL470:
	.loc 2 28 2 is_stmt 1 discriminator 1 view .LVU1912
	.loc 2 28 4 is_stmt 0 discriminator 1 view .LVU1913
	cmp	r0, #0
	.loc 2 28 4 discriminator 1 view .LVU1914
	bne	.L324
	.loc 2 28 19 is_stmt 1 discriminator 4 view .LVU1915
.LDL38:
	.loc 2 28 12 discriminator 4 view .LVU1916
	.loc 2 28 2 discriminator 4 view .LVU1917
	.loc 2 28 78 is_stmt 0 discriminator 4 view .LVU1918
	ldr	r3, [r5, #28]
	add	r8, r8, #25
	.loc 2 31 2 discriminator 4 view .LVU1919
	mov	r0, r4
.LVL471:
	.loc 2 28 78 discriminator 4 view .LVU1920
	add	r8, r3, r8
	.loc 2 30 35 discriminator 4 view .LVU1921
	mov	r3, #1
	.loc 2 28 33 discriminator 4 view .LVU1922
	str	r8, [r4, #28]
	.loc 2 30 2 is_stmt 1 discriminator 4 view .LVU1923
	.loc 2 30 35 is_stmt 0 discriminator 4 view .LVU1924
	strb	r3, [r4, #92]
	.loc 2 31 2 is_stmt 1 discriminator 4 view .LVU1925
	bl	_ZN11PICTUREBOXH6REDRAWEv
.LVL472:
.LDL39:
	.loc 2 32 12 discriminator 4 view .LVU1926
	.loc 2 32 2 discriminator 4 view .LVU1927
	mov	r0, fp
	bl	fb_ErrorSetFuncName
.LVL473:
	.loc 2 32 2 discriminator 4 view .LVU1928
	mov	r0, r10
	.loc 2 32 1 is_stmt 0 discriminator 4 view .LVU1929
	add	sp, sp, #28
	.cfi_remember_state
	.cfi_def_cfa_offset 36
	@ sp needed
	pop	{r4, r5, r6, r7, r8, r9, r10, fp, lr}
	.cfi_restore 14
	.cfi_restore 11
	.cfi_restore 10
	.cfi_restore 9
	.cfi_restore 8
	.cfi_restore 7
	.cfi_restore 6
	.cfi_restore 5
	.cfi_restore 4
	.cfi_def_cfa_offset 0
.LVL474:
	.loc 2 32 2 discriminator 4 view .LVU1930
	b	fb_ErrorSetModName
.LVL475:
.L317:
	.cfi_restore_state
	.loc 2 28 2 is_stmt 1 discriminator 5 view .LVU1931
	mov	pc, r0	@ indirect register jump
.LVL476:
.L324:
	.loc 2 28 2 view .LVU1932
	mov	pc, r0	@ indirect register jump
.LVL477:
.L323:
	.loc 2 28 2 view .LVU1933
	mov	pc, r0	@ indirect register jump
.LVL478:
.L322:
	.loc 2 28 2 view .LVU1934
	mov	pc, r0	@ indirect register jump
	.cfi_endproc
.LFE21:
	.size	_ZN11PICTUREBOXHC1ER8FBSTRINGllllll, .-_ZN11PICTUREBOXHC1ER8FBSTRINGllllll
	.section	.rodata.str1.4
	.align	2
.LC55:
	.ascii	"NEWPICTUREBOX\000"
	.text
	.align	2
	.global	NEWPICTUREBOX
	.syntax unified
	.arm
	.fpu vfp
	.type	NEWPICTUREBOX, %function
NEWPICTUREBOX:
.LVL479:
.LFB23:
	.loc 2 55 1 view -0
	.cfi_startproc
	@ args = 8, pretend = 0, frame = 24
	@ frame_needed = 0, uses_anonymous_args = 0
.L326:
	.loc 2 55 2 view .LVU1936
	.loc 2 55 2 view .LVU1937
	.loc 2 55 2 view .LVU1938
	.loc 2 55 2 view .LVU1939
	.loc 2 55 12 view .LVU1940
	.loc 2 55 2 view .LVU1941
	.loc 2 55 1 is_stmt 0 view .LVU1942
	push	{r4, r5, r6, r7, r8, r9, r10, fp, lr}
	.cfi_def_cfa_offset 36
	.cfi_offset 4, -36
	.cfi_offset 5, -32
	.cfi_offset 6, -28
	.cfi_offset 7, -24
	.cfi_offset 8, -20
	.cfi_offset 9, -16
	.cfi_offset 10, -12
	.cfi_offset 11, -8
	.cfi_offset 14, -4
	.loc 2 57 24 view .LVU1943
	movw	r4, #:lower16:.LANCHOR1
	movt	r4, #:upper16:.LANCHOR1
	.loc 2 55 1 view .LVU1944
	sub	sp, sp, #44
	.cfi_def_cfa_offset 80
	.loc 2 55 1 view .LVU1945
	mov	r7, r0
	.loc 2 55 16 view .LVU1946
	movw	r0, #:lower16:.LC2
.LVL480:
	.loc 2 55 16 view .LVU1947
	movt	r0, #:upper16:.LC2
	.loc 2 55 1 view .LVU1948
	mov	r8, r1
	movw	r5, #:lower16:.LANCHOR0
	movt	r5, #:upper16:.LANCHOR0
	strd	r2, [sp, #20]
	ldr	r9, [sp, #80]
	movw	r6, #:lower16:.LC2
	movt	r6, #:upper16:.LC2
	ldr	r10, [sp, #84]
	.loc 2 55 16 view .LVU1949
	bl	fb_ErrorSetModName
.LVL481:
	.loc 2 55 16 view .LVU1950
	str	r0, [sp, #28]
.LVL482:
	.loc 2 55 2 is_stmt 1 view .LVU1951
	.loc 2 55 2 view .LVU1952
	.loc 2 55 16 is_stmt 0 view .LVU1953
	movw	r0, #:lower16:.LC55
.LVL483:
	.loc 2 55 16 view .LVU1954
	movt	r0, #:upper16:.LC55
	bl	fb_ErrorSetFuncName
.LVL484:
	.loc 2 57 48 view .LVU1955
	ldr	r3, [r4, #28]
	.loc 2 55 16 view .LVU1956
	str	r0, [sp, #32]
.LVL485:
	.loc 2 55 2 is_stmt 1 view .LVU1957
	.loc 2 57 2 view .LVU1958
	.loc 2 57 48 is_stmt 0 view .LVU1959
	add	r3, r3, #1
	.loc 2 57 24 view .LVU1960
	str	r3, [r4, #28]
.LVL486:
.L327:
	.loc 2 58 12 is_stmt 1 view .LVU1961
	.loc 2 58 2 view .LVU1962
	.loc 2 58 15 is_stmt 0 view .LVU1963
	ldr	r3, [r4, #28]
	mov	r1, #4
	str	r3, [sp, #8]
	mvn	r2, #0
	mov	r3, #1
	ldr	r0, .L343
	str	r3, [sp, #4]
	str	r3, [sp]
	mov	r3, #0
	bl	fb_ArrayRedimPresvEx
.LVL487:
	.loc 2 58 2 is_stmt 1 view .LVU1964
	.loc 2 58 4 is_stmt 0 view .LVU1965
	cmp	r0, #0
	bne	.L341
.LVL488:
.L328:
	.loc 2 58 12 is_stmt 1 discriminator 3 view .LVU1966
	.loc 2 59 2 discriminator 3 view .LVU1967
	.loc 2 59 15 is_stmt 0 discriminator 3 view .LVU1968
	mov	r0, #96
	bl	malloc
.LVL489:
	.loc 2 59 2 is_stmt 1 discriminator 3 view .LVU1969
	.loc 2 59 2 discriminator 3 view .LVU1970
	.loc 2 59 4 is_stmt 0 discriminator 3 view .LVU1971
	subs	r3, r0, #0
	str	r3, [sp, #36]
	beq	.L331
	.loc 2 59 2 is_stmt 1 discriminator 2 view .LVU1972
	ldr	r3, [sp, #24]
	mov	r1, r7
	str	r3, [sp, #4]
	ldr	r3, [sp, #20]
	str	r3, [sp]
	mov	r3, r8
	ldr	r2, [r4, #28]
	str	r10, [sp, #12]
	str	r9, [sp, #8]
	bl	_ZN11PICTUREBOXHC1ER8FBSTRINGllllll
.LVL490:
.L331:
	.loc 2 59 12 discriminator 4 view .LVU1973
	.loc 2 59 2 discriminator 4 view .LVU1974
	.loc 2 59 12 is_stmt 0 discriminator 4 view .LVU1975
	ldr	fp, [r4, #28]
.LVL491:
	.loc 2 59 2 is_stmt 1 discriminator 4 view .LVU1976
	.loc 2 59 16 is_stmt 0 discriminator 4 view .LVU1977
	mov	r3, #59
	ldr	r2, [r5, #436]
	ldr	r1, [r5, #432]
	mov	r0, fp
	str	r6, [sp]
	bl	fb_ArrayBoundChk
.LVL492:
	.loc 2 59 2 is_stmt 1 discriminator 4 view .LVU1978
	.loc 2 59 4 is_stmt 0 discriminator 4 view .LVU1979
	cmp	r0, #0
	.loc 2 59 4 discriminator 4 view .LVU1980
	beq	.L342
	mov	pc, r0	@ indirect register jump
.LVL493:
.L341:
	.loc 2 58 2 is_stmt 1 discriminator 2 view .LVU1981
	.loc 2 58 15 is_stmt 0 discriminator 2 view .LVU1982
	ldr	r3, .L343+4
	movw	r1, #:lower16:.LC2
	movt	r1, #:upper16:.LC2
	ldr	r2, .L343+8
	mov	r0, #58
.LVL494:
	.loc 2 58 15 discriminator 2 view .LVU1983
	bl	fb_ErrorThrowAt
.LVL495:
	.loc 2 58 2 is_stmt 1 discriminator 2 view .LVU1984
	mov	pc, r0	@ indirect register jump
.LVL496:
.L342:
	.loc 2 59 19 discriminator 5 view .LVU1985
.LDL40:
	.loc 2 59 12 discriminator 5 view .LVU1986
	.loc 2 59 2 discriminator 5 view .LVU1987
	.loc 2 59 81 is_stmt 0 discriminator 5 view .LVU1988
	ldr	r3, [r5, #408]
	ldr	r2, [sp, #36]
	.loc 2 60 2 discriminator 5 view .LVU1989
	ldr	r0, [sp, #32]
.LVL497:
	.loc 2 59 81 discriminator 5 view .LVU1990
	str	r2, [r3, fp, lsl #2]
.LDL41:
	.loc 2 60 12 is_stmt 1 discriminator 5 view .LVU1991
	.loc 2 60 2 discriminator 5 view .LVU1992
	bl	fb_ErrorSetFuncName
.LVL498:
	.loc 2 60 2 discriminator 5 view .LVU1993
	ldr	r0, [sp, #28]
	.loc 2 60 1 is_stmt 0 discriminator 5 view .LVU1994
	add	sp, sp, #44
	.cfi_def_cfa_offset 36
	@ sp needed
	pop	{r4, r5, r6, r7, r8, r9, r10, fp, lr}
	.cfi_restore 14
	.cfi_restore 11
	.cfi_restore 10
	.cfi_restore 9
	.cfi_restore 8
	.cfi_restore 7
	.cfi_restore 6
	.cfi_restore 5
	.cfi_restore 4
	.cfi_def_cfa_offset 0
.LVL499:
	.loc 2 60 2 discriminator 5 view .LVU1995
	b	fb_ErrorSetModName
.LVL500:
.L344:
	.align	2
.L343:
	.word	.LANCHOR0+408
	.word	.L328
	.word	.L327
	.cfi_endproc
.LFE23:
	.size	NEWPICTUREBOX, .-NEWPICTUREBOX
	.align	2
	.global	_ZN8CONSOLEHC1Ev
	.syntax unified
	.arm
	.fpu vfp
	.type	_ZN8CONSOLEHC1Ev, %function
_ZN8CONSOLEHC1Ev:
.LVL501:
.LFB24:
	.loc 8 14 1 is_stmt 1 view -0
	.cfi_startproc
	@ args = 0, pretend = 0, frame = 0
	@ frame_needed = 0, uses_anonymous_args = 0
	.loc 8 14 2 view .LVU1997
	.loc 8 14 2 view .LVU1998
	.loc 8 14 2 view .LVU1999
	.loc 8 14 1 is_stmt 0 view .LVU2000
	push	{r4, lr}
	.cfi_def_cfa_offset 8
	.cfi_offset 4, -8
	.cfi_offset 14, -4
	.loc 8 14 1 view .LVU2001
	mov	r4, r0
	.loc 8 14 2 view .LVU2002
	bl	_ZN8HCONTROLC1Ev
.LVL502:
	.loc 8 14 2 is_stmt 1 view .LVU2003
	.loc 8 14 18 is_stmt 0 view .LVU2004
	ldr	r2, .L347
	.loc 8 14 2 view .LVU2005
	mov	r3, #0
	.loc 8 14 18 view .LVU2006
	str	r2, [r4]
	.loc 8 14 17 view .LVU2007
	movw	r0, #:lower16:.LC36
	movt	r0, #:upper16:.LC36
	.loc 8 14 2 view .LVU2008
	str	r3, [r4, #68]	@ unaligned
	.loc 8 14 2 is_stmt 1 view .LVU2009
	str	r3, [r4, #72]	@ unaligned
	.loc 8 14 2 view .LVU2010
	str	r3, [r4, #76]	@ unaligned
	.loc 8 14 2 view .LVU2011
	str	r3, [r4, #80]	@ unaligned
	.loc 8 14 2 view .LVU2012
	str	r3, [r4, #84]	@ unaligned
	.loc 8 14 2 view .LVU2013
	str	r3, [r4, #88]	@ unaligned
	.loc 8 14 2 view .LVU2014
	strb	r3, [r4, #92]
	.loc 8 14 2 view .LVU2015
	.loc 8 14 2 view .LVU2016
	.loc 8 14 17 is_stmt 0 view .LVU2017
	bl	fb_ErrorSetModName
.LVL503:
	mov	r4, r0
.LVL504:
	.loc 8 14 17 view .LVU2018
	movw	r0, #:lower16:.LC1
	movt	r0, #:upper16:.LC1
.LVL505:
	.loc 8 14 2 is_stmt 1 view .LVU2019
	.loc 8 14 2 view .LVU2020
	.loc 8 14 17 is_stmt 0 view .LVU2021
	bl	fb_ErrorSetFuncName
.LVL506:
	.loc 8 14 2 is_stmt 1 view .LVU2022
.LDL42:
.LDL43:
	.loc 8 14 12 view .LVU2023
	.loc 8 15 12 view .LVU2024
	.loc 8 15 2 view .LVU2025
	bl	fb_ErrorSetFuncName
.LVL507:
	.loc 8 15 2 view .LVU2026
	mov	r0, r4
	.loc 8 15 1 is_stmt 0 view .LVU2027
	pop	{r4, lr}
	.cfi_restore 14
	.cfi_restore 4
	.cfi_def_cfa_offset 0
.LVL508:
	.loc 8 15 2 view .LVU2028
	b	fb_ErrorSetModName
.LVL509:
.L348:
	.loc 8 15 2 view .LVU2029
	.align	2
.L347:
	.word	.LANCHOR0+532
	.cfi_endproc
.LFE24:
	.size	_ZN8CONSOLEHC1Ev, .-_ZN8CONSOLEHC1Ev
	.align	2
	.global	_ZN8CONSOLEHC1ER8FBSTRINGllllll
	.syntax unified
	.arm
	.fpu vfp
	.type	_ZN8CONSOLEHC1ER8FBSTRINGllllll, %function
_ZN8CONSOLEHC1ER8FBSTRINGllllll:
.LVL510:
.LFB25:
	.loc 8 17 1 is_stmt 1 view -0
	.cfi_startproc
	@ args = 16, pretend = 0, frame = 16
	@ frame_needed = 0, uses_anonymous_args = 0
.L350:
	.loc 8 17 2 view .LVU2031
	.loc 8 17 2 view .LVU2032
	.loc 8 17 2 view .LVU2033
	.loc 8 17 2 view .LVU2034
	.loc 8 17 2 view .LVU2035
	.loc 8 17 2 view .LVU2036
	.loc 8 17 12 view .LVU2037
	.loc 8 17 2 view .LVU2038
	.loc 8 17 1 is_stmt 0 view .LVU2039
	push	{r4, r5, r6, r7, r8, r9, r10, fp, lr}
	.cfi_def_cfa_offset 36
	.cfi_offset 4, -36
	.cfi_offset 5, -32
	.cfi_offset 6, -28
	.cfi_offset 7, -24
	.cfi_offset 8, -20
	.cfi_offset 9, -16
	.cfi_offset 10, -12
	.cfi_offset 11, -8
	.cfi_offset 14, -4
	.loc 8 17 16 view .LVU2040
	movw	r6, #:lower16:.LC36
	movt	r6, #:upper16:.LC36
	.loc 8 17 1 view .LVU2041
	sub	sp, sp, #28
	.cfi_def_cfa_offset 64
	.loc 8 17 1 view .LVU2042
	mov	r4, r0
	mov	r7, r3
	mov	r5, r1
	.loc 8 17 16 view .LVU2043
	mov	r0, r6
.LVL511:
	.loc 8 17 1 view .LVU2044
	ldr	r3, [sp, #72]
.LVL512:
	.loc 8 17 1 view .LVU2045
	ldr	r1, [sp, #76]
.LVL513:
	.loc 8 17 1 view .LVU2046
	str	r2, [sp, #12]
	str	r3, [sp, #16]
	str	r1, [sp, #20]
	ldr	r9, [sp, #64]
	ldr	r8, [sp, #68]
	.loc 8 17 16 view .LVU2047
	bl	fb_ErrorSetModName
.LVL514:
	.loc 8 17 16 view .LVU2048
	mov	r10, r0
.LVL515:
	.loc 8 17 2 is_stmt 1 view .LVU2049
	.loc 8 17 2 view .LVU2050
	.loc 8 17 16 is_stmt 0 view .LVU2051
	movw	r0, #:lower16:.LC1
.LVL516:
	.loc 8 17 16 view .LVU2052
	movt	r0, #:upper16:.LC1
	bl	fb_ErrorSetFuncName
.LVL517:
	mov	fp, r0
.LVL518:
	.loc 8 17 2 is_stmt 1 view .LVU2053
	.loc 8 18 2 view .LVU2054
	mov	r0, r4
.LVL519:
	.loc 8 18 2 is_stmt 0 view .LVU2055
	bl	_ZN8HCONTROLC1Ev
.LVL520:
	.loc 8 18 2 is_stmt 1 view .LVU2056
	.loc 8 18 18 is_stmt 0 view .LVU2057
	mov	r0, r4
	.loc 8 18 20 view .LVU2058
	mov	r2, r5
	.loc 8 18 18 view .LVU2059
	movw	r5, #:lower16:.LANCHOR0
.LVL521:
	.loc 8 18 18 view .LVU2060
	movt	r5, #:upper16:.LANCHOR0
	.loc 8 18 2 view .LVU2061
	mov	r3, #0
	str	r3, [r4, #68]	@ unaligned
	.loc 8 18 2 is_stmt 1 view .LVU2062
	str	r3, [r4, #72]	@ unaligned
	.loc 8 18 2 view .LVU2063
	str	r3, [r4, #76]	@ unaligned
	.loc 8 18 2 view .LVU2064
	str	r3, [r4, #80]	@ unaligned
	.loc 8 18 2 view .LVU2065
	str	r3, [r4, #84]	@ unaligned
	.loc 8 18 2 view .LVU2066
	str	r3, [r4, #88]	@ unaligned
	.loc 8 18 2 view .LVU2067
	strb	r3, [r4, #92]
	.loc 8 18 2 view .LVU2068
	.loc 8 18 20 is_stmt 0 view .LVU2069
	str	r3, [sp]
	.loc 8 18 18 view .LVU2070
	add	r3, r5, #532
	str	r3, [r0], #4
	.loc 8 18 2 is_stmt 1 view .LVU2071
	.loc 8 18 20 is_stmt 0 view .LVU2072
	mvn	r3, #0
	mov	r1, r3
	bl	fb_StrAssign
.LVL522:
	.loc 8 19 2 is_stmt 1 view .LVU2073
	.loc 8 19 33 is_stmt 0 view .LVU2074
	ldr	r2, [sp, #12]
	.loc 8 23 33 view .LVU2075
	ldr	r3, [sp, #16]
	.loc 8 27 16 view .LVU2076
	mov	r0, r7
	.loc 8 24 33 view .LVU2077
	ldr	r1, [sp, #20]
	.loc 8 19 33 view .LVU2078
	str	r2, [r4, #16]
	.loc 8 20 2 is_stmt 1 view .LVU2079
	.loc 8 20 33 is_stmt 0 view .LVU2080
	str	r7, [r4, #20]
	.loc 8 21 2 is_stmt 1 view .LVU2081
	.loc 8 23 33 is_stmt 0 view .LVU2082
	str	r3, [r4, #84]
	.loc 8 27 16 view .LVU2083
	mov	r3, #27
	.loc 8 24 33 view .LVU2084
	str	r1, [r4, #88]
	.loc 8 21 33 view .LVU2085
	str	r9, [r4, #68]
	.loc 8 22 2 is_stmt 1 view .LVU2086
	.loc 8 22 33 is_stmt 0 view .LVU2087
	str	r8, [r4, #72]
	.loc 8 23 2 is_stmt 1 view .LVU2088
	.loc 8 24 2 view .LVU2089
	.loc 8 27 2 view .LVU2090
.LVL523:
	.loc 8 27 2 view .LVU2091
	.loc 8 27 16 is_stmt 0 view .LVU2092
	str	r6, [sp]
	ldr	r2, [r5, #52]
	ldr	r1, [r5, #48]
	bl	fb_ArrayBoundChk
.LVL524:
	.loc 8 27 2 is_stmt 1 view .LVU2093
	.loc 8 27 4 is_stmt 0 view .LVU2094
	cmp	r0, #0
	.loc 8 27 4 view .LVU2095
	bne	.L360
	.loc 8 27 19 is_stmt 1 discriminator 1 view .LVU2096
.LDL44:
	.loc 8 27 12 discriminator 1 view .LVU2097
	.loc 8 27 2 discriminator 1 view .LVU2098
	.loc 8 27 12 is_stmt 0 discriminator 1 view .LVU2099
	ldr	r3, [r5, #24]
	.loc 8 27 16 discriminator 1 view .LVU2100
	mov	r2, r6
	mov	r1, #27
	.loc 8 27 12 discriminator 1 view .LVU2101
	ldr	r7, [r3, r7, lsl #2]
.LVL525:
	.loc 8 27 2 is_stmt 1 discriminator 1 view .LVU2102
	.loc 8 27 16 is_stmt 0 discriminator 1 view .LVU2103
	mov	r0, r7
.LVL526:
	.loc 8 27 16 discriminator 1 view .LVU2104
	bl	fb_NullPtrChk
.LVL527:
	.loc 8 27 2 is_stmt 1 discriminator 1 view .LVU2105
	.loc 8 27 4 is_stmt 0 discriminator 1 view .LVU2106
	cmp	r0, #0
	.loc 8 27 4 discriminator 1 view .LVU2107
	bne	.L365
	.loc 8 27 19 is_stmt 1 discriminator 4 view .LVU2108
.LDL45:
	.loc 8 27 12 discriminator 4 view .LVU2109
	.loc 8 27 2 discriminator 4 view .LVU2110
	.loc 8 27 78 is_stmt 0 discriminator 4 view .LVU2111
	ldr	r3, [r7, #24]
	add	r9, r9, #4
	add	r9, r3, r9
	.loc 8 27 33 discriminator 4 view .LVU2112
	str	r9, [r4, #24]
	.loc 8 28 2 is_stmt 1 discriminator 4 view .LVU2113
	.loc 8 28 16 is_stmt 0 discriminator 4 view .LVU2114
	str	r6, [sp]
	mov	r3, #28
	.loc 8 28 12 discriminator 4 view .LVU2115
	ldr	r7, [r4, #20]
.LVL528:
	.loc 8 28 2 is_stmt 1 discriminator 4 view .LVU2116
	.loc 8 28 16 is_stmt 0 discriminator 4 view .LVU2117
	ldr	r2, [r5, #52]
	ldr	r1, [r5, #48]
	mov	r0, r7
.LVL529:
	.loc 8 28 16 discriminator 4 view .LVU2118
	bl	fb_ArrayBoundChk
.LVL530:
	.loc 8 28 2 is_stmt 1 discriminator 4 view .LVU2119
	.loc 8 28 4 is_stmt 0 discriminator 4 view .LVU2120
	cmp	r0, #0
	.loc 8 28 4 discriminator 4 view .LVU2121
	bne	.L366
	.loc 8 28 19 is_stmt 1 discriminator 1 view .LVU2122
.LDL46:
	.loc 8 28 12 discriminator 1 view .LVU2123
	.loc 8 28 2 discriminator 1 view .LVU2124
	.loc 8 28 12 is_stmt 0 discriminator 1 view .LVU2125
	ldr	r3, [r5, #24]
	.loc 8 28 16 discriminator 1 view .LVU2126
	mov	r2, r6
	mov	r1, #28
	.loc 8 28 12 discriminator 1 view .LVU2127
	ldr	r5, [r3, r7, lsl #2]
.LVL531:
	.loc 8 28 2 is_stmt 1 discriminator 1 view .LVU2128
	.loc 8 28 16 is_stmt 0 discriminator 1 view .LVU2129
	mov	r0, r5
.LVL532:
	.loc 8 28 16 discriminator 1 view .LVU2130
	bl	fb_NullPtrChk
.LVL533:
	.loc 8 28 2 is_stmt 1 discriminator 1 view .LVU2131
	.loc 8 28 4 is_stmt 0 discriminator 1 view .LVU2132
	cmp	r0, #0
	.loc 8 28 4 discriminator 1 view .LVU2133
	bne	.L367
	.loc 8 28 19 is_stmt 1 discriminator 4 view .LVU2134
.LDL47:
	.loc 8 28 12 discriminator 4 view .LVU2135
	.loc 8 28 2 discriminator 4 view .LVU2136
	.loc 8 28 78 is_stmt 0 discriminator 4 view .LVU2137
	ldr	r3, [r5, #28]
	add	r8, r8, #25
	.loc 8 31 2 discriminator 4 view .LVU2138
	mov	r0, r4
.LVL534:
	.loc 8 28 78 discriminator 4 view .LVU2139
	add	r8, r3, r8
	.loc 8 30 35 discriminator 4 view .LVU2140
	mov	r3, #1
	.loc 8 28 33 discriminator 4 view .LVU2141
	str	r8, [r4, #28]
	.loc 8 30 2 is_stmt 1 discriminator 4 view .LVU2142
	.loc 8 30 35 is_stmt 0 discriminator 4 view .LVU2143
	strb	r3, [r4, #92]
	.loc 8 31 2 is_stmt 1 discriminator 4 view .LVU2144
	bl	_ZN8CONSOLEH6REDRAWEv
.LVL535:
.LDL48:
	.loc 8 32 12 discriminator 4 view .LVU2145
	.loc 8 32 2 discriminator 4 view .LVU2146
	mov	r0, fp
	bl	fb_ErrorSetFuncName
.LVL536:
	.loc 8 32 2 discriminator 4 view .LVU2147
	mov	r0, r10
	.loc 8 32 1 is_stmt 0 discriminator 4 view .LVU2148
	add	sp, sp, #28
	.cfi_remember_state
	.cfi_def_cfa_offset 36
	@ sp needed
	pop	{r4, r5, r6, r7, r8, r9, r10, fp, lr}
	.cfi_restore 14
	.cfi_restore 11
	.cfi_restore 10
	.cfi_restore 9
	.cfi_restore 8
	.cfi_restore 7
	.cfi_restore 6
	.cfi_restore 5
	.cfi_restore 4
	.cfi_def_cfa_offset 0
.LVL537:
	.loc 8 32 2 discriminator 4 view .LVU2149
	b	fb_ErrorSetModName
.LVL538:
.L360:
	.cfi_restore_state
	.loc 8 28 2 is_stmt 1 discriminator 5 view .LVU2150
	mov	pc, r0	@ indirect register jump
.LVL539:
.L367:
	.loc 8 28 2 view .LVU2151
	mov	pc, r0	@ indirect register jump
.LVL540:
.L366:
	.loc 8 28 2 view .LVU2152
	mov	pc, r0	@ indirect register jump
.LVL541:
.L365:
	.loc 8 28 2 view .LVU2153
	mov	pc, r0	@ indirect register jump
	.cfi_endproc
.LFE25:
	.size	_ZN8CONSOLEHC1ER8FBSTRINGllllll, .-_ZN8CONSOLEHC1ER8FBSTRINGllllll
	.section	.rodata.str1.4
	.align	2
.LC58:
	.ascii	"NEWCONSOLE\000"
	.text
	.align	2
	.global	NEWCONSOLE
	.syntax unified
	.arm
	.fpu vfp
	.type	NEWCONSOLE, %function
NEWCONSOLE:
.LVL542:
.LFB27:
	.loc 8 53 1 view -0
	.cfi_startproc
	@ args = 8, pretend = 0, frame = 24
	@ frame_needed = 0, uses_anonymous_args = 0
.L369:
	.loc 8 53 2 view .LVU2155
	.loc 8 53 2 view .LVU2156
	.loc 8 53 2 view .LVU2157
	.loc 8 53 2 view .LVU2158
	.loc 8 53 12 view .LVU2159
	.loc 8 53 2 view .LVU2160
	.loc 8 53 1 is_stmt 0 view .LVU2161
	push	{r4, r5, r6, r7, r8, r9, r10, fp, lr}
	.cfi_def_cfa_offset 36
	.cfi_offset 4, -36
	.cfi_offset 5, -32
	.cfi_offset 6, -28
	.cfi_offset 7, -24
	.cfi_offset 8, -20
	.cfi_offset 9, -16
	.cfi_offset 10, -12
	.cfi_offset 11, -8
	.cfi_offset 14, -4
	.loc 8 55 21 view .LVU2162
	movw	r4, #:lower16:.LANCHOR1
	movt	r4, #:upper16:.LANCHOR1
	.loc 8 53 1 view .LVU2163
	sub	sp, sp, #44
	.cfi_def_cfa_offset 80
	.loc 8 53 1 view .LVU2164
	mov	r7, r0
	.loc 8 53 16 view .LVU2165
	movw	r0, #:lower16:.LC36
.LVL543:
	.loc 8 53 16 view .LVU2166
	movt	r0, #:upper16:.LC36
	.loc 8 53 1 view .LVU2167
	mov	r8, r1
	movw	r5, #:lower16:.LANCHOR0
	movt	r5, #:upper16:.LANCHOR0
	strd	r2, [sp, #20]
	ldr	r9, [sp, #80]
	movw	r6, #:lower16:.LC36
	movt	r6, #:upper16:.LC36
	ldr	r10, [sp, #84]
	.loc 8 53 16 view .LVU2168
	bl	fb_ErrorSetModName
.LVL544:
	.loc 8 53 16 view .LVU2169
	str	r0, [sp, #28]
.LVL545:
	.loc 8 53 2 is_stmt 1 view .LVU2170
	.loc 8 53 2 view .LVU2171
	.loc 8 53 16 is_stmt 0 view .LVU2172
	movw	r0, #:lower16:.LC58
.LVL546:
	.loc 8 53 16 view .LVU2173
	movt	r0, #:upper16:.LC58
	bl	fb_ErrorSetFuncName
.LVL547:
	.loc 8 55 42 view .LVU2174
	ldr	r3, [r4, #32]
	.loc 8 53 16 view .LVU2175
	str	r0, [sp, #32]
.LVL548:
	.loc 8 53 2 is_stmt 1 view .LVU2176
	.loc 8 55 2 view .LVU2177
	.loc 8 55 42 is_stmt 0 view .LVU2178
	add	r3, r3, #1
	.loc 8 55 21 view .LVU2179
	str	r3, [r4, #32]
.LVL549:
.L370:
	.loc 8 56 12 is_stmt 1 view .LVU2180
	.loc 8 56 2 view .LVU2181
	.loc 8 56 15 is_stmt 0 view .LVU2182
	ldr	r3, [r4, #32]
	mov	r1, #4
	str	r3, [sp, #8]
	mvn	r2, #0
	mov	r3, #1
	ldr	r0, .L386
	str	r3, [sp, #4]
	str	r3, [sp]
	mov	r3, #0
	bl	fb_ArrayRedimPresvEx
.LVL550:
	.loc 8 56 2 is_stmt 1 view .LVU2183
	.loc 8 56 4 is_stmt 0 view .LVU2184
	cmp	r0, #0
	bne	.L384
.LVL551:
.L371:
	.loc 8 56 12 is_stmt 1 discriminator 3 view .LVU2185
	.loc 8 57 2 discriminator 3 view .LVU2186
	.loc 8 57 15 is_stmt 0 discriminator 3 view .LVU2187
	mov	r0, #96
	bl	malloc
.LVL552:
	.loc 8 57 2 is_stmt 1 discriminator 3 view .LVU2188
	.loc 8 57 2 discriminator 3 view .LVU2189
	.loc 8 57 4 is_stmt 0 discriminator 3 view .LVU2190
	subs	r3, r0, #0
	str	r3, [sp, #36]
	beq	.L374
	.loc 8 57 2 is_stmt 1 discriminator 2 view .LVU2191
	ldr	r3, [sp, #24]
	mov	r1, r7
	str	r3, [sp, #4]
	ldr	r3, [sp, #20]
	str	r3, [sp]
	mov	r3, r8
	ldr	r2, [r4, #32]
	str	r10, [sp, #12]
	str	r9, [sp, #8]
	bl	_ZN8CONSOLEHC1ER8FBSTRINGllllll
.LVL553:
.L374:
	.loc 8 57 12 discriminator 4 view .LVU2192
	.loc 8 57 2 discriminator 4 view .LVU2193
	.loc 8 57 12 is_stmt 0 discriminator 4 view .LVU2194
	ldr	fp, [r4, #32]
.LVL554:
	.loc 8 57 2 is_stmt 1 discriminator 4 view .LVU2195
	.loc 8 57 16 is_stmt 0 discriminator 4 view .LVU2196
	mov	r3, #57
	ldr	r2, [r5, #564]
	ldr	r1, [r5, #560]
	mov	r0, fp
	str	r6, [sp]
	bl	fb_ArrayBoundChk
.LVL555:
	.loc 8 57 2 is_stmt 1 discriminator 4 view .LVU2197
	.loc 8 57 4 is_stmt 0 discriminator 4 view .LVU2198
	cmp	r0, #0
	.loc 8 57 4 discriminator 4 view .LVU2199
	beq	.L385
	mov	pc, r0	@ indirect register jump
.LVL556:
.L384:
	.loc 8 56 2 is_stmt 1 discriminator 2 view .LVU2200
	.loc 8 56 15 is_stmt 0 discriminator 2 view .LVU2201
	ldr	r3, .L386+4
	movw	r1, #:lower16:.LC36
	movt	r1, #:upper16:.LC36
	ldr	r2, .L386+8
	mov	r0, #56
.LVL557:
	.loc 8 56 15 discriminator 2 view .LVU2202
	bl	fb_ErrorThrowAt
.LVL558:
	.loc 8 56 2 is_stmt 1 discriminator 2 view .LVU2203
	mov	pc, r0	@ indirect register jump
.LVL559:
.L385:
	.loc 8 57 19 discriminator 5 view .LVU2204
.LDL49:
	.loc 8 57 12 discriminator 5 view .LVU2205
	.loc 8 57 2 discriminator 5 view .LVU2206
	.loc 8 57 74 is_stmt 0 discriminator 5 view .LVU2207
	ldr	r3, [r5, #536]
	ldr	r2, [sp, #36]
	.loc 8 58 2 discriminator 5 view .LVU2208
	ldr	r0, [sp, #32]
.LVL560:
	.loc 8 57 74 discriminator 5 view .LVU2209
	str	r2, [r3, fp, lsl #2]
.LDL50:
	.loc 8 58 12 is_stmt 1 discriminator 5 view .LVU2210
	.loc 8 58 2 discriminator 5 view .LVU2211
	bl	fb_ErrorSetFuncName
.LVL561:
	.loc 8 58 2 discriminator 5 view .LVU2212
	ldr	r0, [sp, #28]
	.loc 8 58 1 is_stmt 0 discriminator 5 view .LVU2213
	add	sp, sp, #44
	.cfi_def_cfa_offset 36
	@ sp needed
	pop	{r4, r5, r6, r7, r8, r9, r10, fp, lr}
	.cfi_restore 14
	.cfi_restore 11
	.cfi_restore 10
	.cfi_restore 9
	.cfi_restore 8
	.cfi_restore 7
	.cfi_restore 6
	.cfi_restore 5
	.cfi_restore 4
	.cfi_def_cfa_offset 0
.LVL562:
	.loc 8 58 2 discriminator 5 view .LVU2214
	b	fb_ErrorSetModName
.LVL563:
.L387:
	.align	2
.L386:
	.word	.LANCHOR0+536
	.word	.L371
	.word	.L370
	.cfi_endproc
.LFE27:
	.size	NEWCONSOLE, .-NEWCONSOLE
	.align	2
	.global	_ZN6CANVAHC1Ev
	.syntax unified
	.arm
	.fpu vfp
	.type	_ZN6CANVAHC1Ev, %function
_ZN6CANVAHC1Ev:
.LVL564:
.LFB28:
	.loc 3 11 1 is_stmt 1 view -0
	.cfi_startproc
	@ args = 0, pretend = 0, frame = 0
	@ frame_needed = 0, uses_anonymous_args = 0
	.loc 3 11 2 view .LVU2216
	.loc 3 11 2 view .LVU2217
	.loc 3 11 2 view .LVU2218
	.loc 3 11 1 is_stmt 0 view .LVU2219
	push	{r4, lr}
	.cfi_def_cfa_offset 8
	.cfi_offset 4, -8
	.cfi_offset 14, -4
	.loc 3 11 1 view .LVU2220
	mov	r4, r0
	.loc 3 11 2 view .LVU2221
	bl	_ZN8HCONTROLC1Ev
.LVL565:
	.loc 3 11 2 is_stmt 1 view .LVU2222
	.loc 3 11 18 is_stmt 0 view .LVU2223
	ldr	r2, .L390
	.loc 3 11 2 view .LVU2224
	mov	r3, #0
	.loc 3 11 18 view .LVU2225
	str	r2, [r4]
	.loc 3 11 17 view .LVU2226
	movw	r0, #:lower16:.LC7
	movt	r0, #:upper16:.LC7
	.loc 3 11 2 view .LVU2227
	str	r3, [r4, #68]	@ unaligned
	.loc 3 11 2 is_stmt 1 view .LVU2228
	str	r3, [r4, #72]	@ unaligned
	.loc 3 11 2 view .LVU2229
	str	r3, [r4, #76]	@ unaligned
	.loc 3 11 2 view .LVU2230
	str	r3, [r4, #80]	@ unaligned
	.loc 3 11 2 view .LVU2231
	str	r3, [r4, #84]	@ unaligned
	.loc 3 11 2 view .LVU2232
	str	r3, [r4, #88]	@ unaligned
	.loc 3 11 2 view .LVU2233
	strb	r3, [r4, #92]
	.loc 3 11 2 view .LVU2234
	.loc 3 11 2 view .LVU2235
	.loc 3 11 17 is_stmt 0 view .LVU2236
	bl	fb_ErrorSetModName
.LVL566:
	mov	r4, r0
.LVL567:
	.loc 3 11 17 view .LVU2237
	movw	r0, #:lower16:.LC1
	movt	r0, #:upper16:.LC1
.LVL568:
	.loc 3 11 2 is_stmt 1 view .LVU2238
	.loc 3 11 2 view .LVU2239
	.loc 3 11 17 is_stmt 0 view .LVU2240
	bl	fb_ErrorSetFuncName
.LVL569:
	.loc 3 11 2 is_stmt 1 view .LVU2241
.LDL51:
.LDL52:
	.loc 3 11 12 view .LVU2242
	.loc 3 12 12 view .LVU2243
	.loc 3 12 2 view .LVU2244
	bl	fb_ErrorSetFuncName
.LVL570:
	.loc 3 12 2 view .LVU2245
	mov	r0, r4
	.loc 3 12 1 is_stmt 0 view .LVU2246
	pop	{r4, lr}
	.cfi_restore 14
	.cfi_restore 4
	.cfi_def_cfa_offset 0
.LVL571:
	.loc 3 12 2 view .LVU2247
	b	fb_ErrorSetModName
.LVL572:
.L391:
	.loc 3 12 2 view .LVU2248
	.align	2
.L390:
	.word	.LANCHOR0+660
	.cfi_endproc
.LFE28:
	.size	_ZN6CANVAHC1Ev, .-_ZN6CANVAHC1Ev
	.align	2
	.global	_ZN6CANVAHC1ER8FBSTRINGllllll
	.syntax unified
	.arm
	.fpu vfp
	.type	_ZN6CANVAHC1ER8FBSTRINGllllll, %function
_ZN6CANVAHC1ER8FBSTRINGllllll:
.LVL573:
.LFB29:
	.loc 3 14 1 is_stmt 1 view -0
	.cfi_startproc
	@ args = 16, pretend = 0, frame = 16
	@ frame_needed = 0, uses_anonymous_args = 0
.L393:
	.loc 3 14 2 view .LVU2250
	.loc 3 14 2 view .LVU2251
	.loc 3 14 2 view .LVU2252
	.loc 3 14 2 view .LVU2253
	.loc 3 14 2 view .LVU2254
	.loc 3 14 2 view .LVU2255
	.loc 3 14 12 view .LVU2256
	.loc 3 14 2 view .LVU2257
	.loc 3 14 1 is_stmt 0 view .LVU2258
	push	{r4, r5, r6, r7, r8, r9, r10, fp, lr}
	.cfi_def_cfa_offset 36
	.cfi_offset 4, -36
	.cfi_offset 5, -32
	.cfi_offset 6, -28
	.cfi_offset 7, -24
	.cfi_offset 8, -20
	.cfi_offset 9, -16
	.cfi_offset 10, -12
	.cfi_offset 11, -8
	.cfi_offset 14, -4
	.loc 3 14 16 view .LVU2259
	movw	r6, #:lower16:.LC7
	movt	r6, #:upper16:.LC7
	.loc 3 14 1 view .LVU2260
	sub	sp, sp, #28
	.cfi_def_cfa_offset 64
	.loc 3 14 1 view .LVU2261
	mov	r4, r0
	mov	r7, r3
	mov	r5, r1
	.loc 3 14 16 view .LVU2262
	mov	r0, r6
.LVL574:
	.loc 3 14 1 view .LVU2263
	ldr	r3, [sp, #72]
.LVL575:
	.loc 3 14 1 view .LVU2264
	ldr	r1, [sp, #76]
.LVL576:
	.loc 3 14 1 view .LVU2265
	str	r2, [sp, #12]
	str	r3, [sp, #16]
	str	r1, [sp, #20]
	ldr	r9, [sp, #64]
	ldr	r8, [sp, #68]
	.loc 3 14 16 view .LVU2266
	bl	fb_ErrorSetModName
.LVL577:
	.loc 3 14 16 view .LVU2267
	mov	r10, r0
.LVL578:
	.loc 3 14 2 is_stmt 1 view .LVU2268
	.loc 3 14 2 view .LVU2269
	.loc 3 14 16 is_stmt 0 view .LVU2270
	movw	r0, #:lower16:.LC1
.LVL579:
	.loc 3 14 16 view .LVU2271
	movt	r0, #:upper16:.LC1
	bl	fb_ErrorSetFuncName
.LVL580:
	mov	fp, r0
.LVL581:
	.loc 3 14 2 is_stmt 1 view .LVU2272
	.loc 3 15 2 view .LVU2273
	mov	r0, r4
.LVL582:
	.loc 3 15 2 is_stmt 0 view .LVU2274
	bl	_ZN8HCONTROLC1Ev
.LVL583:
	.loc 3 15 2 is_stmt 1 view .LVU2275
	.loc 3 15 18 is_stmt 0 view .LVU2276
	mov	r0, r4
	.loc 3 15 20 view .LVU2277
	mov	r2, r5
	.loc 3 15 18 view .LVU2278
	movw	r5, #:lower16:.LANCHOR0
.LVL584:
	.loc 3 15 18 view .LVU2279
	movt	r5, #:upper16:.LANCHOR0
	.loc 3 15 2 view .LVU2280
	mov	r3, #0
	str	r3, [r4, #68]	@ unaligned
	.loc 3 15 2 is_stmt 1 view .LVU2281
	str	r3, [r4, #72]	@ unaligned
	.loc 3 15 2 view .LVU2282
	str	r3, [r4, #76]	@ unaligned
	.loc 3 15 2 view .LVU2283
	str	r3, [r4, #80]	@ unaligned
	.loc 3 15 2 view .LVU2284
	str	r3, [r4, #84]	@ unaligned
	.loc 3 15 2 view .LVU2285
	str	r3, [r4, #88]	@ unaligned
	.loc 3 15 2 view .LVU2286
	strb	r3, [r4, #92]
	.loc 3 15 2 view .LVU2287
	.loc 3 15 20 is_stmt 0 view .LVU2288
	str	r3, [sp]
	.loc 3 15 18 view .LVU2289
	add	r3, r5, #660
	str	r3, [r0], #4
	.loc 3 15 2 is_stmt 1 view .LVU2290
	.loc 3 15 20 is_stmt 0 view .LVU2291
	mvn	r3, #0
	mov	r1, r3
	bl	fb_StrAssign
.LVL585:
	.loc 3 16 2 is_stmt 1 view .LVU2292
	.loc 3 16 33 is_stmt 0 view .LVU2293
	ldr	r2, [sp, #12]
	.loc 3 20 33 view .LVU2294
	ldr	r3, [sp, #16]
	.loc 3 24 16 view .LVU2295
	mov	r0, r7
	.loc 3 21 33 view .LVU2296
	ldr	r1, [sp, #20]
	.loc 3 16 33 view .LVU2297
	str	r2, [r4, #16]
	.loc 3 17 2 is_stmt 1 view .LVU2298
	.loc 3 17 33 is_stmt 0 view .LVU2299
	str	r7, [r4, #20]
	.loc 3 18 2 is_stmt 1 view .LVU2300
	.loc 3 20 33 is_stmt 0 view .LVU2301
	str	r3, [r4, #84]
	.loc 3 24 16 view .LVU2302
	mov	r3, #24
	.loc 3 21 33 view .LVU2303
	str	r1, [r4, #88]
	.loc 3 18 33 view .LVU2304
	str	r9, [r4, #68]
	.loc 3 19 2 is_stmt 1 view .LVU2305
	.loc 3 19 33 is_stmt 0 view .LVU2306
	str	r8, [r4, #72]
	.loc 3 20 2 is_stmt 1 view .LVU2307
	.loc 3 21 2 view .LVU2308
	.loc 3 24 2 view .LVU2309
.LVL586:
	.loc 3 24 2 view .LVU2310
	.loc 3 24 16 is_stmt 0 view .LVU2311
	str	r6, [sp]
	ldr	r2, [r5, #52]
	ldr	r1, [r5, #48]
	bl	fb_ArrayBoundChk
.LVL587:
	.loc 3 24 2 is_stmt 1 view .LVU2312
	.loc 3 24 4 is_stmt 0 view .LVU2313
	cmp	r0, #0
	.loc 3 24 4 view .LVU2314
	bne	.L403
	.loc 3 24 19 is_stmt 1 discriminator 1 view .LVU2315
.LDL53:
	.loc 3 24 12 discriminator 1 view .LVU2316
	.loc 3 24 2 discriminator 1 view .LVU2317
	.loc 3 24 12 is_stmt 0 discriminator 1 view .LVU2318
	ldr	r3, [r5, #24]
	.loc 3 24 16 discriminator 1 view .LVU2319
	mov	r2, r6
	mov	r1, #24
	.loc 3 24 12 discriminator 1 view .LVU2320
	ldr	r7, [r3, r7, lsl #2]
.LVL588:
	.loc 3 24 2 is_stmt 1 discriminator 1 view .LVU2321
	.loc 3 24 16 is_stmt 0 discriminator 1 view .LVU2322
	mov	r0, r7
.LVL589:
	.loc 3 24 16 discriminator 1 view .LVU2323
	bl	fb_NullPtrChk
.LVL590:
	.loc 3 24 2 is_stmt 1 discriminator 1 view .LVU2324
	.loc 3 24 4 is_stmt 0 discriminator 1 view .LVU2325
	cmp	r0, #0
	.loc 3 24 4 discriminator 1 view .LVU2326
	bne	.L408
	.loc 3 24 19 is_stmt 1 discriminator 4 view .LVU2327
.LDL54:
	.loc 3 24 12 discriminator 4 view .LVU2328
	.loc 3 24 2 discriminator 4 view .LVU2329
	.loc 3 24 78 is_stmt 0 discriminator 4 view .LVU2330
	ldr	r3, [r7, #24]
	add	r9, r9, #4
	add	r9, r3, r9
	.loc 3 24 33 discriminator 4 view .LVU2331
	str	r9, [r4, #24]
	.loc 3 25 2 is_stmt 1 discriminator 4 view .LVU2332
	.loc 3 25 16 is_stmt 0 discriminator 4 view .LVU2333
	str	r6, [sp]
	mov	r3, #25
	.loc 3 25 12 discriminator 4 view .LVU2334
	ldr	r7, [r4, #20]
.LVL591:
	.loc 3 25 2 is_stmt 1 discriminator 4 view .LVU2335
	.loc 3 25 16 is_stmt 0 discriminator 4 view .LVU2336
	ldr	r2, [r5, #52]
	ldr	r1, [r5, #48]
	mov	r0, r7
.LVL592:
	.loc 3 25 16 discriminator 4 view .LVU2337
	bl	fb_ArrayBoundChk
.LVL593:
	.loc 3 25 2 is_stmt 1 discriminator 4 view .LVU2338
	.loc 3 25 4 is_stmt 0 discriminator 4 view .LVU2339
	cmp	r0, #0
	.loc 3 25 4 discriminator 4 view .LVU2340
	bne	.L409
	.loc 3 25 19 is_stmt 1 discriminator 1 view .LVU2341
.LDL55:
	.loc 3 25 12 discriminator 1 view .LVU2342
	.loc 3 25 2 discriminator 1 view .LVU2343
	.loc 3 25 12 is_stmt 0 discriminator 1 view .LVU2344
	ldr	r3, [r5, #24]
	.loc 3 25 16 discriminator 1 view .LVU2345
	mov	r2, r6
	mov	r1, #25
	.loc 3 25 12 discriminator 1 view .LVU2346
	ldr	r5, [r3, r7, lsl #2]
.LVL594:
	.loc 3 25 2 is_stmt 1 discriminator 1 view .LVU2347
	.loc 3 25 16 is_stmt 0 discriminator 1 view .LVU2348
	mov	r0, r5
.LVL595:
	.loc 3 25 16 discriminator 1 view .LVU2349
	bl	fb_NullPtrChk
.LVL596:
	.loc 3 25 2 is_stmt 1 discriminator 1 view .LVU2350
	.loc 3 25 4 is_stmt 0 discriminator 1 view .LVU2351
	cmp	r0, #0
	.loc 3 25 4 discriminator 1 view .LVU2352
	bne	.L410
	.loc 3 25 19 is_stmt 1 discriminator 4 view .LVU2353
.LDL56:
	.loc 3 25 12 discriminator 4 view .LVU2354
	.loc 3 25 2 discriminator 4 view .LVU2355
	.loc 3 25 78 is_stmt 0 discriminator 4 view .LVU2356
	ldr	r3, [r5, #28]
	add	r8, r8, #25
	.loc 3 28 2 discriminator 4 view .LVU2357
	mov	r0, r4
.LVL597:
	.loc 3 25 78 discriminator 4 view .LVU2358
	add	r8, r3, r8
	.loc 3 27 35 discriminator 4 view .LVU2359
	mov	r3, #1
	.loc 3 25 33 discriminator 4 view .LVU2360
	str	r8, [r4, #28]
	.loc 3 27 2 is_stmt 1 discriminator 4 view .LVU2361
	.loc 3 27 35 is_stmt 0 discriminator 4 view .LVU2362
	strb	r3, [r4, #92]
	.loc 3 28 2 is_stmt 1 discriminator 4 view .LVU2363
	bl	_ZN6CANVAH6REDRAWEv
.LVL598:
.LDL57:
	.loc 3 29 12 discriminator 4 view .LVU2364
	.loc 3 29 2 discriminator 4 view .LVU2365
	mov	r0, fp
	bl	fb_ErrorSetFuncName
.LVL599:
	.loc 3 29 2 discriminator 4 view .LVU2366
	mov	r0, r10
	.loc 3 29 1 is_stmt 0 discriminator 4 view .LVU2367
	add	sp, sp, #28
	.cfi_remember_state
	.cfi_def_cfa_offset 36
	@ sp needed
	pop	{r4, r5, r6, r7, r8, r9, r10, fp, lr}
	.cfi_restore 14
	.cfi_restore 11
	.cfi_restore 10
	.cfi_restore 9
	.cfi_restore 8
	.cfi_restore 7
	.cfi_restore 6
	.cfi_restore 5
	.cfi_restore 4
	.cfi_def_cfa_offset 0
.LVL600:
	.loc 3 29 2 discriminator 4 view .LVU2368
	b	fb_ErrorSetModName
.LVL601:
.L403:
	.cfi_restore_state
	.loc 3 25 2 is_stmt 1 discriminator 5 view .LVU2369
	mov	pc, r0	@ indirect register jump
.LVL602:
.L410:
	.loc 3 25 2 view .LVU2370
	mov	pc, r0	@ indirect register jump
.LVL603:
.L409:
	.loc 3 25 2 view .LVU2371
	mov	pc, r0	@ indirect register jump
.LVL604:
.L408:
	.loc 3 25 2 view .LVU2372
	mov	pc, r0	@ indirect register jump
	.cfi_endproc
.LFE29:
	.size	_ZN6CANVAHC1ER8FBSTRINGllllll, .-_ZN6CANVAHC1ER8FBSTRINGllllll
	.section	.rodata.str1.4
	.align	2
.LC61:
	.ascii	"NEWCANVA\000"
	.text
	.align	2
	.global	NEWCANVA
	.syntax unified
	.arm
	.fpu vfp
	.type	NEWCANVA, %function
NEWCANVA:
.LVL605:
.LFB31:
	.loc 3 53 1 view -0
	.cfi_startproc
	@ args = 8, pretend = 0, frame = 24
	@ frame_needed = 0, uses_anonymous_args = 0
.L412:
	.loc 3 53 2 view .LVU2374
	.loc 3 53 2 view .LVU2375
	.loc 3 53 2 view .LVU2376
	.loc 3 53 2 view .LVU2377
	.loc 3 53 12 view .LVU2378
	.loc 3 53 2 view .LVU2379
	.loc 3 53 1 is_stmt 0 view .LVU2380
	push	{r4, r5, r6, r7, r8, r9, r10, fp, lr}
	.cfi_def_cfa_offset 36
	.cfi_offset 4, -36
	.cfi_offset 5, -32
	.cfi_offset 6, -28
	.cfi_offset 7, -24
	.cfi_offset 8, -20
	.cfi_offset 9, -16
	.cfi_offset 10, -12
	.cfi_offset 11, -8
	.cfi_offset 14, -4
	.loc 3 55 19 view .LVU2381
	movw	r4, #:lower16:.LANCHOR1
	movt	r4, #:upper16:.LANCHOR1
	.loc 3 53 1 view .LVU2382
	sub	sp, sp, #44
	.cfi_def_cfa_offset 80
	.loc 3 53 1 view .LVU2383
	mov	r7, r0
	.loc 3 53 16 view .LVU2384
	movw	r0, #:lower16:.LC7
.LVL606:
	.loc 3 53 16 view .LVU2385
	movt	r0, #:upper16:.LC7
	.loc 3 53 1 view .LVU2386
	mov	r8, r1
	movw	r5, #:lower16:.LANCHOR0
	movt	r5, #:upper16:.LANCHOR0
	strd	r2, [sp, #20]
	ldr	r9, [sp, #80]
	movw	r6, #:lower16:.LC7
	movt	r6, #:upper16:.LC7
	ldr	r10, [sp, #84]
	.loc 3 53 16 view .LVU2387
	bl	fb_ErrorSetModName
.LVL607:
	.loc 3 53 16 view .LVU2388
	str	r0, [sp, #28]
.LVL608:
	.loc 3 53 2 is_stmt 1 view .LVU2389
	.loc 3 53 2 view .LVU2390
	.loc 3 53 16 is_stmt 0 view .LVU2391
	movw	r0, #:lower16:.LC61
.LVL609:
	.loc 3 53 16 view .LVU2392
	movt	r0, #:upper16:.LC61
	bl	fb_ErrorSetFuncName
.LVL610:
	.loc 3 55 38 view .LVU2393
	ldr	r3, [r4, #36]
	.loc 3 53 16 view .LVU2394
	str	r0, [sp, #32]
.LVL611:
	.loc 3 53 2 is_stmt 1 view .LVU2395
	.loc 3 55 2 view .LVU2396
	.loc 3 55 38 is_stmt 0 view .LVU2397
	add	r3, r3, #1
	.loc 3 55 19 view .LVU2398
	str	r3, [r4, #36]
.LVL612:
.L413:
	.loc 3 56 12 is_stmt 1 view .LVU2399
	.loc 3 56 2 view .LVU2400
	.loc 3 56 15 is_stmt 0 view .LVU2401
	ldr	r3, [r4, #36]
	mov	r1, #4
	str	r3, [sp, #8]
	mvn	r2, #0
	mov	r3, #1
	ldr	r0, .L429
	str	r3, [sp, #4]
	str	r3, [sp]
	mov	r3, #0
	bl	fb_ArrayRedimPresvEx
.LVL613:
	.loc 3 56 2 is_stmt 1 view .LVU2402
	.loc 3 56 4 is_stmt 0 view .LVU2403
	cmp	r0, #0
	bne	.L427
.LVL614:
.L414:
	.loc 3 56 12 is_stmt 1 discriminator 3 view .LVU2404
	.loc 3 57 2 discriminator 3 view .LVU2405
	.loc 3 57 15 is_stmt 0 discriminator 3 view .LVU2406
	mov	r0, #96
	bl	malloc
.LVL615:
	.loc 3 57 2 is_stmt 1 discriminator 3 view .LVU2407
	.loc 3 57 2 discriminator 3 view .LVU2408
	.loc 3 57 4 is_stmt 0 discriminator 3 view .LVU2409
	subs	r3, r0, #0
	str	r3, [sp, #36]
	beq	.L417
	.loc 3 57 2 is_stmt 1 discriminator 2 view .LVU2410
	ldr	r3, [sp, #24]
	mov	r1, r7
	str	r3, [sp, #4]
	ldr	r3, [sp, #20]
	str	r3, [sp]
	mov	r3, r8
	ldr	r2, [r4, #36]
	str	r10, [sp, #12]
	str	r9, [sp, #8]
	bl	_ZN6CANVAHC1ER8FBSTRINGllllll
.LVL616:
.L417:
	.loc 3 57 12 discriminator 4 view .LVU2411
	.loc 3 57 2 discriminator 4 view .LVU2412
	.loc 3 57 12 is_stmt 0 discriminator 4 view .LVU2413
	ldr	fp, [r4, #36]
.LVL617:
	.loc 3 57 2 is_stmt 1 discriminator 4 view .LVU2414
	.loc 3 57 16 is_stmt 0 discriminator 4 view .LVU2415
	mov	r3, #57
	ldr	r2, [r5, #692]
	ldr	r1, [r5, #688]
	mov	r0, fp
	str	r6, [sp]
	bl	fb_ArrayBoundChk
.LVL618:
	.loc 3 57 2 is_stmt 1 discriminator 4 view .LVU2416
	.loc 3 57 4 is_stmt 0 discriminator 4 view .LVU2417
	cmp	r0, #0
	.loc 3 57 4 discriminator 4 view .LVU2418
	beq	.L428
	mov	pc, r0	@ indirect register jump
.LVL619:
.L427:
	.loc 3 56 2 is_stmt 1 discriminator 2 view .LVU2419
	.loc 3 56 15 is_stmt 0 discriminator 2 view .LVU2420
	ldr	r3, .L429+4
	movw	r1, #:lower16:.LC7
	movt	r1, #:upper16:.LC7
	ldr	r2, .L429+8
	mov	r0, #56
.LVL620:
	.loc 3 56 15 discriminator 2 view .LVU2421
	bl	fb_ErrorThrowAt
.LVL621:
	.loc 3 56 2 is_stmt 1 discriminator 2 view .LVU2422
	mov	pc, r0	@ indirect register jump
.LVL622:
.L428:
	.loc 3 57 19 discriminator 5 view .LVU2423
.LDL58:
	.loc 3 57 12 discriminator 5 view .LVU2424
	.loc 3 57 2 discriminator 5 view .LVU2425
	.loc 3 57 70 is_stmt 0 discriminator 5 view .LVU2426
	ldr	r3, [r5, #664]
	ldr	r2, [sp, #36]
	.loc 3 58 2 discriminator 5 view .LVU2427
	ldr	r0, [sp, #32]
.LVL623:
	.loc 3 57 70 discriminator 5 view .LVU2428
	str	r2, [r3, fp, lsl #2]
.LDL59:
	.loc 3 58 12 is_stmt 1 discriminator 5 view .LVU2429
	.loc 3 58 2 discriminator 5 view .LVU2430
	bl	fb_ErrorSetFuncName
.LVL624:
	.loc 3 58 2 discriminator 5 view .LVU2431
	ldr	r0, [sp, #28]
	.loc 3 58 1 is_stmt 0 discriminator 5 view .LVU2432
	add	sp, sp, #44
	.cfi_def_cfa_offset 36
	@ sp needed
	pop	{r4, r5, r6, r7, r8, r9, r10, fp, lr}
	.cfi_restore 14
	.cfi_restore 11
	.cfi_restore 10
	.cfi_restore 9
	.cfi_restore 8
	.cfi_restore 7
	.cfi_restore 6
	.cfi_restore 5
	.cfi_restore 4
	.cfi_def_cfa_offset 0
.LVL625:
	.loc 3 58 2 discriminator 5 view .LVU2433
	b	fb_ErrorSetModName
.LVL626:
.L430:
	.align	2
.L429:
	.word	.LANCHOR0+664
	.word	.L414
	.word	.L413
	.cfi_endproc
.LFE31:
	.size	NEWCANVA, .-NEWCANVA
	.align	2
	.global	_ZN7BUTTONHC1Ev
	.syntax unified
	.arm
	.fpu vfp
	.type	_ZN7BUTTONHC1Ev, %function
_ZN7BUTTONHC1Ev:
.LVL627:
.LFB32:
	.loc 4 11 1 is_stmt 1 view -0
	.cfi_startproc
	@ args = 0, pretend = 0, frame = 0
	@ frame_needed = 0, uses_anonymous_args = 0
	.loc 4 11 2 view .LVU2435
	.loc 4 11 2 view .LVU2436
	.loc 4 11 2 view .LVU2437
	.loc 4 11 1 is_stmt 0 view .LVU2438
	push	{r4, lr}
	.cfi_def_cfa_offset 8
	.cfi_offset 4, -8
	.cfi_offset 14, -4
	.loc 4 11 1 view .LVU2439
	mov	r4, r0
	.loc 4 11 2 view .LVU2440
	bl	_ZN8HCONTROLC1Ev
.LVL628:
	.loc 4 11 2 is_stmt 1 view .LVU2441
	.loc 4 11 18 is_stmt 0 view .LVU2442
	ldr	r2, .L433
	.loc 4 11 2 view .LVU2443
	mov	r3, #0
	.loc 4 11 18 view .LVU2444
	str	r2, [r4]
	.loc 4 11 17 view .LVU2445
	movw	r0, #:lower16:.LC10
	movt	r0, #:upper16:.LC10
	.loc 4 11 2 view .LVU2446
	str	r3, [r4, #68]	@ unaligned
	.loc 4 11 2 is_stmt 1 view .LVU2447
	str	r3, [r4, #72]	@ unaligned
	.loc 4 11 2 view .LVU2448
	str	r3, [r4, #76]	@ unaligned
	.loc 4 11 2 view .LVU2449
	str	r3, [r4, #80]	@ unaligned
	.loc 4 11 2 view .LVU2450
	str	r3, [r4, #84]	@ unaligned
	.loc 4 11 2 view .LVU2451
	str	r3, [r4, #88]	@ unaligned
	.loc 4 11 2 view .LVU2452
	strb	r3, [r4, #92]
	.loc 4 11 2 view .LVU2453
	.loc 4 11 2 view .LVU2454
	.loc 4 11 17 is_stmt 0 view .LVU2455
	bl	fb_ErrorSetModName
.LVL629:
	mov	r4, r0
.LVL630:
	.loc 4 11 17 view .LVU2456
	movw	r0, #:lower16:.LC1
	movt	r0, #:upper16:.LC1
.LVL631:
	.loc 4 11 2 is_stmt 1 view .LVU2457
	.loc 4 11 2 view .LVU2458
	.loc 4 11 17 is_stmt 0 view .LVU2459
	bl	fb_ErrorSetFuncName
.LVL632:
	.loc 4 11 2 is_stmt 1 view .LVU2460
.LDL60:
.LDL61:
	.loc 4 11 12 view .LVU2461
	.loc 4 12 12 view .LVU2462
	.loc 4 12 2 view .LVU2463
	bl	fb_ErrorSetFuncName
.LVL633:
	.loc 4 12 2 view .LVU2464
	mov	r0, r4
	.loc 4 12 1 is_stmt 0 view .LVU2465
	pop	{r4, lr}
	.cfi_restore 14
	.cfi_restore 4
	.cfi_def_cfa_offset 0
.LVL634:
	.loc 4 12 2 view .LVU2466
	b	fb_ErrorSetModName
.LVL635:
.L434:
	.loc 4 12 2 view .LVU2467
	.align	2
.L433:
	.word	.LANCHOR0+788
	.cfi_endproc
.LFE32:
	.size	_ZN7BUTTONHC1Ev, .-_ZN7BUTTONHC1Ev
	.align	2
	.global	_ZN7BUTTONHC1ER8FBSTRINGllllll
	.syntax unified
	.arm
	.fpu vfp
	.type	_ZN7BUTTONHC1ER8FBSTRINGllllll, %function
_ZN7BUTTONHC1ER8FBSTRINGllllll:
.LVL636:
.LFB33:
	.loc 4 14 1 is_stmt 1 view -0
	.cfi_startproc
	@ args = 16, pretend = 0, frame = 16
	@ frame_needed = 0, uses_anonymous_args = 0
.L436:
	.loc 4 14 2 view .LVU2469
	.loc 4 14 2 view .LVU2470
	.loc 4 14 2 view .LVU2471
	.loc 4 14 2 view .LVU2472
	.loc 4 14 2 view .LVU2473
	.loc 4 14 2 view .LVU2474
	.loc 4 14 12 view .LVU2475
	.loc 4 14 2 view .LVU2476
	.loc 4 14 1 is_stmt 0 view .LVU2477
	push	{r4, r5, r6, r7, r8, r9, r10, fp, lr}
	.cfi_def_cfa_offset 36
	.cfi_offset 4, -36
	.cfi_offset 5, -32
	.cfi_offset 6, -28
	.cfi_offset 7, -24
	.cfi_offset 8, -20
	.cfi_offset 9, -16
	.cfi_offset 10, -12
	.cfi_offset 11, -8
	.cfi_offset 14, -4
	.loc 4 14 16 view .LVU2478
	movw	r6, #:lower16:.LC10
	movt	r6, #:upper16:.LC10
	.loc 4 14 1 view .LVU2479
	sub	sp, sp, #28
	.cfi_def_cfa_offset 64
	.loc 4 14 1 view .LVU2480
	mov	r4, r0
	mov	r7, r3
	mov	r5, r1
	.loc 4 14 16 view .LVU2481
	mov	r0, r6
.LVL637:
	.loc 4 14 1 view .LVU2482
	ldr	r3, [sp, #72]
.LVL638:
	.loc 4 14 1 view .LVU2483
	ldr	r1, [sp, #76]
.LVL639:
	.loc 4 14 1 view .LVU2484
	str	r2, [sp, #12]
	str	r3, [sp, #16]
	str	r1, [sp, #20]
	ldr	r9, [sp, #64]
	ldr	r8, [sp, #68]
	.loc 4 14 16 view .LVU2485
	bl	fb_ErrorSetModName
.LVL640:
	.loc 4 14 16 view .LVU2486
	mov	r10, r0
.LVL641:
	.loc 4 14 2 is_stmt 1 view .LVU2487
	.loc 4 14 2 view .LVU2488
	.loc 4 14 16 is_stmt 0 view .LVU2489
	movw	r0, #:lower16:.LC1
.LVL642:
	.loc 4 14 16 view .LVU2490
	movt	r0, #:upper16:.LC1
	bl	fb_ErrorSetFuncName
.LVL643:
	mov	fp, r0
.LVL644:
	.loc 4 14 2 is_stmt 1 view .LVU2491
	.loc 4 15 2 view .LVU2492
	mov	r0, r4
.LVL645:
	.loc 4 15 2 is_stmt 0 view .LVU2493
	bl	_ZN8HCONTROLC1Ev
.LVL646:
	.loc 4 15 2 is_stmt 1 view .LVU2494
	.loc 4 15 18 is_stmt 0 view .LVU2495
	mov	r0, r4
	.loc 4 15 20 view .LVU2496
	mov	r2, r5
	.loc 4 15 18 view .LVU2497
	movw	r5, #:lower16:.LANCHOR0
.LVL647:
	.loc 4 15 18 view .LVU2498
	movt	r5, #:upper16:.LANCHOR0
	.loc 4 15 2 view .LVU2499
	mov	r3, #0
	str	r3, [r4, #68]	@ unaligned
	.loc 4 15 2 is_stmt 1 view .LVU2500
	str	r3, [r4, #72]	@ unaligned
	.loc 4 15 2 view .LVU2501
	str	r3, [r4, #76]	@ unaligned
	.loc 4 15 2 view .LVU2502
	str	r3, [r4, #80]	@ unaligned
	.loc 4 15 2 view .LVU2503
	str	r3, [r4, #84]	@ unaligned
	.loc 4 15 2 view .LVU2504
	str	r3, [r4, #88]	@ unaligned
	.loc 4 15 2 view .LVU2505
	strb	r3, [r4, #92]
	.loc 4 15 2 view .LVU2506
	.loc 4 15 20 is_stmt 0 view .LVU2507
	str	r3, [sp]
	.loc 4 15 18 view .LVU2508
	add	r3, r5, #788
	str	r3, [r0], #4
	.loc 4 15 2 is_stmt 1 view .LVU2509
	.loc 4 15 20 is_stmt 0 view .LVU2510
	mvn	r3, #0
	mov	r1, r3
	bl	fb_StrAssign
.LVL648:
	.loc 4 16 2 is_stmt 1 view .LVU2511
	.loc 4 16 33 is_stmt 0 view .LVU2512
	ldr	r2, [sp, #12]
	.loc 4 20 33 view .LVU2513
	ldr	r3, [sp, #16]
	.loc 4 24 16 view .LVU2514
	mov	r0, r7
	.loc 4 21 33 view .LVU2515
	ldr	r1, [sp, #20]
	.loc 4 16 33 view .LVU2516
	str	r2, [r4, #16]
	.loc 4 17 2 is_stmt 1 view .LVU2517
	.loc 4 17 33 is_stmt 0 view .LVU2518
	str	r7, [r4, #20]
	.loc 4 18 2 is_stmt 1 view .LVU2519
	.loc 4 20 33 is_stmt 0 view .LVU2520
	str	r3, [r4, #84]
	.loc 4 24 16 view .LVU2521
	mov	r3, #24
	.loc 4 21 33 view .LVU2522
	str	r1, [r4, #88]
	.loc 4 18 33 view .LVU2523
	str	r9, [r4, #68]
	.loc 4 19 2 is_stmt 1 view .LVU2524
	.loc 4 19 33 is_stmt 0 view .LVU2525
	str	r8, [r4, #72]
	.loc 4 20 2 is_stmt 1 view .LVU2526
	.loc 4 21 2 view .LVU2527
	.loc 4 24 2 view .LVU2528
.LVL649:
	.loc 4 24 2 view .LVU2529
	.loc 4 24 16 is_stmt 0 view .LVU2530
	str	r6, [sp]
	ldr	r2, [r5, #52]
	ldr	r1, [r5, #48]
	bl	fb_ArrayBoundChk
.LVL650:
	.loc 4 24 2 is_stmt 1 view .LVU2531
	.loc 4 24 4 is_stmt 0 view .LVU2532
	cmp	r0, #0
	.loc 4 24 4 view .LVU2533
	bne	.L446
	.loc 4 24 19 is_stmt 1 discriminator 1 view .LVU2534
.LDL62:
	.loc 4 24 12 discriminator 1 view .LVU2535
	.loc 4 24 2 discriminator 1 view .LVU2536
	.loc 4 24 12 is_stmt 0 discriminator 1 view .LVU2537
	ldr	r3, [r5, #24]
	.loc 4 24 16 discriminator 1 view .LVU2538
	mov	r2, r6
	mov	r1, #24
	.loc 4 24 12 discriminator 1 view .LVU2539
	ldr	r7, [r3, r7, lsl #2]
.LVL651:
	.loc 4 24 2 is_stmt 1 discriminator 1 view .LVU2540
	.loc 4 24 16 is_stmt 0 discriminator 1 view .LVU2541
	mov	r0, r7
.LVL652:
	.loc 4 24 16 discriminator 1 view .LVU2542
	bl	fb_NullPtrChk
.LVL653:
	.loc 4 24 2 is_stmt 1 discriminator 1 view .LVU2543
	.loc 4 24 4 is_stmt 0 discriminator 1 view .LVU2544
	cmp	r0, #0
	.loc 4 24 4 discriminator 1 view .LVU2545
	bne	.L451
	.loc 4 24 19 is_stmt 1 discriminator 4 view .LVU2546
.LDL63:
	.loc 4 24 12 discriminator 4 view .LVU2547
	.loc 4 24 2 discriminator 4 view .LVU2548
	.loc 4 24 78 is_stmt 0 discriminator 4 view .LVU2549
	ldr	r3, [r7, #24]
	add	r9, r9, #4
	add	r9, r3, r9
	.loc 4 24 33 discriminator 4 view .LVU2550
	str	r9, [r4, #24]
	.loc 4 25 2 is_stmt 1 discriminator 4 view .LVU2551
	.loc 4 25 16 is_stmt 0 discriminator 4 view .LVU2552
	str	r6, [sp]
	mov	r3, #25
	.loc 4 25 12 discriminator 4 view .LVU2553
	ldr	r7, [r4, #20]
.LVL654:
	.loc 4 25 2 is_stmt 1 discriminator 4 view .LVU2554
	.loc 4 25 16 is_stmt 0 discriminator 4 view .LVU2555
	ldr	r2, [r5, #52]
	ldr	r1, [r5, #48]
	mov	r0, r7
.LVL655:
	.loc 4 25 16 discriminator 4 view .LVU2556
	bl	fb_ArrayBoundChk
.LVL656:
	.loc 4 25 2 is_stmt 1 discriminator 4 view .LVU2557
	.loc 4 25 4 is_stmt 0 discriminator 4 view .LVU2558
	cmp	r0, #0
	.loc 4 25 4 discriminator 4 view .LVU2559
	bne	.L452
	.loc 4 25 19 is_stmt 1 discriminator 1 view .LVU2560
.LDL64:
	.loc 4 25 12 discriminator 1 view .LVU2561
	.loc 4 25 2 discriminator 1 view .LVU2562
	.loc 4 25 12 is_stmt 0 discriminator 1 view .LVU2563
	ldr	r3, [r5, #24]
	.loc 4 25 16 discriminator 1 view .LVU2564
	mov	r2, r6
	mov	r1, #25
	.loc 4 25 12 discriminator 1 view .LVU2565
	ldr	r5, [r3, r7, lsl #2]
.LVL657:
	.loc 4 25 2 is_stmt 1 discriminator 1 view .LVU2566
	.loc 4 25 16 is_stmt 0 discriminator 1 view .LVU2567
	mov	r0, r5
.LVL658:
	.loc 4 25 16 discriminator 1 view .LVU2568
	bl	fb_NullPtrChk
.LVL659:
	.loc 4 25 2 is_stmt 1 discriminator 1 view .LVU2569
	.loc 4 25 4 is_stmt 0 discriminator 1 view .LVU2570
	cmp	r0, #0
	.loc 4 25 4 discriminator 1 view .LVU2571
	bne	.L453
	.loc 4 25 19 is_stmt 1 discriminator 4 view .LVU2572
.LDL65:
	.loc 4 25 12 discriminator 4 view .LVU2573
	.loc 4 25 2 discriminator 4 view .LVU2574
	.loc 4 25 78 is_stmt 0 discriminator 4 view .LVU2575
	ldr	r3, [r5, #28]
	add	r8, r8, #25
	.loc 4 28 2 discriminator 4 view .LVU2576
	mov	r0, r4
.LVL660:
	.loc 4 25 78 discriminator 4 view .LVU2577
	add	r8, r3, r8
	.loc 4 27 35 discriminator 4 view .LVU2578
	mov	r3, #1
	.loc 4 25 33 discriminator 4 view .LVU2579
	str	r8, [r4, #28]
	.loc 4 27 2 is_stmt 1 discriminator 4 view .LVU2580
	.loc 4 27 35 is_stmt 0 discriminator 4 view .LVU2581
	strb	r3, [r4, #92]
	.loc 4 28 2 is_stmt 1 discriminator 4 view .LVU2582
	bl	_ZN7BUTTONH6REDRAWEv
.LVL661:
.LDL66:
	.loc 4 29 12 discriminator 4 view .LVU2583
	.loc 4 29 2 discriminator 4 view .LVU2584
	mov	r0, fp
	bl	fb_ErrorSetFuncName
.LVL662:
	.loc 4 29 2 discriminator 4 view .LVU2585
	mov	r0, r10
	.loc 4 29 1 is_stmt 0 discriminator 4 view .LVU2586
	add	sp, sp, #28
	.cfi_remember_state
	.cfi_def_cfa_offset 36
	@ sp needed
	pop	{r4, r5, r6, r7, r8, r9, r10, fp, lr}
	.cfi_restore 14
	.cfi_restore 11
	.cfi_restore 10
	.cfi_restore 9
	.cfi_restore 8
	.cfi_restore 7
	.cfi_restore 6
	.cfi_restore 5
	.cfi_restore 4
	.cfi_def_cfa_offset 0
.LVL663:
	.loc 4 29 2 discriminator 4 view .LVU2587
	b	fb_ErrorSetModName
.LVL664:
.L446:
	.cfi_restore_state
	.loc 4 25 2 is_stmt 1 discriminator 5 view .LVU2588
	mov	pc, r0	@ indirect register jump
.LVL665:
.L453:
	.loc 4 25 2 view .LVU2589
	mov	pc, r0	@ indirect register jump
.LVL666:
.L452:
	.loc 4 25 2 view .LVU2590
	mov	pc, r0	@ indirect register jump
.LVL667:
.L451:
	.loc 4 25 2 view .LVU2591
	mov	pc, r0	@ indirect register jump
	.cfi_endproc
.LFE33:
	.size	_ZN7BUTTONHC1ER8FBSTRINGllllll, .-_ZN7BUTTONHC1ER8FBSTRINGllllll
	.section	.rodata.str1.4
	.align	2
.LC64:
	.ascii	"NEWBUTTON\000"
	.text
	.align	2
	.global	NEWBUTTON
	.syntax unified
	.arm
	.fpu vfp
	.type	NEWBUTTON, %function
NEWBUTTON:
.LVL668:
.LFB35:
	.loc 4 53 1 view -0
	.cfi_startproc
	@ args = 8, pretend = 0, frame = 24
	@ frame_needed = 0, uses_anonymous_args = 0
.L455:
	.loc 4 53 2 view .LVU2593
	.loc 4 53 2 view .LVU2594
	.loc 4 53 2 view .LVU2595
	.loc 4 53 2 view .LVU2596
	.loc 4 53 12 view .LVU2597
	.loc 4 53 2 view .LVU2598
	.loc 4 53 1 is_stmt 0 view .LVU2599
	push	{r4, r5, r6, r7, r8, r9, r10, fp, lr}
	.cfi_def_cfa_offset 36
	.cfi_offset 4, -36
	.cfi_offset 5, -32
	.cfi_offset 6, -28
	.cfi_offset 7, -24
	.cfi_offset 8, -20
	.cfi_offset 9, -16
	.cfi_offset 10, -12
	.cfi_offset 11, -8
	.cfi_offset 14, -4
	.loc 4 55 20 view .LVU2600
	movw	r4, #:lower16:.LANCHOR1
	movt	r4, #:upper16:.LANCHOR1
	.loc 4 53 1 view .LVU2601
	sub	sp, sp, #44
	.cfi_def_cfa_offset 80
	.loc 4 53 1 view .LVU2602
	mov	r7, r0
	.loc 4 53 16 view .LVU2603
	movw	r0, #:lower16:.LC10
.LVL669:
	.loc 4 53 16 view .LVU2604
	movt	r0, #:upper16:.LC10
	.loc 4 53 1 view .LVU2605
	mov	r8, r1
	movw	r5, #:lower16:.LANCHOR0
	movt	r5, #:upper16:.LANCHOR0
	strd	r2, [sp, #20]
	ldr	r9, [sp, #80]
	movw	r6, #:lower16:.LC10
	movt	r6, #:upper16:.LC10
	ldr	r10, [sp, #84]
	.loc 4 53 16 view .LVU2606
	bl	fb_ErrorSetModName
.LVL670:
	.loc 4 53 16 view .LVU2607
	str	r0, [sp, #28]
.LVL671:
	.loc 4 53 2 is_stmt 1 view .LVU2608
	.loc 4 53 2 view .LVU2609
	.loc 4 53 16 is_stmt 0 view .LVU2610
	movw	r0, #:lower16:.LC64
.LVL672:
	.loc 4 53 16 view .LVU2611
	movt	r0, #:upper16:.LC64
	bl	fb_ErrorSetFuncName
.LVL673:
	.loc 4 55 40 view .LVU2612
	ldr	r3, [r4, #40]
	.loc 4 53 16 view .LVU2613
	str	r0, [sp, #32]
.LVL674:
	.loc 4 53 2 is_stmt 1 view .LVU2614
	.loc 4 55 2 view .LVU2615
	.loc 4 55 40 is_stmt 0 view .LVU2616
	add	r3, r3, #1
	.loc 4 55 20 view .LVU2617
	str	r3, [r4, #40]
.LVL675:
.L456:
	.loc 4 56 12 is_stmt 1 view .LVU2618
	.loc 4 56 2 view .LVU2619
	.loc 4 56 15 is_stmt 0 view .LVU2620
	ldr	r3, [r4, #40]
	mov	r1, #4
	str	r3, [sp, #8]
	mvn	r2, #0
	mov	r3, #1
	ldr	r0, .L472
	str	r3, [sp, #4]
	str	r3, [sp]
	mov	r3, #0
	bl	fb_ArrayRedimPresvEx
.LVL676:
	.loc 4 56 2 is_stmt 1 view .LVU2621
	.loc 4 56 4 is_stmt 0 view .LVU2622
	cmp	r0, #0
	bne	.L470
.LVL677:
.L457:
	.loc 4 56 12 is_stmt 1 discriminator 3 view .LVU2623
	.loc 4 57 2 discriminator 3 view .LVU2624
	.loc 4 57 15 is_stmt 0 discriminator 3 view .LVU2625
	mov	r0, #96
	bl	malloc
.LVL678:
	.loc 4 57 2 is_stmt 1 discriminator 3 view .LVU2626
	.loc 4 57 2 discriminator 3 view .LVU2627
	.loc 4 57 4 is_stmt 0 discriminator 3 view .LVU2628
	subs	r3, r0, #0
	str	r3, [sp, #36]
	beq	.L460
	.loc 4 57 2 is_stmt 1 discriminator 2 view .LVU2629
	ldr	r3, [sp, #24]
	mov	r1, r7
	str	r3, [sp, #4]
	ldr	r3, [sp, #20]
	str	r3, [sp]
	mov	r3, r8
	ldr	r2, [r4, #40]
	str	r10, [sp, #12]
	str	r9, [sp, #8]
	bl	_ZN7BUTTONHC1ER8FBSTRINGllllll
.LVL679:
.L460:
	.loc 4 57 12 discriminator 4 view .LVU2630
	.loc 4 57 2 discriminator 4 view .LVU2631
	.loc 4 57 12 is_stmt 0 discriminator 4 view .LVU2632
	ldr	fp, [r4, #40]
.LVL680:
	.loc 4 57 2 is_stmt 1 discriminator 4 view .LVU2633
	.loc 4 57 16 is_stmt 0 discriminator 4 view .LVU2634
	mov	r3, #57
	ldr	r2, [r5, #820]
	ldr	r1, [r5, #816]
	mov	r0, fp
	str	r6, [sp]
	bl	fb_ArrayBoundChk
.LVL681:
	.loc 4 57 2 is_stmt 1 discriminator 4 view .LVU2635
	.loc 4 57 4 is_stmt 0 discriminator 4 view .LVU2636
	cmp	r0, #0
	.loc 4 57 4 discriminator 4 view .LVU2637
	beq	.L471
	mov	pc, r0	@ indirect register jump
.LVL682:
.L470:
	.loc 4 56 2 is_stmt 1 discriminator 2 view .LVU2638
	.loc 4 56 15 is_stmt 0 discriminator 2 view .LVU2639
	ldr	r3, .L472+4
	movw	r1, #:lower16:.LC10
	movt	r1, #:upper16:.LC10
	ldr	r2, .L472+8
	mov	r0, #56
.LVL683:
	.loc 4 56 15 discriminator 2 view .LVU2640
	bl	fb_ErrorThrowAt
.LVL684:
	.loc 4 56 2 is_stmt 1 discriminator 2 view .LVU2641
	mov	pc, r0	@ indirect register jump
.LVL685:
.L471:
	.loc 4 57 19 discriminator 5 view .LVU2642
.LDL67:
	.loc 4 57 12 discriminator 5 view .LVU2643
	.loc 4 57 2 discriminator 5 view .LVU2644
	.loc 4 57 72 is_stmt 0 discriminator 5 view .LVU2645
	ldr	r3, [r5, #792]
	ldr	r2, [sp, #36]
	.loc 4 58 2 discriminator 5 view .LVU2646
	ldr	r0, [sp, #32]
.LVL686:
	.loc 4 57 72 discriminator 5 view .LVU2647
	str	r2, [r3, fp, lsl #2]
.LDL68:
	.loc 4 58 12 is_stmt 1 discriminator 5 view .LVU2648
	.loc 4 58 2 discriminator 5 view .LVU2649
	bl	fb_ErrorSetFuncName
.LVL687:
	.loc 4 58 2 discriminator 5 view .LVU2650
	ldr	r0, [sp, #28]
	.loc 4 58 1 is_stmt 0 discriminator 5 view .LVU2651
	add	sp, sp, #44
	.cfi_def_cfa_offset 36
	@ sp needed
	pop	{r4, r5, r6, r7, r8, r9, r10, fp, lr}
	.cfi_restore 14
	.cfi_restore 11
	.cfi_restore 10
	.cfi_restore 9
	.cfi_restore 8
	.cfi_restore 7
	.cfi_restore 6
	.cfi_restore 5
	.cfi_restore 4
	.cfi_def_cfa_offset 0
.LVL688:
	.loc 4 58 2 discriminator 5 view .LVU2652
	b	fb_ErrorSetModName
.LVL689:
.L473:
	.align	2
.L472:
	.word	.LANCHOR0+792
	.word	.L457
	.word	.L456
	.cfi_endproc
.LFE35:
	.size	NEWBUTTON, .-NEWBUTTON
	.section	.rodata.str1.4
	.align	2
.LC67:
	.ascii	"OS2.2/Cpcdos/FBGUI/GUI.BAS\000"
	.align	2
.LC68:
	.ascii	"CPCDOS_MOUSE\000"
	.align	2
.LC69:
	.ascii	"X: \000"
	.align	2
.LC70:
	.ascii	"Y: \000"
	.align	2
.LC71:
	.ascii	"Button: \000"
	.text
	.align	2
	.global	Cpcdos_Mouse
	.syntax unified
	.arm
	.fpu vfp
	.type	Cpcdos_Mouse, %function
Cpcdos_Mouse:
.LFB36:
	.file 10 "OS2.2/Cpcdos/FBGUI/GUI.BAS"
	.loc 10 38 1 is_stmt 1 view -0
	.cfi_startproc
	@ args = 0, pretend = 0, frame = 40
	@ frame_needed = 0, uses_anonymous_args = 0
	.loc 10 38 2 view .LVU2654
	.loc 10 38 2 view .LVU2655
	.loc 10 38 2 view .LVU2656
	.loc 10 38 2 view .LVU2657
	.loc 10 38 2 view .LVU2658
	.loc 10 38 2 view .LVU2659
	.loc 10 38 2 view .LVU2660
.LVL690:
	.loc 10 38 2 view .LVU2661
	.loc 10 38 1 is_stmt 0 view .LVU2662
	push	{r4, r5, r6, r7, r8, r9, r10, lr}
	.cfi_def_cfa_offset 32
	.cfi_offset 4, -32
	.cfi_offset 5, -28
	.cfi_offset 6, -24
	.cfi_offset 7, -20
	.cfi_offset 8, -16
	.cfi_offset 9, -12
	.cfi_offset 10, -8
	.cfi_offset 14, -4
	.loc 10 38 16 view .LVU2663
	movw	r0, #:lower16:.LC67
	movt	r0, #:upper16:.LC67
	.loc 10 38 1 view .LVU2664
	sub	sp, sp, #48
	.cfi_def_cfa_offset 80
.LBB7:
.LBB8:
	.loc 9 7 2 view .LVU2665
	movw	r5, #:lower16:.LANCHOR1
	movt	r5, #:upper16:.LANCHOR1
.LBE8:
.LBE7:
	.loc 10 38 16 view .LVU2666
	bl	fb_ErrorSetModName
.LVL691:
	mov	r8, r0
	.loc 10 38 16 view .LVU2667
	movw	r0, #:lower16:.LC68
	movt	r0, #:upper16:.LC68
.LVL692:
	.loc 10 38 2 is_stmt 1 view .LVU2668
	.loc 10 38 2 view .LVU2669
.LBB12:
.LBB9:
	.loc 9 7 2 is_stmt 0 view .LVU2670
	add	r7, sp, #36
.LBE9:
.LBE12:
	.loc 10 38 16 view .LVU2671
	bl	fb_ErrorSetFuncName
.LVL693:
	mov	r9, r0
.LBB13:
.LBB10:
	.loc 9 6 16 view .LVU2672
	movw	r0, #:lower16:.LC38
	movt	r0, #:upper16:.LC38
.LVL694:
	.loc 9 6 16 view .LVU2673
.LBE10:
.LBE13:
	.loc 10 38 2 is_stmt 1 view .LVU2674
.LDL69:
	.loc 10 38 12 view .LVU2675
	.loc 10 43 2 view .LVU2676
.LBB14:
.LBI7:
	.loc 9 6 6 view .LVU2677
.LDL70:
.LBB11:
	.loc 9 6 2 view .LVU2678
	.loc 9 6 2 view .LVU2679
	.loc 9 6 2 view .LVU2680
	.loc 9 6 2 view .LVU2681
	.loc 9 6 10 view .LVU2682
	.loc 9 6 2 view .LVU2683
	.loc 9 6 16 is_stmt 0 view .LVU2684
	bl	fb_ErrorSetModName
.LVL695:
	mov	r6, r0
	.loc 9 6 16 view .LVU2685
	movw	r0, #:lower16:.LC39
	movt	r0, #:upper16:.LC39
.LVL696:
	.loc 9 6 2 is_stmt 1 view .LVU2686
	.loc 9 6 2 view .LVU2687
	.loc 9 6 16 is_stmt 0 view .LVU2688
	bl	fb_ErrorSetFuncName
.LVL697:
	.loc 9 7 2 view .LVU2689
	add	r3, r5, #4
	add	r2, sp, #24
	add	r1, r5, #8
	.loc 9 6 16 view .LVU2690
	mov	r10, r0
.LVL698:
	.loc 9 6 2 is_stmt 1 view .LVU2691
	.loc 9 7 2 view .LVU2692
	.loc 9 7 2 is_stmt 0 view .LVU2693
	str	r7, [sp]
	add	r0, r5, #12
.LVL699:
	.loc 9 7 11 view .LVU2694
	mov	r4, #0
	str	r4, [sp, #36]
	.loc 9 7 2 is_stmt 1 view .LVU2695
	.loc 9 7 11 is_stmt 0 view .LVU2696
	str	r4, [sp, #24]
	.loc 9 7 2 is_stmt 1 view .LVU2697
	bl	fb_GetMouse
.LVL700:
.LDL71:
	.loc 9 8 10 view .LVU2698
	.loc 9 8 2 view .LVU2699
	mov	r0, r10
	bl	fb_ErrorSetFuncName
.LVL701:
	.loc 9 8 2 view .LVU2700
	mov	r0, r6
	bl	fb_ErrorSetModName
.LVL702:
	.loc 9 8 2 is_stmt 0 view .LVU2701
.LBE11:
.LBE14:
	.loc 10 44 2 is_stmt 1 view .LVU2702
	.loc 10 44 19 is_stmt 0 view .LVU2703
	ldr	r0, [r5, #12]
	bl	fb_IntToStr
.LVL703:
	.loc 10 44 19 view .LVU2704
	mvn	r6, #0
.LVL704:
	.loc 10 44 19 view .LVU2705
	mov	r3, r0
.LVL705:
	.loc 10 44 2 is_stmt 1 view .LVU2706
	.loc 10 44 19 is_stmt 0 view .LVU2707
	mov	r2, #4
	add	r0, sp, #12
	str	r6, [sp]
	movw	r1, #:lower16:.LC69
	movt	r1, #:upper16:.LC69
	.loc 10 44 2 view .LVU2708
	str	r4, [sp, #12]
	str	r4, [sp, #16]
	str	r4, [sp, #20]
	.loc 10 44 2 is_stmt 1 view .LVU2709
	.loc 10 44 19 is_stmt 0 view .LVU2710
	bl	fb_StrConcat
.LVL706:
	.loc 10 44 2 view .LVU2711
	mov	r2, #1
	.loc 10 44 19 view .LVU2712
	mov	r1, r0
.LVL707:
	.loc 10 44 2 is_stmt 1 view .LVU2713
	mov	r0, r4
.LVL708:
	.loc 10 44 2 is_stmt 0 view .LVU2714
	bl	fb_PrintString
.LVL709:
	.loc 10 45 2 is_stmt 1 view .LVU2715
	.loc 10 45 19 is_stmt 0 view .LVU2716
	ldr	r0, [r5, #8]
	bl	fb_IntToStr
.LVL710:
	.loc 10 45 20 view .LVU2717
	mov	r2, #4
	.loc 10 45 19 view .LVU2718
	mov	r3, r0
.LVL711:
	.loc 10 45 2 is_stmt 1 view .LVU2719
	.loc 10 45 20 is_stmt 0 view .LVU2720
	str	r6, [sp]
	add	r0, sp, #24
	movw	r1, #:lower16:.LC70
	movt	r1, #:upper16:.LC70
	.loc 10 45 2 view .LVU2721
	str	r4, [sp, #24]
	str	r4, [sp, #28]
	str	r4, [sp, #32]
	.loc 10 45 2 is_stmt 1 view .LVU2722
	.loc 10 45 20 is_stmt 0 view .LVU2723
	bl	fb_StrConcat
.LVL712:
	.loc 10 45 2 view .LVU2724
	mov	r2, #1
	.loc 10 45 20 view .LVU2725
	mov	r1, r0
.LVL713:
	.loc 10 45 2 is_stmt 1 view .LVU2726
	mov	r0, r4
.LVL714:
	.loc 10 45 2 is_stmt 0 view .LVU2727
	bl	fb_PrintString
.LVL715:
	.loc 10 46 2 is_stmt 1 view .LVU2728
	.loc 10 46 20 is_stmt 0 view .LVU2729
	ldr	r0, [r5, #4]
	bl	fb_IntToStr
.LVL716:
	.loc 10 46 20 view .LVU2730
	mov	r2, #9
	.loc 10 46 20 view .LVU2731
	mov	r3, r0
.LVL717:
	.loc 10 46 2 is_stmt 1 view .LVU2732
	.loc 10 46 20 is_stmt 0 view .LVU2733
	str	r6, [sp]
	mov	r0, r7
	movw	r1, #:lower16:.LC71
	movt	r1, #:upper16:.LC71
	.loc 10 46 2 view .LVU2734
	str	r4, [sp, #36]
	str	r4, [sp, #40]
	str	r4, [sp, #44]
	.loc 10 46 2 is_stmt 1 view .LVU2735
	.loc 10 46 20 is_stmt 0 view .LVU2736
	bl	fb_StrConcat
.LVL718:
	.loc 10 46 2 view .LVU2737
	mov	r2, #1
	.loc 10 46 20 view .LVU2738
	mov	r1, r0
.LVL719:
	.loc 10 46 2 is_stmt 1 view .LVU2739
	mov	r0, r4
.LVL720:
	.loc 10 46 2 is_stmt 0 view .LVU2740
	bl	fb_PrintString
.LVL721:
	.loc 10 48 2 is_stmt 1 view .LVU2741
	mov	r1, r6
	mov	r0, r6
	bl	fb_GfxFlip
.LVL722:
.LDL72:
	.loc 10 50 12 view .LVU2742
	.loc 10 50 2 view .LVU2743
	mov	r0, r9
	bl	fb_ErrorSetFuncName
.LVL723:
	.loc 10 50 2 view .LVU2744
	mov	r0, r8
	bl	fb_ErrorSetModName
.LVL724:
	.loc 10 50 2 view .LVU2745
	.loc 10 50 1 is_stmt 0 view .LVU2746
	mov	r0, r4
	add	sp, sp, #48
	.cfi_def_cfa_offset 32
	@ sp needed
	pop	{r4, r5, r6, r7, r8, r9, r10, pc}
	.loc 10 50 1 view .LVU2747
	.cfi_endproc
.LFE36:
	.size	Cpcdos_Mouse, .-Cpcdos_Mouse
	.section	.rodata.str1.4
	.align	2
.LC72:
	.ascii	"READ_CPC_VAR\000"
	.text
	.align	2
	.global	READ_CPC_VAR
	.syntax unified
	.arm
	.fpu vfp
	.type	READ_CPC_VAR, %function
READ_CPC_VAR:
.LFB37:
	.loc 10 55 1 is_stmt 1 view -0
	.cfi_startproc
	@ args = 0, pretend = 0, frame = 16
	@ frame_needed = 0, uses_anonymous_args = 0
	.loc 10 55 2 view .LVU2749
	.loc 10 55 2 view .LVU2750
	.loc 10 55 2 view .LVU2751
	.loc 10 55 2 view .LVU2752
	.loc 10 55 1 is_stmt 0 view .LVU2753
	push	{r4, lr}
	.cfi_def_cfa_offset 8
	.cfi_offset 4, -8
	.cfi_offset 14, -4
	.loc 10 55 16 view .LVU2754
	movw	r0, #:lower16:.LC67
	movt	r0, #:upper16:.LC67
	.loc 10 55 1 view .LVU2755
	sub	sp, sp, #16
	.cfi_def_cfa_offset 24
	.loc 10 55 2 view .LVU2756
	mov	r3, #0
	str	r3, [sp, #4]
	str	r3, [sp, #8]
	str	r3, [sp, #12]
	.loc 10 55 2 is_stmt 1 view .LVU2757
	.loc 10 55 16 is_stmt 0 view .LVU2758
	bl	fb_ErrorSetModName
.LVL725:
	mov	r4, r0
	.loc 10 55 16 view .LVU2759
	movw	r0, #:lower16:.LC72
	movt	r0, #:upper16:.LC72
.LVL726:
	.loc 10 55 2 is_stmt 1 view .LVU2760
	.loc 10 55 2 view .LVU2761
	.loc 10 55 16 is_stmt 0 view .LVU2762
	bl	fb_ErrorSetFuncName
.LVL727:
	.loc 10 55 2 is_stmt 1 view .LVU2763
.LDL73:
.LDL74:
	.loc 10 55 12 view .LVU2764
	.loc 10 57 12 view .LVU2765
	.loc 10 57 2 view .LVU2766
	bl	fb_ErrorSetFuncName
.LVL728:
	.loc 10 57 2 view .LVU2767
	mov	r0, r4
	bl	fb_ErrorSetModName
.LVL729:
	.loc 10 57 2 view .LVU2768
	.loc 10 57 19 is_stmt 0 view .LVU2769
	add	r0, sp, #4
	bl	fb_StrAllocTempResult
.LVL730:
	.loc 10 57 2 is_stmt 1 view .LVU2770
	.loc 10 57 1 is_stmt 0 view .LVU2771
	add	sp, sp, #16
	.cfi_def_cfa_offset 8
	@ sp needed
	pop	{r4, pc}
	.loc 10 57 1 view .LVU2772
	.cfi_endproc
.LFE37:
	.size	READ_CPC_VAR, .-READ_CPC_VAR
	.section	.rodata.str1.4
	.align	2
.LC73:
	.ascii	"BACKGROUND\000"
	.text
	.align	2
	.global	BACKGROUND
	.syntax unified
	.arm
	.fpu vfp
	.type	BACKGROUND, %function
BACKGROUND:
.LVL731:
.LFB38:
	.loc 10 62 1 is_stmt 1 view -0
	.cfi_startproc
	@ args = 0, pretend = 0, frame = 16
	@ frame_needed = 0, uses_anonymous_args = 0
.L479:
	.loc 10 62 2 view .LVU2774
	.loc 10 62 2 view .LVU2775
	.loc 10 62 2 view .LVU2776
	.loc 10 62 12 view .LVU2777
	.loc 10 62 2 view .LVU2778
	.loc 10 62 1 is_stmt 0 view .LVU2779
	push	{r4, r5, r6, r7, lr}
	.cfi_def_cfa_offset 20
	.cfi_offset 4, -20
	.cfi_offset 5, -16
	.cfi_offset 6, -12
	.cfi_offset 7, -8
	.cfi_offset 14, -4
	mov	r5, r0
	.loc 10 62 16 view .LVU2780
	movw	r0, #:lower16:.LC67
.LVL732:
	.loc 10 62 16 view .LVU2781
	movt	r0, #:upper16:.LC67
	.loc 10 62 1 view .LVU2782
	sub	sp, sp, #52
	.cfi_def_cfa_offset 72
	.loc 10 62 16 view .LVU2783
	bl	fb_ErrorSetModName
.LVL733:
	mov	r6, r0
	.loc 10 62 16 view .LVU2784
	movw	r0, #:lower16:.LC73
	movt	r0, #:upper16:.LC73
.LVL734:
	.loc 10 62 2 is_stmt 1 view .LVU2785
	.loc 10 62 2 view .LVU2786
	.loc 10 62 16 is_stmt 0 view .LVU2787
	bl	fb_ErrorSetFuncName
.LVL735:
	.loc 10 66 2 view .LVU2788
	mov	r1, #1
	.loc 10 68 15 view .LVU2789
	mov	r4, #0
	.loc 10 62 16 view .LVU2790
	mov	r7, r0
	.loc 10 66 2 view .LVU2791
	mov	r0, r1
.LVL736:
	.loc 10 62 2 is_stmt 1 view .LVU2792
	.loc 10 64 2 view .LVU2793
	.loc 10 64 2 view .LVU2794
	.loc 10 66 2 view .LVU2795
	bl	fb_GfxPageSet
.LVL737:
	.loc 10 68 2 view .LVU2796
	.loc 10 68 15 is_stmt 0 view .LVU2797
	mov	r3, r4
	mov	r2, r4
	mov	r1, #600
	str	r4, [sp]
	mov	r0, #800
	bl	fb_GfxImageCreate
.LVL738:
	.loc 10 68 2 is_stmt 1 view .LVU2798
	.loc 10 70 2 view .LVU2799
	.loc 10 70 19 is_stmt 0 view .LVU2800
	mov	r2, r5
	mvn	r3, #0
	str	r4, [sp]
	mov	r1, r3
	add	r0, sp, #36
	.loc 10 70 2 view .LVU2801
	str	r4, [sp, #36]
	movw	r5, #:lower16:fb_hPutPSet
.LVL739:
	.loc 10 70 2 view .LVU2802
	movt	r5, #:upper16:fb_hPutPSet
	str	r4, [sp, #40]
	str	r4, [sp, #44]
	.loc 10 70 2 is_stmt 1 view .LVU2803
	.loc 10 70 19 is_stmt 0 view .LVU2804
	bl	fb_StrAssign
.LVL740:
	.loc 10 70 2 is_stmt 1 view .LVU2805
	.loc 10 70 15 is_stmt 0 view .LVU2806
	ldr	r3, .L487+4
	mov	r2, #5
	str	r3, [sp]
	mov	r1, #32
	sub	r3, r3, #4
	add	r0, sp, #36
	bl	CHARGER_PNG
.LVL741:
	mov	r4, r0
	.loc 10 70 2 view .LVU2807
	add	r0, sp, #36
.LVL742:
	.loc 10 70 2 is_stmt 1 view .LVU2808
	.loc 10 70 2 view .LVU2809
	bl	fb_StrDelete
.LVL743:
.L480:
	.loc 10 72 12 view .LVU2810
	.loc 10 72 2 view .LVU2811
	.loc 10 72 16 is_stmt 0 view .LVU2812
	vldr.32	s1, .L487
	mov	r3, #0
	movt	r3, 65535
	mov	r0, #0
	mov	r2, #1
	mvn	ip, #0
	str	r2, [sp, #12]
	vmov.f32	s0, s1
	mov	r2, r3
	mov	r1, r4
	str	r5, [sp, #16]
	str	r3, [sp, #4]
	str	r3, [sp]
	str	r0, [sp, #28]
	str	r0, [sp, #24]
	str	r0, [sp, #8]
	str	ip, [sp, #20]
	bl	fb_GfxPut
.LVL744:
	.loc 10 72 2 is_stmt 1 view .LVU2813
	.loc 10 72 4 is_stmt 0 view .LVU2814
	cmp	r0, #0
	bne	.L486
.LVL745:
.L481:
	.loc 10 72 12 is_stmt 1 discriminator 3 view .LVU2815
	.loc 10 74 2 discriminator 3 view .LVU2816
	mov	r1, #0
	mov	r0, r1
	bl	fb_GfxPageSet
.LVL746:
	.loc 10 76 2 discriminator 3 view .LVU2817
	mov	r1, #0
	mov	r0, #1
	bl	fb_PageCopy
.LVL747:
.LDL75:
	.loc 10 77 12 discriminator 3 view .LVU2818
	.loc 10 77 2 discriminator 3 view .LVU2819
	mov	r0, r7
	bl	fb_ErrorSetFuncName
.LVL748:
	.loc 10 77 2 discriminator 3 view .LVU2820
	mov	r0, r6
	bl	fb_ErrorSetModName
.LVL749:
	.loc 10 77 1 is_stmt 0 discriminator 3 view .LVU2821
	add	sp, sp, #52
	.cfi_remember_state
	.cfi_def_cfa_offset 20
	@ sp needed
	pop	{r4, r5, r6, r7, pc}
.LVL750:
.L486:
	.cfi_restore_state
	.loc 10 72 2 is_stmt 1 discriminator 2 view .LVU2822
	.loc 10 72 16 is_stmt 0 discriminator 2 view .LVU2823
	ldr	r3, .L487+8
	movw	r1, #:lower16:.LC67
	movt	r1, #:upper16:.LC67
	ldr	r2, .L487+12
	mov	r0, #72
.LVL751:
	.loc 10 72 16 discriminator 2 view .LVU2824
	bl	fb_ErrorThrowAt
.LVL752:
	.loc 10 72 2 is_stmt 1 discriminator 2 view .LVU2825
	mov	pc, r0	@ indirect register jump
.L488:
	.align	2
.L487:
	.word	0
	.word	.LANCHOR1+48
	.word	.L481
	.word	.L480
	.cfi_endproc
.LFE38:
	.size	BACKGROUND, .-BACKGROUND
	.section	.rodata.str1.4
	.align	2
.LC76:
	.ascii	"TEST_DESKTOP\000"
	.text
	.align	2
	.global	TEST_DESKTOP
	.syntax unified
	.arm
	.fpu vfp
	.type	TEST_DESKTOP, %function
TEST_DESKTOP:
.LFB39:
	.loc 10 85 1 view -0
	.cfi_startproc
	@ args = 0, pretend = 0, frame = 24
	@ frame_needed = 0, uses_anonymous_args = 0
.L490:
	.loc 10 85 2 view .LVU2827
	.loc 10 85 2 view .LVU2828
	.loc 10 85 2 view .LVU2829
	.loc 10 85 2 view .LVU2830
	.loc 10 85 2 view .LVU2831
	.loc 10 85 12 view .LVU2832
	.loc 10 85 2 view .LVU2833
	.loc 10 85 1 is_stmt 0 view .LVU2834
	push	{r4, r5, r6, lr}
	.cfi_def_cfa_offset 16
	.cfi_offset 4, -16
	.cfi_offset 5, -12
	.cfi_offset 6, -8
	.cfi_offset 14, -4
	.loc 10 85 16 view .LVU2835
	movw	r0, #:lower16:.LC67
	movt	r0, #:upper16:.LC67
	.loc 10 85 1 view .LVU2836
	sub	sp, sp, #32
	.cfi_def_cfa_offset 48
	.loc 10 91 15 view .LVU2837
	mov	r4, #0
	.loc 10 85 16 view .LVU2838
	bl	fb_ErrorSetModName
.LVL753:
	mov	r5, r0
	.loc 10 85 16 view .LVU2839
	movw	r0, #:lower16:.LC76
	movt	r0, #:upper16:.LC76
.LVL754:
	.loc 10 85 2 is_stmt 1 view .LVU2840
	.loc 10 85 2 view .LVU2841
	.loc 10 85 16 is_stmt 0 view .LVU2842
	bl	fb_ErrorSetFuncName
.LVL755:
	.loc 10 90 2 view .LVU2843
	mov	r1, #1
	.loc 10 85 16 view .LVU2844
	mov	r6, r0
.LVL756:
	.loc 10 85 2 is_stmt 1 view .LVU2845
	.loc 10 86 2 view .LVU2846
	.loc 10 86 2 view .LVU2847
	.loc 10 87 2 view .LVU2848
	.loc 10 87 2 view .LVU2849
	.loc 10 88 2 view .LVU2850
	.loc 10 88 2 view .LVU2851
	.loc 10 90 2 view .LVU2852
	mov	r0, #3
.LVL757:
	.loc 10 90 2 is_stmt 0 view .LVU2853
	bl	fb_GfxPageSet
.LVL758:
	.loc 10 91 2 is_stmt 1 view .LVU2854
	.loc 10 91 15 is_stmt 0 view .LVU2855
	mov	r1, #64
	mov	r3, r4
	mov	r2, r4
	mov	r0, r1
	str	r4, [sp]
	bl	fb_GfxImageCreate
.LVL759:
	.loc 10 91 2 is_stmt 1 view .LVU2856
	.loc 10 93 2 view .LVU2857
	.loc 10 93 12 is_stmt 0 view .LVU2858
	mov	r3, #128
	.loc 10 93 20 view .LVU2859
	add	r0, sp, #20
	.loc 10 93 12 view .LVU2860
	str	r3, [sp, #16]
	.loc 10 93 2 is_stmt 1 view .LVU2861
	.loc 10 93 12 is_stmt 0 view .LVU2862
	str	r3, [sp, #12]
	.loc 10 93 2 is_stmt 1 view .LVU2863
	.loc 10 93 20 is_stmt 0 view .LVU2864
	mvn	r1, #0
	mov	r3, #8
	str	r4, [sp]
	movw	r2, #:lower16:.LC4
	movt	r2, #:upper16:.LC4
	.loc 10 93 2 view .LVU2865
	str	r4, [sp, #20]
	str	r4, [sp, #24]
	str	r4, [sp, #28]
	.loc 10 93 2 is_stmt 1 view .LVU2866
	.loc 10 93 20 is_stmt 0 view .LVU2867
	bl	fb_StrAssign
.LVL760:
	.loc 10 93 2 is_stmt 1 view .LVU2868
	.loc 10 93 16 is_stmt 0 view .LVU2869
	mov	r2, #5
	add	r3, sp, #16
	mov	r1, #32
	str	r3, [sp]
	add	r0, sp, #20
	add	r3, sp, #12
	bl	CHARGER_PNG
.LVL761:
	.loc 10 93 2 is_stmt 1 view .LVU2870
	.loc 10 93 2 view .LVU2871
	add	r0, sp, #20
	bl	fb_StrDelete
.LVL762:
	.loc 10 96 2 view .LVU2872
	mov	r1, r4
	mov	r0, r4
	bl	fb_GfxPageSet
.LVL763:
	.loc 10 97 2 view .LVU2873
	mov	r1, #1
	mov	r0, #3
	bl	fb_PageCopy
.LVL764:
.LDL76:
	.loc 10 99 12 view .LVU2874
	.loc 10 99 2 view .LVU2875
	mov	r0, r6
	bl	fb_ErrorSetFuncName
.LVL765:
	.loc 10 99 2 view .LVU2876
	mov	r0, r5
	bl	fb_ErrorSetModName
.LVL766:
	.loc 10 99 1 is_stmt 0 view .LVU2877
	add	sp, sp, #32
	.cfi_def_cfa_offset 16
	@ sp needed
	pop	{r4, r5, r6, pc}
	.loc 10 99 1 view .LVU2878
	.cfi_endproc
.LFE39:
	.size	TEST_DESKTOP, .-TEST_DESKTOP
	.section	.rodata.str1.4
	.align	2
.LC77:
	.ascii	"ELIEDRAW_GUI\000"
	.align	2
.LC78:
	.ascii	"CC+ Console\000"
	.align	2
.LC79:
	.ascii	"Win1\000"
	.align	2
.LC80:
	.ascii	"icon\000"
	.align	2
.LC81:
	.ascii	"exe/ window.cpc\000"
	.align	2
.LC82:
	.ascii	"bdddd\000"
	.text
	.align	2
	.global	eliedraw_gui
	.syntax unified
	.arm
	.fpu vfp
	.type	eliedraw_gui, %function
eliedraw_gui:
.LVL767:
.LFB40:
	.loc 10 101 1 is_stmt 1 view -0
	.cfi_startproc
	@ args = 0, pretend = 0, frame = 48
	@ frame_needed = 0, uses_anonymous_args = 0
	.loc 10 101 2 view .LVU2880
	.loc 10 101 2 view .LVU2881
	.loc 10 101 2 view .LVU2882
	.loc 10 101 2 view .LVU2883
	.loc 10 101 2 view .LVU2884
	.loc 10 101 2 view .LVU2885
	.loc 10 101 2 view .LVU2886
	.loc 10 101 2 view .LVU2887
	.loc 10 101 2 view .LVU2888
	.loc 10 101 1 is_stmt 0 view .LVU2889
	push	{r4, r5, r6, r7, lr}
	.cfi_def_cfa_offset 20
	.cfi_offset 4, -20
	.cfi_offset 5, -16
	.cfi_offset 6, -12
	.cfi_offset 7, -8
	.cfi_offset 14, -4
	.loc 10 101 16 view .LVU2890
	movw	r0, #:lower16:.LC67
.LVL768:
	.loc 10 101 16 view .LVU2891
	movt	r0, #:upper16:.LC67
	.loc 10 101 1 view .LVU2892
	sub	sp, sp, #76
	.cfi_def_cfa_offset 96
	.loc 10 101 1 view .LVU2893
	mov	r4, r2
	.loc 10 101 16 view .LVU2894
	bl	fb_ErrorSetModName
.LVL769:
	.loc 10 101 16 view .LVU2895
	mov	r6, r0
	.loc 10 101 16 view .LVU2896
	movw	r0, #:lower16:.LC77
	movt	r0, #:upper16:.LC77
	bl	fb_ErrorSetFuncName
.LVL770:
	mov	r7, r0
	.loc 10 103 2 view .LVU2897
	mov	r0, r4
	.loc 10 106 2 view .LVU2898
	add	r5, sp, #36
.LVL771:
	.loc 10 101 2 is_stmt 1 view .LVU2899
	.loc 10 101 2 view .LVU2900
	.loc 10 101 2 view .LVU2901
.LDL77:
	.loc 10 101 12 view .LVU2902
	.loc 10 103 2 view .LVU2903
	bl	BACKGROUND
.LVL772:
	.loc 10 104 2 view .LVU2904
	mov	r1, #2
	mov	r0, #0
	.loc 10 106 2 is_stmt 0 view .LVU2905
	mov	r4, #0
.LVL773:
	.loc 10 104 2 view .LVU2906
	bl	fb_GfxPageSet
.LVL774:
	.loc 10 106 2 is_stmt 1 view .LVU2907
	.loc 10 106 19 is_stmt 0 view .LVU2908
	mov	r3, #12
	mov	r0, r5
	str	r4, [sp]
	mvn	r1, #0
	movw	r2, #:lower16:.LC78
	movt	r2, #:upper16:.LC78
	.loc 10 106 2 view .LVU2909
	str	r4, [sp, #36]
	str	r4, [sp, #40]
	str	r4, [sp, #44]
	.loc 10 106 2 is_stmt 1 view .LVU2910
	.loc 10 106 19 is_stmt 0 view .LVU2911
	bl	fb_StrAssign
.LVL775:
	.loc 10 106 2 is_stmt 1 view .LVU2912
	.loc 10 106 19 is_stmt 0 view .LVU2913
	mov	r3, #5
	add	r0, sp, #24
	str	r4, [sp]
	mvn	r1, #0
	movw	r2, #:lower16:.LC79
	movt	r2, #:upper16:.LC79
	.loc 10 106 2 view .LVU2914
	str	r4, [sp, #24]
	str	r4, [sp, #28]
	str	r4, [sp, #32]
	.loc 10 106 2 is_stmt 1 view .LVU2915
	.loc 10 106 19 is_stmt 0 view .LVU2916
	bl	fb_StrAssign
.LVL776:
	.loc 10 106 2 is_stmt 1 view .LVU2917
	mov	r2, #10
	mov	r3, #400
	mov	r1, r2
	mov	r0, #247
	str	r5, [sp, #4]
	movw	ip, #40606
	movt	ip, 158
	str	r0, [sp, #20]
	str	ip, [sp, #8]
	mov	r0, #232
	str	r0, [sp, #16]
	mov	r0, #39
	str	r0, [sp, #12]
	mov	r0, #340
	str	r0, [sp]
	add	r0, sp, #24
	bl	NEWWINDOW
.LVL777:
	.loc 10 106 2 view .LVU2918
	mov	r0, r5
	bl	fb_StrDelete
.LVL778:
	.loc 10 106 2 view .LVU2919
	add	r0, sp, #24
	bl	fb_StrDelete
.LVL779:
	.loc 10 107 2 view .LVU2920
	.loc 10 107 20 is_stmt 0 view .LVU2921
	mov	r3, #5
	add	r0, sp, #48
	str	r4, [sp]
	mvn	r1, #0
	movw	r2, #:lower16:.LC80
	movt	r2, #:upper16:.LC80
	.loc 10 107 2 view .LVU2922
	str	r4, [sp, #48]
	str	r4, [sp, #52]
	str	r4, [sp, #56]
	.loc 10 107 2 is_stmt 1 view .LVU2923
	.loc 10 107 20 is_stmt 0 view .LVU2924
	bl	fb_StrAssign
.LVL780:
	.loc 10 107 2 is_stmt 1 view .LVU2925
	mov	r3, #64
	str	r3, [sp, #4]
	str	r3, [sp]
	mov	r3, #10
	mov	r2, r3
	mov	r1, #1
	add	r0, sp, #48
	bl	NEWPICTUREBOX
.LVL781:
	.loc 10 107 2 view .LVU2926
	add	r0, sp, #48
	bl	fb_StrDelete
.LVL782:
	.loc 10 109 2 view .LVU2927
	movw	r0, #:lower16:.LC81
	movt	r0, #:upper16:.LC81
	bl	_ZN7CPC_CCP14cpcdos_commandEPc
.LVL783:
	.loc 10 113 2 view .LVU2928
	.loc 10 113 20 is_stmt 0 view .LVU2929
	mov	r3, #6
	add	r0, sp, #60
	str	r4, [sp]
	mvn	r1, #0
	movw	r2, #:lower16:.LC82
	movt	r2, #:upper16:.LC82
	.loc 10 113 2 view .LVU2930
	str	r4, [sp, #60]
	str	r4, [sp, #64]
	str	r4, [sp, #68]
	.loc 10 113 2 is_stmt 1 view .LVU2931
	.loc 10 113 20 is_stmt 0 view .LVU2932
	bl	fb_StrAssign
.LVL784:
	.loc 10 113 2 is_stmt 1 view .LVU2933
	mov	r2, #100
	mov	r1, #1
	add	r0, sp, #60
	mov	r3, #50
	strd	r2, [sp]
	mov	r3, #90
	bl	NEWCONSOLE
.LVL785:
	.loc 10 113 2 view .LVU2934
	add	r0, sp, #60
	bl	fb_StrDelete
.LVL786:
.LDL78:
	.loc 10 115 12 view .LVU2935
	.loc 10 115 2 view .LVU2936
	mov	r0, r7
	bl	fb_ErrorSetFuncName
.LVL787:
	.loc 10 115 2 view .LVU2937
	mov	r0, r6
	bl	fb_ErrorSetModName
.LVL788:
	.loc 10 115 2 view .LVU2938
	.loc 10 115 1 is_stmt 0 view .LVU2939
	mov	r0, r4
	add	sp, sp, #76
	.cfi_def_cfa_offset 20
	@ sp needed
	pop	{r4, r5, r6, r7, pc}
	.loc 10 115 1 view .LVU2940
	.cfi_endproc
.LFE40:
	.size	eliedraw_gui, .-eliedraw_gui
	.section	.rodata.str1.4
	.align	2
.LC83:
	.ascii	"CREATE_WINDOW\000"
	.text
	.align	2
	.global	Create_Window
	.syntax unified
	.arm
	.fpu vfp
	.type	Create_Window, %function
Create_Window:
.LVL789:
.LFB41:
	.loc 10 117 1 is_stmt 1 view -0
	.cfi_startproc
	@ args = 28, pretend = 0, frame = 8
	@ frame_needed = 0, uses_anonymous_args = 0
	.loc 10 117 2 view .LVU2942
	.loc 10 117 2 view .LVU2943
	.loc 10 117 2 view .LVU2944
	.loc 10 117 2 view .LVU2945
	.loc 10 117 2 view .LVU2946
	.loc 10 117 1 is_stmt 0 view .LVU2947
	push	{r4, r5, r6, r7, lr}
	.cfi_def_cfa_offset 20
	.cfi_offset 4, -20
	.cfi_offset 5, -16
	.cfi_offset 6, -12
	.cfi_offset 7, -8
	.cfi_offset 14, -4
	mov	r7, r0
	.loc 10 117 16 view .LVU2948
	movw	r0, #:lower16:.LC67
.LVL790:
	.loc 10 117 16 view .LVU2949
	movt	r0, #:upper16:.LC67
	.loc 10 117 1 view .LVU2950
	sub	sp, sp, #36
	.cfi_def_cfa_offset 56
	.loc 10 117 1 view .LVU2951
	mov	r6, r1
	ldr	r5, [sp, #72]
	str	r3, [sp, #28]
	.loc 10 117 16 view .LVU2952
	bl	fb_ErrorSetModName
.LVL791:
	.loc 10 117 16 view .LVU2953
	mov	r4, r0
.LVL792:
	.loc 10 117 2 is_stmt 1 view .LVU2954
	.loc 10 117 2 view .LVU2955
	.loc 10 117 16 is_stmt 0 view .LVU2956
	movw	r0, #:lower16:.LC83
.LVL793:
	.loc 10 117 16 view .LVU2957
	movt	r0, #:upper16:.LC83
	bl	fb_ErrorSetFuncName
.LVL794:
	.loc 10 123 2 view .LVU2958
	ldr	r3, [sp, #80]
	ldr	r2, [sp, #56]
	movw	ip, #40606
	movt	ip, 158
	str	r3, [sp, #20]
	ldr	r3, [sp, #76]
	ldr	r1, [sp, #60]
	str	ip, [sp, #8]
	str	r3, [sp, #16]
	str	r5, [sp, #12]
	.loc 10 117 16 view .LVU2959
	mov	r5, r0
.LVL795:
	.loc 10 117 2 is_stmt 1 view .LVU2960
.LDL79:
	.loc 10 117 12 view .LVU2961
	.loc 10 123 2 view .LVU2962
	ldr	r3, [sp, #28]
	mov	r0, r6
.LVL796:
	.loc 10 123 2 is_stmt 0 view .LVU2963
	str	r2, [sp]
	str	r7, [sp, #4]
	ldr	r2, [sp, #64]
	bl	NEWWINDOW
.LVL797:
.LDL80:
	.loc 10 124 12 is_stmt 1 view .LVU2964
	.loc 10 124 2 view .LVU2965
	mov	r0, r5
	bl	fb_ErrorSetFuncName
.LVL798:
	.loc 10 124 2 view .LVU2966
	mov	r0, r4
	bl	fb_ErrorSetModName
.LVL799:
	.loc 10 124 2 view .LVU2967
	.loc 10 124 1 is_stmt 0 view .LVU2968
	mov	r0, #0
	add	sp, sp, #36
	.cfi_def_cfa_offset 20
	@ sp needed
	pop	{r4, r5, r6, r7, pc}
	.loc 10 124 1 view .LVU2969
	.cfi_endproc
.LFE41:
	.size	Create_Window, .-Create_Window
	.section	.rodata.str1.4
	.align	2
.LC84:
	.ascii	"REPAINT\000"
	.text
	.align	2
	.global	REPAINT
	.syntax unified
	.arm
	.fpu vfp
	.type	REPAINT, %function
REPAINT:
.LFB45:
	.loc 10 149 1 is_stmt 1 view -0
	.cfi_startproc
	@ args = 0, pretend = 0, frame = 24
	@ frame_needed = 0, uses_anonymous_args = 0
.L497:
	.loc 10 149 2 view .LVU2971
	.loc 10 149 2 view .LVU2972
	.loc 10 149 12 view .LVU2973
	.loc 10 149 2 view .LVU2974
	.loc 10 149 1 is_stmt 0 view .LVU2975
	push	{r4, r5, r6, r7, r8, r9, r10, fp, lr}
	.cfi_def_cfa_offset 36
	.cfi_offset 4, -36
	.cfi_offset 5, -32
	.cfi_offset 6, -28
	.cfi_offset 7, -24
	.cfi_offset 8, -20
	.cfi_offset 9, -16
	.cfi_offset 10, -12
	.cfi_offset 11, -8
	.cfi_offset 14, -4
	.loc 10 149 16 view .LVU2976
	movw	r0, #:lower16:.LC67
	movt	r0, #:upper16:.LC67
	.loc 10 149 1 view .LVU2977
	sub	sp, sp, #36
	.cfi_def_cfa_offset 72
	.loc 10 149 16 view .LVU2978
	bl	fb_ErrorSetModName
.LVL800:
	mov	r3, r0
	.loc 10 149 16 view .LVU2979
	movw	r0, #:lower16:.LC84
	movt	r0, #:upper16:.LC84
	.loc 10 149 16 view .LVU2980
	str	r3, [sp, #24]
.LVL801:
	.loc 10 149 2 is_stmt 1 view .LVU2981
	.loc 10 149 2 view .LVU2982
	.loc 10 149 16 is_stmt 0 view .LVU2983
	bl	fb_ErrorSetFuncName
.LVL802:
	.loc 10 149 16 view .LVU2984
	mov	r3, r0
	.loc 10 150 2 view .LVU2985
	mov	r0, #0
	movt	r0, 65535
	.loc 10 149 16 view .LVU2986
	str	r3, [sp, #28]
.LVL803:
	.loc 10 149 2 is_stmt 1 view .LVU2987
	.loc 10 150 2 view .LVU2988
	bl	fb_Cls
.LVL804:
	.loc 10 154 2 view .LVU2989
	mov	r1, #0
	mov	r0, #1
	bl	fb_PageCopy
.LVL805:
.LBB15:
	.loc 10 156 3 view .LVU2990
	.loc 10 156 3 view .LVU2991
	.loc 10 156 3 view .LVU2992
	.loc 10 156 3 view .LVU2993
	.loc 10 156 16 is_stmt 0 view .LVU2994
	ldr	r0, .L852
	mov	r1, #1
	bl	fb_ArrayUBound
.LVL806:
	.loc 10 156 3 is_stmt 1 view .LVU2995
	.loc 10 156 3 view .LVU2996
	.loc 10 285 13 view .LVU2997
	.loc 10 285 3 view .LVU2998
	.loc 10 285 5 is_stmt 0 view .LVU2999
	subs	r3, r0, #0
	str	r3, [sp, #16]
	ble	.L499
	movw	r4, #:lower16:.LANCHOR0
	movt	r4, #:upper16:.LANCHOR0
	movw	r6, #:lower16:.LC67
	movt	r6, #:upper16:.LC67
	.loc 10 156 7 view .LVU3000
	mov	r9, #1
.LVL807:
.L498:
	.loc 10 285 26 is_stmt 1 discriminator 2 view .LVU3001
.LDL81:
	.loc 10 156 13 discriminator 2 view .LVU3002
.LBB16:
	.loc 10 156 4 discriminator 2 view .LVU3003
	.loc 10 156 4 discriminator 2 view .LVU3004
	.loc 10 156 4 discriminator 2 view .LVU3005
	.loc 10 156 4 discriminator 2 view .LVU3006
	.loc 10 156 4 discriminator 2 view .LVU3007
	.loc 10 157 4 discriminator 2 view .LVU3008
	.loc 10 157 4 discriminator 2 view .LVU3009
	.loc 10 157 17 is_stmt 0 discriminator 2 view .LVU3010
	ldr	r2, [r4, #52]
	mov	r3, #157
	ldr	r1, [r4, #48]
	mov	r0, r9
	str	r6, [sp]
	bl	fb_ArrayBoundChk
.LVL808:
	.loc 10 157 4 is_stmt 1 discriminator 2 view .LVU3011
	.loc 10 157 6 is_stmt 0 discriminator 2 view .LVU3012
	cmp	r0, #0
	.loc 10 157 6 discriminator 2 view .LVU3013
	bne	.L820
	.loc 10 157 20 is_stmt 1 discriminator 1 view .LVU3014
.LDL82:
	.loc 10 157 14 discriminator 1 view .LVU3015
	.loc 10 157 4 discriminator 1 view .LVU3016
	.loc 10 157 8 is_stmt 0 discriminator 1 view .LVU3017
	ldr	r3, [r4, #24]
	.loc 10 157 43 discriminator 1 view .LVU3018
	lsl	r2, r9, #2
	str	r2, [sp, #12]
	.loc 10 157 6 discriminator 1 view .LVU3019
	ldr	r3, [r3, r9, lsl #2]
	cmp	r3, #0
	bne	.L821
.LVL809:
.L500:
.LDL83:
.LDL84:
.LBB17:
	.loc 10 283 15 is_stmt 1 view .LVU3020
.LBE17:
.LBE16:
	.loc 10 285 13 view .LVU3021
	.loc 10 285 3 view .LVU3022
	.loc 10 285 5 is_stmt 0 view .LVU3023
	ldr	r3, [sp, #16]
	.loc 10 285 7 view .LVU3024
	add	r9, r9, #1
.LVL810:
.LDL85:
	.loc 10 285 13 is_stmt 1 view .LVU3025
	.loc 10 285 3 view .LVU3026
	.loc 10 285 5 is_stmt 0 view .LVU3027
	cmp	r3, r9
	bge	.L498
.LVL811:
.L499:
.LDL86:
	.loc 10 285 13 is_stmt 1 view .LVU3028
.LBE15:
	.loc 10 287 2 view .LVU3029
	mvn	r1, #0
	mov	r0, r1
	bl	fb_GfxFlip
.LVL812:
.L574:
	.loc 10 288 12 view .LVU3030
	.loc 10 288 2 view .LVU3031
	.loc 10 288 17 is_stmt 0 view .LVU3032
	mov	r1, #1
	mov	r0, r1
	bl	fb_SleepEx
.LVL813:
	.loc 10 288 2 is_stmt 1 view .LVU3033
	.loc 10 288 4 is_stmt 0 view .LVU3034
	cmp	r0, #0
	beq	.L577
	.loc 10 288 2 is_stmt 1 discriminator 2 view .LVU3035
	.loc 10 288 17 is_stmt 0 discriminator 2 view .LVU3036
	ldr	r3, .L852+4
	movw	r1, #:lower16:.LC67
	movt	r1, #:upper16:.LC67
	ldr	r2, .L852+8
	mov	r0, #288
.LVL814:
	.loc 10 288 17 discriminator 2 view .LVU3037
	bl	fb_ErrorThrowAt
.LVL815:
	.loc 10 288 2 is_stmt 1 discriminator 2 view .LVU3038
	mov	pc, r0	@ indirect register jump
.LVL816:
.L821:
.LBB96:
.LBB94:
	.loc 10 157 109 discriminator 4 view .LVU3039
.LDL87:
	.loc 10 157 15 discriminator 4 view .LVU3040
	.loc 10 158 4 discriminator 4 view .LVU3041
	.loc 10 158 4 discriminator 4 view .LVU3042
	.loc 10 158 18 is_stmt 0 discriminator 4 view .LVU3043
	ldr	r2, [r4, #52]
	mov	r3, #158
	ldr	r1, [r4, #48]
	mov	r0, r9
.LVL817:
	.loc 10 158 18 discriminator 4 view .LVU3044
	str	r6, [sp]
	bl	fb_ArrayBoundChk
.LVL818:
	.loc 10 158 4 is_stmt 1 discriminator 4 view .LVU3045
	.loc 10 158 6 is_stmt 0 discriminator 4 view .LVU3046
	cmp	r0, #0
	.loc 10 158 6 discriminator 4 view .LVU3047
	bne	.L501
	.loc 10 158 21 is_stmt 1 discriminator 1 view .LVU3048
.LDL88:
	.loc 10 158 14 discriminator 1 view .LVU3049
	.loc 10 158 4 discriminator 1 view .LVU3050
	ldr	r3, [r4, #24]
	lsl	r5, r9, #2
	ldr	r0, [r3, r5]
.LVL819:
	.loc 10 158 4 is_stmt 0 discriminator 1 view .LVU3051
	bl	_ZN9CPCWINDOW6REDRAWEv
.LVL820:
	.loc 10 159 4 is_stmt 1 discriminator 1 view .LVU3052
	.loc 10 159 4 discriminator 1 view .LVU3053
	.loc 10 159 18 is_stmt 0 discriminator 1 view .LVU3054
	ldr	r2, [r4, #52]
	ldr	r1, [r4, #48]
	mov	r3, #159
	mov	r0, r9
	str	r6, [sp]
	bl	fb_ArrayBoundChk
.LVL821:
	.loc 10 159 4 is_stmt 1 discriminator 1 view .LVU3055
	.loc 10 159 6 is_stmt 0 discriminator 1 view .LVU3056
	cmp	r0, #0
	.loc 10 159 6 discriminator 1 view .LVU3057
	bne	.L501
	.loc 10 159 21 is_stmt 1 discriminator 1 view .LVU3058
.LDL89:
	.loc 10 159 14 discriminator 1 view .LVU3059
	.loc 10 159 4 discriminator 1 view .LVU3060
	.loc 10 159 14 is_stmt 0 discriminator 1 view .LVU3061
	ldr	r3, [r4, #24]
	.loc 10 159 18 discriminator 1 view .LVU3062
	mov	r2, r6
	mov	r1, #159
	.loc 10 159 14 discriminator 1 view .LVU3063
	ldr	r5, [r3, r5]
.LVL822:
	.loc 10 159 4 is_stmt 1 discriminator 1 view .LVU3064
	.loc 10 159 18 is_stmt 0 discriminator 1 view .LVU3065
	mov	r0, r5
.LVL823:
	.loc 10 159 18 discriminator 1 view .LVU3066
	bl	fb_NullPtrChk
.LVL824:
	.loc 10 159 4 is_stmt 1 discriminator 1 view .LVU3067
	.loc 10 159 6 is_stmt 0 discriminator 1 view .LVU3068
	cmp	r0, #0
	.loc 10 159 6 discriminator 1 view .LVU3069
	bne	.L501
	.loc 10 159 21 is_stmt 1 discriminator 4 view .LVU3070
.LDL90:
	.loc 10 159 14 discriminator 4 view .LVU3071
	.loc 10 159 4 discriminator 4 view .LVU3072
	.loc 10 159 39 is_stmt 0 discriminator 4 view .LVU3073
	str	r9, [r5, #96]
.LBB28:
	.loc 10 160 5 is_stmt 1 discriminator 4 view .LVU3074
	.loc 10 160 5 discriminator 4 view .LVU3075
.LVL825:
	.loc 10 160 5 discriminator 4 view .LVU3076
	.loc 10 160 5 discriminator 4 view .LVU3077
	.loc 10 160 19 is_stmt 0 discriminator 4 view .LVU3078
	mov	r1, #1
	ldr	r0, .L852+12
.LVL826:
	.loc 10 160 19 discriminator 4 view .LVU3079
	bl	fb_ArrayUBound
.LVL827:
	.loc 10 160 5 is_stmt 1 discriminator 4 view .LVU3080
	.loc 10 160 5 discriminator 4 view .LVU3081
	.loc 10 178 15 discriminator 4 view .LVU3082
	.loc 10 178 5 discriminator 4 view .LVU3083
	.loc 10 178 7 is_stmt 0 discriminator 4 view .LVU3084
	subs	r8, r0, #0
	.loc 10 160 9 discriminator 4 view .LVU3085
	movgt	r5, #1
.LVL828:
	.loc 10 178 7 discriminator 4 view .LVU3086
	bgt	.L502
	b	.L503
.L505:
.L511:
.LVL829:
.L512:
.LBB29:
	.loc 10 177 16 is_stmt 1 discriminator 2 view .LVU3087
	.loc 10 177 16 discriminator 2 view .LVU3088
.LBE29:
	.loc 10 178 15 discriminator 2 view .LVU3089
	.loc 10 178 5 discriminator 2 view .LVU3090
	.loc 10 178 9 is_stmt 0 discriminator 2 view .LVU3091
	add	r5, r5, #1
.LVL830:
.LDL91:
	.loc 10 178 15 is_stmt 1 discriminator 2 view .LVU3092
	.loc 10 178 5 discriminator 2 view .LVU3093
	.loc 10 178 7 is_stmt 0 discriminator 2 view .LVU3094
	cmp	r8, r5
	blt	.L503
.LVL831:
.L502:
	.loc 10 178 28 is_stmt 1 discriminator 2 view .LVU3095
.LDL92:
	.loc 10 160 15 discriminator 2 view .LVU3096
.LBB38:
	.loc 10 160 6 discriminator 2 view .LVU3097
	.loc 10 160 6 discriminator 2 view .LVU3098
	.loc 10 160 6 discriminator 2 view .LVU3099
	.loc 10 160 6 discriminator 2 view .LVU3100
	.loc 10 160 6 discriminator 2 view .LVU3101
	.loc 10 161 6 discriminator 2 view .LVU3102
	.loc 10 161 6 discriminator 2 view .LVU3103
	.loc 10 161 20 is_stmt 0 discriminator 2 view .LVU3104
	ldr	r2, [r4, #692]
	mov	r3, #161
	ldr	r1, [r4, #688]
	mov	r0, r5
	str	r6, [sp]
	bl	fb_ArrayBoundChk
.LVL832:
	.loc 10 161 6 is_stmt 1 discriminator 2 view .LVU3105
	.loc 10 161 8 is_stmt 0 discriminator 2 view .LVU3106
	cmp	r0, #0
	.loc 10 161 8 discriminator 2 view .LVU3107
	bne	.L822
	.loc 10 161 23 is_stmt 1 discriminator 1 view .LVU3108
.LDL93:
	.loc 10 161 16 discriminator 1 view .LVU3109
	.loc 10 161 6 discriminator 1 view .LVU3110
	.loc 10 161 10 is_stmt 0 discriminator 1 view .LVU3111
	ldr	r3, [r4, #664]
	.loc 10 161 42 discriminator 1 view .LVU3112
	lsl	r7, r5, #2
	.loc 10 161 8 discriminator 1 view .LVU3113
	ldr	r3, [r3, r5, lsl #2]
	cmp	r3, #0
	beq	.L512
	.loc 10 161 104 is_stmt 1 discriminator 4 view .LVU3114
.LDL94:
	.loc 10 161 17 discriminator 4 view .LVU3115
	.loc 10 162 6 discriminator 4 view .LVU3116
.LVL833:
	.loc 10 162 6 discriminator 4 view .LVU3117
	.loc 10 162 20 is_stmt 0 discriminator 4 view .LVU3118
	ldr	r2, [r4, #692]
	mov	r3, #162
	ldr	r1, [r4, #688]
	mov	r0, r5
.LVL834:
	.loc 10 162 20 discriminator 4 view .LVU3119
	str	r6, [sp]
	bl	fb_ArrayBoundChk
.LVL835:
	.loc 10 162 6 is_stmt 1 discriminator 4 view .LVU3120
	.loc 10 162 8 is_stmt 0 discriminator 4 view .LVU3121
	cmp	r0, #0
	.loc 10 162 8 discriminator 4 view .LVU3122
	bne	.L501
	.loc 10 162 23 is_stmt 1 discriminator 1 view .LVU3123
.LDL95:
	.loc 10 162 16 discriminator 1 view .LVU3124
	.loc 10 162 6 discriminator 1 view .LVU3125
	.loc 10 162 16 is_stmt 0 discriminator 1 view .LVU3126
	ldr	r3, [r4, #664]
	.loc 10 162 20 discriminator 1 view .LVU3127
	mov	r2, r6
	mov	r1, #162
	.loc 10 162 16 discriminator 1 view .LVU3128
	ldr	r10, [r3, r7]
.LVL836:
	.loc 10 162 6 is_stmt 1 discriminator 1 view .LVU3129
	.loc 10 162 20 is_stmt 0 discriminator 1 view .LVU3130
	mov	r0, r10
.LVL837:
	.loc 10 162 20 discriminator 1 view .LVU3131
	bl	fb_NullPtrChk
.LVL838:
	.loc 10 162 6 is_stmt 1 discriminator 1 view .LVU3132
	.loc 10 162 8 is_stmt 0 discriminator 1 view .LVU3133
	cmp	r0, #0
	.loc 10 162 8 discriminator 1 view .LVU3134
	bne	.L501
	.loc 10 162 23 is_stmt 1 discriminator 4 view .LVU3135
.LDL96:
	.loc 10 162 16 discriminator 4 view .LVU3136
	.loc 10 162 6 discriminator 4 view .LVU3137
.LVL839:
	.loc 10 162 6 discriminator 4 view .LVU3138
	.loc 10 162 20 is_stmt 0 discriminator 4 view .LVU3139
	ldr	r2, [r4, #52]
	mov	r3, #162
	ldr	r1, [r4, #48]
	mov	r0, r9
.LVL840:
	.loc 10 162 20 discriminator 4 view .LVU3140
	str	r6, [sp]
	bl	fb_ArrayBoundChk
.LVL841:
	.loc 10 162 6 is_stmt 1 discriminator 4 view .LVU3141
	.loc 10 162 8 is_stmt 0 discriminator 4 view .LVU3142
	cmp	r0, #0
	.loc 10 162 8 discriminator 4 view .LVU3143
	bne	.L501
	.loc 10 162 23 is_stmt 1 discriminator 7 view .LVU3144
.LDL97:
	.loc 10 162 16 discriminator 7 view .LVU3145
	.loc 10 162 6 discriminator 7 view .LVU3146
	.loc 10 162 16 is_stmt 0 discriminator 7 view .LVU3147
	ldr	r2, [sp, #12]
	.loc 10 162 20 discriminator 7 view .LVU3148
	mov	r1, #162
	.loc 10 162 16 discriminator 7 view .LVU3149
	ldr	r3, [r4, #24]
	ldr	fp, [r3, r2]
.LVL842:
	.loc 10 162 6 is_stmt 1 discriminator 7 view .LVU3150
	.loc 10 162 20 is_stmt 0 discriminator 7 view .LVU3151
	mov	r2, r6
	mov	r0, fp
.LVL843:
	.loc 10 162 20 discriminator 7 view .LVU3152
	bl	fb_NullPtrChk
.LVL844:
	.loc 10 162 6 is_stmt 1 discriminator 7 view .LVU3153
	.loc 10 162 8 is_stmt 0 discriminator 7 view .LVU3154
	cmp	r0, #0
	.loc 10 162 8 discriminator 7 view .LVU3155
	bne	.L501
	.loc 10 162 23 is_stmt 1 discriminator 10 view .LVU3156
.LDL98:
	.loc 10 162 16 discriminator 10 view .LVU3157
	.loc 10 162 6 discriminator 10 view .LVU3158
	.loc 10 162 8 is_stmt 0 discriminator 10 view .LVU3159
	ldr	r2, [r10, #20]
	ldr	r3, [fp, #16]
	cmp	r2, r3
	bne	.L512
.LBB30:
	.loc 10 162 7 is_stmt 1 discriminator 14 view .LVU3160
	.loc 10 162 7 discriminator 14 view .LVU3161
	.loc 10 162 7 discriminator 14 view .LVU3162
	.loc 10 162 7 discriminator 14 view .LVU3163
	.loc 10 162 7 discriminator 14 view .LVU3164
	.loc 10 162 7 discriminator 14 view .LVU3165
	.loc 10 162 7 discriminator 14 view .LVU3166
	.loc 10 162 7 discriminator 14 view .LVU3167
	.loc 10 162 7 discriminator 14 view .LVU3168
	.loc 10 162 7 discriminator 14 view .LVU3169
	.loc 10 162 7 discriminator 14 view .LVU3170
	.loc 10 162 7 discriminator 14 view .LVU3171
	.loc 10 162 7 discriminator 14 view .LVU3172
	.loc 10 162 7 discriminator 14 view .LVU3173
	.loc 10 162 7 discriminator 14 view .LVU3174
	.loc 10 162 7 discriminator 14 view .LVU3175
	.loc 10 162 7 discriminator 14 view .LVU3176
	.loc 10 162 7 discriminator 14 view .LVU3177
	.loc 10 162 7 discriminator 14 view .LVU3178
	.loc 10 162 7 discriminator 14 view .LVU3179
	.loc 10 162 7 discriminator 14 view .LVU3180
	.loc 10 162 7 discriminator 14 view .LVU3181
	.loc 10 162 7 discriminator 14 view .LVU3182
	.loc 10 162 7 discriminator 14 view .LVU3183
	.loc 10 162 7 discriminator 14 view .LVU3184
	.loc 10 162 7 discriminator 14 view .LVU3185
	.loc 10 162 7 discriminator 14 view .LVU3186
	.loc 10 162 7 discriminator 14 view .LVU3187
	.loc 10 164 7 discriminator 14 view .LVU3188
.LVL845:
	.loc 10 164 7 discriminator 14 view .LVU3189
	.loc 10 164 21 is_stmt 0 discriminator 14 view .LVU3190
	ldr	r2, [r4, #692]
	mov	r3, #164
	ldr	r1, [r4, #688]
	mov	r0, r5
.LVL846:
	.loc 10 164 21 discriminator 14 view .LVU3191
	str	r6, [sp]
	bl	fb_ArrayBoundChk
.LVL847:
	.loc 10 164 7 is_stmt 1 discriminator 14 view .LVU3192
	.loc 10 164 9 is_stmt 0 discriminator 14 view .LVU3193
	cmp	r0, #0
	.loc 10 164 9 discriminator 14 view .LVU3194
	bne	.L501
	.loc 10 164 24 is_stmt 1 discriminator 1 view .LVU3195
.LDL99:
	.loc 10 164 17 discriminator 1 view .LVU3196
	.loc 10 164 7 discriminator 1 view .LVU3197
	.loc 10 164 17 is_stmt 0 discriminator 1 view .LVU3198
	ldr	r3, [r4, #664]
	.loc 10 164 21 discriminator 1 view .LVU3199
	mov	r2, r6
	mov	r1, #164
	.loc 10 164 17 discriminator 1 view .LVU3200
	ldr	r10, [r3, r7]
.LVL848:
	.loc 10 164 7 is_stmt 1 discriminator 1 view .LVU3201
	.loc 10 164 21 is_stmt 0 discriminator 1 view .LVU3202
	mov	r0, r10
.LVL849:
	.loc 10 164 21 discriminator 1 view .LVU3203
	bl	fb_NullPtrChk
.LVL850:
	.loc 10 164 7 is_stmt 1 discriminator 1 view .LVU3204
	.loc 10 164 9 is_stmt 0 discriminator 1 view .LVU3205
	cmp	r0, #0
	.loc 10 164 9 discriminator 1 view .LVU3206
	bne	.L501
	.loc 10 164 24 is_stmt 1 discriminator 4 view .LVU3207
.LDL100:
	.loc 10 164 17 discriminator 4 view .LVU3208
	.loc 10 164 7 discriminator 4 view .LVU3209
.LVL851:
	.loc 10 164 7 discriminator 4 view .LVU3210
	.loc 10 164 21 is_stmt 0 discriminator 4 view .LVU3211
	ldr	r2, [r4, #692]
	mov	r3, #164
	ldr	r1, [r4, #688]
	mov	r0, r5
.LVL852:
	.loc 10 164 21 discriminator 4 view .LVU3212
	str	r6, [sp]
	bl	fb_ArrayBoundChk
.LVL853:
	.loc 10 164 7 is_stmt 1 discriminator 4 view .LVU3213
	.loc 10 164 9 is_stmt 0 discriminator 4 view .LVU3214
	cmp	r0, #0
	.loc 10 164 9 discriminator 4 view .LVU3215
	bne	.L501
	.loc 10 164 24 is_stmt 1 discriminator 7 view .LVU3216
.LDL101:
	.loc 10 164 17 discriminator 7 view .LVU3217
	.loc 10 164 7 discriminator 7 view .LVU3218
	.loc 10 164 17 is_stmt 0 discriminator 7 view .LVU3219
	ldr	r3, [r4, #664]
	.loc 10 164 21 discriminator 7 view .LVU3220
	mov	r2, r6
	mov	r1, #164
	.loc 10 164 17 discriminator 7 view .LVU3221
	ldr	fp, [r3, r7]
.LVL854:
	.loc 10 164 7 is_stmt 1 discriminator 7 view .LVU3222
	.loc 10 164 21 is_stmt 0 discriminator 7 view .LVU3223
	mov	r0, fp
.LVL855:
	.loc 10 164 21 discriminator 7 view .LVU3224
	bl	fb_NullPtrChk
.LVL856:
	.loc 10 164 7 is_stmt 1 discriminator 7 view .LVU3225
	.loc 10 164 9 is_stmt 0 discriminator 7 view .LVU3226
	cmp	r0, #0
	.loc 10 164 9 discriminator 7 view .LVU3227
	bne	.L501
	.loc 10 164 24 is_stmt 1 discriminator 10 view .LVU3228
.LDL102:
	.loc 10 164 17 discriminator 10 view .LVU3229
	.loc 10 164 7 discriminator 10 view .LVU3230
.LVL857:
	.loc 10 164 7 discriminator 10 view .LVU3231
	.loc 10 164 21 is_stmt 0 discriminator 10 view .LVU3232
	ldr	r2, [r4, #52]
	mov	r3, #164
	ldr	r1, [r4, #48]
	mov	r0, r9
.LVL858:
	.loc 10 164 21 discriminator 10 view .LVU3233
	str	r6, [sp]
	bl	fb_ArrayBoundChk
.LVL859:
	.loc 10 164 7 is_stmt 1 discriminator 10 view .LVU3234
	.loc 10 164 9 is_stmt 0 discriminator 10 view .LVU3235
	cmp	r0, #0
	.loc 10 164 9 discriminator 10 view .LVU3236
	bne	.L501
	.loc 10 164 24 is_stmt 1 discriminator 13 view .LVU3237
.LDL103:
	.loc 10 164 17 discriminator 13 view .LVU3238
	.loc 10 164 7 discriminator 13 view .LVU3239
	.loc 10 164 17 is_stmt 0 discriminator 13 view .LVU3240
	ldr	r2, [sp, #12]
	.loc 10 164 21 discriminator 13 view .LVU3241
	mov	r1, #164
	.loc 10 164 17 discriminator 13 view .LVU3242
	ldr	r3, [r4, #24]
	ldr	r3, [r3, r2]
.LVL860:
	.loc 10 164 7 is_stmt 1 discriminator 13 view .LVU3243
	.loc 10 164 21 is_stmt 0 discriminator 13 view .LVU3244
	mov	r2, r6
	str	r3, [sp, #20]
	mov	r0, r3
.LVL861:
	.loc 10 164 21 discriminator 13 view .LVU3245
	bl	fb_NullPtrChk
.LVL862:
	.loc 10 164 7 is_stmt 1 discriminator 13 view .LVU3246
	.loc 10 164 9 is_stmt 0 discriminator 13 view .LVU3247
	cmp	r0, #0
	.loc 10 164 9 discriminator 13 view .LVU3248
	bne	.L501
	.loc 10 164 24 is_stmt 1 discriminator 16 view .LVU3249
.LDL104:
	.loc 10 164 17 discriminator 16 view .LVU3250
	.loc 10 164 7 discriminator 16 view .LVU3251
	.loc 10 164 9 is_stmt 0 discriminator 16 view .LVU3252
	ldr	r3, [sp, #20]
	.loc 10 164 47 discriminator 16 view .LVU3253
	ldr	r1, [fp, #32]
	ldr	r2, [r10, #68]
	add	r2, r2, r1
	.loc 10 164 9 discriminator 16 view .LVU3254
	ldr	r1, [r3, #32]
	.loc 10 164 84 discriminator 16 view .LVU3255
	add	r3, r2, #8
	.loc 10 169 21 discriminator 16 view .LVU3256
	str	r6, [sp]
	.loc 10 164 9 discriminator 16 view .LVU3257
	cmp	r3, r1
	.loc 10 169 21 discriminator 16 view .LVU3258
	ldr	r2, [r4, #692]
	ldr	r1, [r4, #688]
	.loc 10 164 9 discriminator 16 view .LVU3259
	blt	.L823
.LBB31:
	.loc 10 164 8 is_stmt 1 discriminator 20 view .LVU3260
	.loc 10 164 8 discriminator 20 view .LVU3261
	.loc 10 165 8 discriminator 20 view .LVU3262
.LVL863:
	.loc 10 165 8 discriminator 20 view .LVU3263
	.loc 10 165 22 is_stmt 0 discriminator 20 view .LVU3264
	mov	r3, #165
	mov	r0, r5
.LVL864:
	.loc 10 165 22 discriminator 20 view .LVU3265
	bl	fb_ArrayBoundChk
.LVL865:
	.loc 10 165 8 is_stmt 1 discriminator 20 view .LVU3266
	.loc 10 165 10 is_stmt 0 discriminator 20 view .LVU3267
	cmp	r0, #0
	.loc 10 165 10 discriminator 20 view .LVU3268
	bne	.L501
	.loc 10 165 25 is_stmt 1 discriminator 1 view .LVU3269
.LDL105:
	.loc 10 165 18 discriminator 1 view .LVU3270
	.loc 10 165 8 discriminator 1 view .LVU3271
	.loc 10 165 18 is_stmt 0 discriminator 1 view .LVU3272
	ldr	r3, [r4, #664]
	.loc 10 165 22 discriminator 1 view .LVU3273
	mov	r2, r6
	mov	r1, #165
	.loc 10 165 18 discriminator 1 view .LVU3274
	ldr	r7, [r3, r7]
.LVL866:
	.loc 10 165 8 is_stmt 1 discriminator 1 view .LVU3275
	.loc 10 165 22 is_stmt 0 discriminator 1 view .LVU3276
	mov	r0, r7
.LVL867:
	.loc 10 165 22 discriminator 1 view .LVU3277
	bl	fb_NullPtrChk
.LVL868:
	.loc 10 165 8 is_stmt 1 discriminator 1 view .LVU3278
	.loc 10 165 10 is_stmt 0 discriminator 1 view .LVU3279
	cmp	r0, #0
	.loc 10 165 10 discriminator 1 view .LVU3280
	bne	.L501
.LVL869:
.L794:
	.loc 10 165 10 discriminator 1 view .LVU3281
.LBE31:
.LBB32:
	.loc 10 170 25 is_stmt 1 discriminator 4 view .LVU3282
.LDL106:
	.loc 10 170 18 discriminator 4 view .LVU3283
	.loc 10 170 8 discriminator 4 view .LVU3284
.LBE32:
.LBE30:
.LBE38:
	.loc 10 178 9 is_stmt 0 discriminator 4 view .LVU3285
	add	r5, r5, #1
.LVL870:
.LBB39:
.LBB35:
.LBB33:
	.loc 10 170 44 discriminator 4 view .LVU3286
	strb	r0, [r7, #92]
	.loc 10 171 8 is_stmt 1 discriminator 4 view .LVU3287
.LBE33:
.LBE35:
	.loc 10 177 16 discriminator 4 view .LVU3288
	.loc 10 177 16 discriminator 4 view .LVU3289
.LBE39:
	.loc 10 178 15 discriminator 4 view .LVU3290
	.loc 10 178 5 discriminator 4 view .LVU3291
.LVL871:
	.loc 10 178 15 discriminator 4 view .LVU3292
	.loc 10 178 5 discriminator 4 view .LVU3293
	.loc 10 178 7 is_stmt 0 discriminator 4 view .LVU3294
	cmp	r8, r5
	bge	.L502
.LVL872:
.L503:
.LDL107:
	.loc 10 178 15 is_stmt 1 view .LVU3295
.LBE28:
.LBB42:
	.loc 10 180 5 view .LVU3296
	.loc 10 180 5 view .LVU3297
	.loc 10 180 5 view .LVU3298
	.loc 10 180 5 view .LVU3299
	.loc 10 180 20 is_stmt 0 view .LVU3300
	ldr	r0, .L852+16
	mov	r1, #1
	bl	fb_ArrayUBound
.LVL873:
	.loc 10 180 5 is_stmt 1 view .LVU3301
	.loc 10 180 5 view .LVU3302
	.loc 10 199 15 view .LVU3303
	.loc 10 199 5 view .LVU3304
	.loc 10 199 7 is_stmt 0 view .LVU3305
	subs	fp, r0, #0
	.loc 10 180 9 view .LVU3306
	movgt	r5, #1
	.loc 10 199 7 view .LVU3307
	bgt	.L514
	b	.L515
.L517:
.L523:
.LVL874:
.L524:
.LBB43:
	.loc 10 197 16 is_stmt 1 discriminator 2 view .LVU3308
	.loc 10 197 16 discriminator 2 view .LVU3309
.LBE43:
	.loc 10 199 15 discriminator 2 view .LVU3310
	.loc 10 199 5 discriminator 2 view .LVU3311
	.loc 10 199 9 is_stmt 0 discriminator 2 view .LVU3312
	add	r5, r5, #1
.LVL875:
.LDL108:
	.loc 10 199 15 is_stmt 1 discriminator 2 view .LVU3313
	.loc 10 199 5 discriminator 2 view .LVU3314
	.loc 10 199 7 is_stmt 0 discriminator 2 view .LVU3315
	cmp	fp, r5
	blt	.L515
.LVL876:
.L514:
	.loc 10 199 28 is_stmt 1 discriminator 2 view .LVU3316
.LDL109:
	.loc 10 180 15 discriminator 2 view .LVU3317
.LBB49:
	.loc 10 180 6 discriminator 2 view .LVU3318
	.loc 10 180 6 discriminator 2 view .LVU3319
	.loc 10 180 6 discriminator 2 view .LVU3320
	.loc 10 180 6 discriminator 2 view .LVU3321
	.loc 10 180 6 discriminator 2 view .LVU3322
	.loc 10 181 6 discriminator 2 view .LVU3323
	.loc 10 181 6 discriminator 2 view .LVU3324
	.loc 10 181 21 is_stmt 0 discriminator 2 view .LVU3325
	ldr	r2, [r4, #820]
	mov	r3, #181
	ldr	r1, [r4, #816]
	mov	r0, r5
	str	r6, [sp]
	bl	fb_ArrayBoundChk
.LVL877:
	.loc 10 181 6 is_stmt 1 discriminator 2 view .LVU3326
	.loc 10 181 8 is_stmt 0 discriminator 2 view .LVU3327
	cmp	r0, #0
	.loc 10 181 8 discriminator 2 view .LVU3328
	bne	.L824
	.loc 10 181 24 is_stmt 1 discriminator 1 view .LVU3329
.LDL110:
	.loc 10 181 16 discriminator 1 view .LVU3330
	.loc 10 181 6 discriminator 1 view .LVU3331
	.loc 10 181 10 is_stmt 0 discriminator 1 view .LVU3332
	ldr	r3, [r4, #792]
	.loc 10 181 43 discriminator 1 view .LVU3333
	lsl	r7, r5, #2
	.loc 10 181 8 discriminator 1 view .LVU3334
	ldr	r3, [r3, r5, lsl #2]
	cmp	r3, #0
	beq	.L524
	.loc 10 181 107 is_stmt 1 discriminator 4 view .LVU3335
.LDL111:
	.loc 10 181 17 discriminator 4 view .LVU3336
	.loc 10 182 6 discriminator 4 view .LVU3337
.LVL878:
	.loc 10 182 6 discriminator 4 view .LVU3338
	.loc 10 182 21 is_stmt 0 discriminator 4 view .LVU3339
	ldr	r2, [r4, #820]
	mov	r3, #182
	ldr	r1, [r4, #816]
	mov	r0, r5
.LVL879:
	.loc 10 182 21 discriminator 4 view .LVU3340
	str	r6, [sp]
	bl	fb_ArrayBoundChk
.LVL880:
	.loc 10 182 6 is_stmt 1 discriminator 4 view .LVU3341
	.loc 10 182 8 is_stmt 0 discriminator 4 view .LVU3342
	cmp	r0, #0
	.loc 10 182 8 discriminator 4 view .LVU3343
	bne	.L501
	.loc 10 182 24 is_stmt 1 discriminator 1 view .LVU3344
.LDL112:
	.loc 10 182 16 discriminator 1 view .LVU3345
	.loc 10 182 6 discriminator 1 view .LVU3346
	.loc 10 182 16 is_stmt 0 discriminator 1 view .LVU3347
	ldr	r3, [r4, #792]
	.loc 10 182 21 discriminator 1 view .LVU3348
	mov	r2, r6
	mov	r1, #182
	.loc 10 182 16 discriminator 1 view .LVU3349
	ldr	r8, [r3, r7]
.LVL881:
	.loc 10 182 6 is_stmt 1 discriminator 1 view .LVU3350
	.loc 10 182 21 is_stmt 0 discriminator 1 view .LVU3351
	mov	r0, r8
.LVL882:
	.loc 10 182 21 discriminator 1 view .LVU3352
	bl	fb_NullPtrChk
.LVL883:
	.loc 10 182 6 is_stmt 1 discriminator 1 view .LVU3353
	.loc 10 182 8 is_stmt 0 discriminator 1 view .LVU3354
	cmp	r0, #0
	.loc 10 182 8 discriminator 1 view .LVU3355
	bne	.L501
	.loc 10 182 24 is_stmt 1 discriminator 4 view .LVU3356
.LDL113:
	.loc 10 182 16 discriminator 4 view .LVU3357
	.loc 10 182 6 discriminator 4 view .LVU3358
.LVL884:
	.loc 10 182 6 discriminator 4 view .LVU3359
	.loc 10 182 21 is_stmt 0 discriminator 4 view .LVU3360
	ldr	r2, [r4, #52]
	mov	r3, #182
	ldr	r1, [r4, #48]
	mov	r0, r9
.LVL885:
	.loc 10 182 21 discriminator 4 view .LVU3361
	str	r6, [sp]
	bl	fb_ArrayBoundChk
.LVL886:
	.loc 10 182 6 is_stmt 1 discriminator 4 view .LVU3362
	.loc 10 182 8 is_stmt 0 discriminator 4 view .LVU3363
	cmp	r0, #0
	.loc 10 182 8 discriminator 4 view .LVU3364
	bne	.L501
	.loc 10 182 24 is_stmt 1 discriminator 7 view .LVU3365
.LDL114:
	.loc 10 182 16 discriminator 7 view .LVU3366
	.loc 10 182 6 discriminator 7 view .LVU3367
	.loc 10 182 16 is_stmt 0 discriminator 7 view .LVU3368
	ldr	r2, [sp, #12]
	.loc 10 182 21 discriminator 7 view .LVU3369
	mov	r1, #182
	.loc 10 182 16 discriminator 7 view .LVU3370
	ldr	r3, [r4, #24]
	ldr	r10, [r3, r2]
.LVL887:
	.loc 10 182 6 is_stmt 1 discriminator 7 view .LVU3371
	.loc 10 182 21 is_stmt 0 discriminator 7 view .LVU3372
	mov	r2, r6
	mov	r0, r10
.LVL888:
	.loc 10 182 21 discriminator 7 view .LVU3373
	bl	fb_NullPtrChk
.LVL889:
	.loc 10 182 6 is_stmt 1 discriminator 7 view .LVU3374
	.loc 10 182 8 is_stmt 0 discriminator 7 view .LVU3375
	cmp	r0, #0
	.loc 10 182 8 discriminator 7 view .LVU3376
	bne	.L501
	.loc 10 182 24 is_stmt 1 discriminator 10 view .LVU3377
.LDL115:
	.loc 10 182 16 discriminator 10 view .LVU3378
	.loc 10 182 6 discriminator 10 view .LVU3379
	.loc 10 182 8 is_stmt 0 discriminator 10 view .LVU3380
	ldr	r2, [r8, #20]
	ldr	r3, [r10, #16]
	cmp	r2, r3
	bne	.L524
.LBB44:
	.loc 10 182 7 is_stmt 1 discriminator 14 view .LVU3381
	.loc 10 182 7 discriminator 14 view .LVU3382
	.loc 10 182 7 discriminator 14 view .LVU3383
	.loc 10 182 7 discriminator 14 view .LVU3384
	.loc 10 182 7 discriminator 14 view .LVU3385
	.loc 10 182 7 discriminator 14 view .LVU3386
	.loc 10 182 7 discriminator 14 view .LVU3387
	.loc 10 182 7 discriminator 14 view .LVU3388
	.loc 10 182 7 discriminator 14 view .LVU3389
	.loc 10 182 7 discriminator 14 view .LVU3390
	.loc 10 182 7 discriminator 14 view .LVU3391
	.loc 10 182 7 discriminator 14 view .LVU3392
	.loc 10 182 7 discriminator 14 view .LVU3393
	.loc 10 182 7 discriminator 14 view .LVU3394
	.loc 10 182 7 discriminator 14 view .LVU3395
	.loc 10 182 7 discriminator 14 view .LVU3396
	.loc 10 182 7 discriminator 14 view .LVU3397
	.loc 10 182 7 discriminator 14 view .LVU3398
	.loc 10 182 7 discriminator 14 view .LVU3399
	.loc 10 182 7 discriminator 14 view .LVU3400
	.loc 10 182 7 discriminator 14 view .LVU3401
	.loc 10 182 7 discriminator 14 view .LVU3402
	.loc 10 182 7 discriminator 14 view .LVU3403
	.loc 10 182 7 discriminator 14 view .LVU3404
	.loc 10 182 7 discriminator 14 view .LVU3405
	.loc 10 182 7 discriminator 14 view .LVU3406
	.loc 10 182 7 discriminator 14 view .LVU3407
	.loc 10 182 7 discriminator 14 view .LVU3408
	.loc 10 184 7 discriminator 14 view .LVU3409
.LVL890:
	.loc 10 184 7 discriminator 14 view .LVU3410
	.loc 10 184 22 is_stmt 0 discriminator 14 view .LVU3411
	ldr	r2, [r4, #820]
	mov	r3, #184
	ldr	r1, [r4, #816]
	mov	r0, r5
.LVL891:
	.loc 10 184 22 discriminator 14 view .LVU3412
	str	r6, [sp]
	bl	fb_ArrayBoundChk
.LVL892:
	.loc 10 184 7 is_stmt 1 discriminator 14 view .LVU3413
	.loc 10 184 9 is_stmt 0 discriminator 14 view .LVU3414
	cmp	r0, #0
	.loc 10 184 9 discriminator 14 view .LVU3415
	bne	.L501
	.loc 10 184 25 is_stmt 1 discriminator 1 view .LVU3416
.LDL116:
	.loc 10 184 17 discriminator 1 view .LVU3417
	.loc 10 184 7 discriminator 1 view .LVU3418
	.loc 10 184 17 is_stmt 0 discriminator 1 view .LVU3419
	ldr	r3, [r4, #792]
	.loc 10 184 22 discriminator 1 view .LVU3420
	mov	r2, r6
	mov	r1, #184
	.loc 10 184 17 discriminator 1 view .LVU3421
	ldr	r8, [r3, r7]
.LVL893:
	.loc 10 184 7 is_stmt 1 discriminator 1 view .LVU3422
	.loc 10 184 22 is_stmt 0 discriminator 1 view .LVU3423
	mov	r0, r8
.LVL894:
	.loc 10 184 22 discriminator 1 view .LVU3424
	bl	fb_NullPtrChk
.LVL895:
	.loc 10 184 7 is_stmt 1 discriminator 1 view .LVU3425
	.loc 10 184 9 is_stmt 0 discriminator 1 view .LVU3426
	cmp	r0, #0
	.loc 10 184 9 discriminator 1 view .LVU3427
	bne	.L501
	.loc 10 184 25 is_stmt 1 discriminator 4 view .LVU3428
.LDL117:
	.loc 10 184 17 discriminator 4 view .LVU3429
	.loc 10 184 7 discriminator 4 view .LVU3430
.LVL896:
	.loc 10 184 7 discriminator 4 view .LVU3431
	.loc 10 184 22 is_stmt 0 discriminator 4 view .LVU3432
	ldr	r2, [r4, #820]
	mov	r3, #184
	ldr	r1, [r4, #816]
	mov	r0, r5
.LVL897:
	.loc 10 184 22 discriminator 4 view .LVU3433
	str	r6, [sp]
	bl	fb_ArrayBoundChk
.LVL898:
	.loc 10 184 7 is_stmt 1 discriminator 4 view .LVU3434
	.loc 10 184 9 is_stmt 0 discriminator 4 view .LVU3435
	cmp	r0, #0
	.loc 10 184 9 discriminator 4 view .LVU3436
	bne	.L501
	.loc 10 184 25 is_stmt 1 discriminator 7 view .LVU3437
.LDL118:
	.loc 10 184 17 discriminator 7 view .LVU3438
	.loc 10 184 7 discriminator 7 view .LVU3439
	.loc 10 184 17 is_stmt 0 discriminator 7 view .LVU3440
	ldr	r3, [r4, #792]
	.loc 10 184 22 discriminator 7 view .LVU3441
	mov	r2, r6
	mov	r1, #184
	.loc 10 184 17 discriminator 7 view .LVU3442
	ldr	r10, [r3, r7]
.LVL899:
	.loc 10 184 7 is_stmt 1 discriminator 7 view .LVU3443
	.loc 10 184 22 is_stmt 0 discriminator 7 view .LVU3444
	mov	r0, r10
.LVL900:
	.loc 10 184 22 discriminator 7 view .LVU3445
	bl	fb_NullPtrChk
.LVL901:
	.loc 10 184 7 is_stmt 1 discriminator 7 view .LVU3446
	.loc 10 184 9 is_stmt 0 discriminator 7 view .LVU3447
	cmp	r0, #0
	.loc 10 184 9 discriminator 7 view .LVU3448
	bne	.L501
	.loc 10 184 25 is_stmt 1 discriminator 10 view .LVU3449
.LDL119:
	.loc 10 184 17 discriminator 10 view .LVU3450
	.loc 10 184 7 discriminator 10 view .LVU3451
.LVL902:
	.loc 10 184 7 discriminator 10 view .LVU3452
	.loc 10 184 22 is_stmt 0 discriminator 10 view .LVU3453
	ldr	r2, [r4, #52]
	mov	r3, #184
	ldr	r1, [r4, #48]
	mov	r0, r9
.LVL903:
	.loc 10 184 22 discriminator 10 view .LVU3454
	str	r6, [sp]
	bl	fb_ArrayBoundChk
.LVL904:
	.loc 10 184 7 is_stmt 1 discriminator 10 view .LVU3455
	.loc 10 184 9 is_stmt 0 discriminator 10 view .LVU3456
	cmp	r0, #0
	.loc 10 184 9 discriminator 10 view .LVU3457
	bne	.L501
	.loc 10 184 25 is_stmt 1 discriminator 13 view .LVU3458
.LDL120:
	.loc 10 184 17 discriminator 13 view .LVU3459
	.loc 10 184 7 discriminator 13 view .LVU3460
	.loc 10 184 17 is_stmt 0 discriminator 13 view .LVU3461
	ldr	r2, [sp, #12]
	.loc 10 184 22 discriminator 13 view .LVU3462
	mov	r1, #184
	.loc 10 184 17 discriminator 13 view .LVU3463
	ldr	r3, [r4, #24]
	ldr	r3, [r3, r2]
.LVL905:
	.loc 10 184 7 is_stmt 1 discriminator 13 view .LVU3464
	.loc 10 184 22 is_stmt 0 discriminator 13 view .LVU3465
	mov	r2, r6
	str	r3, [sp, #20]
	mov	r0, r3
.LVL906:
	.loc 10 184 22 discriminator 13 view .LVU3466
	bl	fb_NullPtrChk
.LVL907:
	.loc 10 184 7 is_stmt 1 discriminator 13 view .LVU3467
	.loc 10 184 9 is_stmt 0 discriminator 13 view .LVU3468
	cmp	r0, #0
	.loc 10 184 9 discriminator 13 view .LVU3469
	bne	.L501
	.loc 10 184 25 is_stmt 1 discriminator 16 view .LVU3470
.LDL121:
	.loc 10 184 17 discriminator 16 view .LVU3471
	.loc 10 184 7 discriminator 16 view .LVU3472
	.loc 10 184 9 is_stmt 0 discriminator 16 view .LVU3473
	ldr	r3, [sp, #20]
	.loc 10 184 47 discriminator 16 view .LVU3474
	ldr	r1, [r10, #32]
	ldr	r2, [r8, #68]
	add	r2, r2, r1
	.loc 10 184 9 discriminator 16 view .LVU3475
	ldr	r1, [r3, #32]
	.loc 10 184 84 discriminator 16 view .LVU3476
	add	r3, r2, #8
	.loc 10 189 22 discriminator 16 view .LVU3477
	str	r6, [sp]
	.loc 10 184 9 discriminator 16 view .LVU3478
	cmp	r3, r1
	.loc 10 189 22 discriminator 16 view .LVU3479
	ldr	r2, [r4, #820]
	ldr	r1, [r4, #816]
	.loc 10 184 9 discriminator 16 view .LVU3480
	blt	.L825
.LBB45:
	.loc 10 184 8 is_stmt 1 discriminator 20 view .LVU3481
	.loc 10 184 8 discriminator 20 view .LVU3482
	.loc 10 185 8 discriminator 20 view .LVU3483
.LVL908:
	.loc 10 185 8 discriminator 20 view .LVU3484
	.loc 10 185 23 is_stmt 0 discriminator 20 view .LVU3485
	mov	r3, #185
	mov	r0, r5
.LVL909:
	.loc 10 185 23 discriminator 20 view .LVU3486
	bl	fb_ArrayBoundChk
.LVL910:
	.loc 10 185 8 is_stmt 1 discriminator 20 view .LVU3487
	.loc 10 185 10 is_stmt 0 discriminator 20 view .LVU3488
	cmp	r0, #0
	.loc 10 185 10 discriminator 20 view .LVU3489
	bne	.L501
	.loc 10 185 26 is_stmt 1 discriminator 1 view .LVU3490
.LDL122:
	.loc 10 185 18 discriminator 1 view .LVU3491
	.loc 10 185 8 discriminator 1 view .LVU3492
	.loc 10 185 18 is_stmt 0 discriminator 1 view .LVU3493
	ldr	r3, [r4, #792]
	.loc 10 185 23 discriminator 1 view .LVU3494
	mov	r2, r6
	mov	r1, #185
	.loc 10 185 18 discriminator 1 view .LVU3495
	ldr	r7, [r3, r7]
.LVL911:
	.loc 10 185 8 is_stmt 1 discriminator 1 view .LVU3496
	.loc 10 185 23 is_stmt 0 discriminator 1 view .LVU3497
	mov	r0, r7
.LVL912:
	.loc 10 185 23 discriminator 1 view .LVU3498
	bl	fb_NullPtrChk
.LVL913:
	.loc 10 185 8 is_stmt 1 discriminator 1 view .LVU3499
	.loc 10 185 10 is_stmt 0 discriminator 1 view .LVU3500
	cmp	r0, #0
	.loc 10 185 10 discriminator 1 view .LVU3501
	bne	.L501
.LVL914:
.L795:
	.loc 10 185 10 discriminator 1 view .LVU3502
.LBE45:
.LBB46:
	.loc 10 190 26 is_stmt 1 discriminator 4 view .LVU3503
.LDL123:
	.loc 10 190 18 discriminator 4 view .LVU3504
	.loc 10 190 8 discriminator 4 view .LVU3505
	.loc 10 190 44 is_stmt 0 discriminator 4 view .LVU3506
	strb	r0, [r7, #92]
	.loc 10 191 8 is_stmt 1 discriminator 4 view .LVU3507
	b	.L524
.LVL915:
.L823:
	.loc 10 191 8 is_stmt 0 discriminator 4 view .LVU3508
.LBE46:
.LBE44:
.LBE49:
.LBE42:
.LBB51:
.LBB40:
.LBB36:
	.loc 10 164 127 is_stmt 1 discriminator 19 view .LVU3509
.LDL124:
.LDL125:
	.loc 10 167 17 discriminator 19 view .LVU3510
	.loc 10 167 17 discriminator 19 view .LVU3511
	.loc 10 169 7 discriminator 19 view .LVU3512
	.loc 10 169 7 discriminator 19 view .LVU3513
	.loc 10 169 21 is_stmt 0 discriminator 19 view .LVU3514
	mov	r3, #169
	mov	r0, r5
.LVL916:
	.loc 10 169 21 discriminator 19 view .LVU3515
	bl	fb_ArrayBoundChk
.LVL917:
	.loc 10 169 7 is_stmt 1 discriminator 19 view .LVU3516
	.loc 10 169 9 is_stmt 0 discriminator 19 view .LVU3517
	cmp	r0, #0
	.loc 10 169 9 discriminator 19 view .LVU3518
	bne	.L826
	.loc 10 169 24 is_stmt 1 discriminator 1 view .LVU3519
.LDL126:
	.loc 10 169 17 discriminator 1 view .LVU3520
	.loc 10 169 7 discriminator 1 view .LVU3521
	.loc 10 169 17 is_stmt 0 discriminator 1 view .LVU3522
	ldr	r3, [r4, #664]
	.loc 10 169 21 discriminator 1 view .LVU3523
	mov	r2, r6
	mov	r1, #169
	.loc 10 169 17 discriminator 1 view .LVU3524
	ldr	r10, [r3, r7]
.LVL918:
	.loc 10 169 7 is_stmt 1 discriminator 1 view .LVU3525
	.loc 10 169 21 is_stmt 0 discriminator 1 view .LVU3526
	mov	r0, r10
.LVL919:
	.loc 10 169 21 discriminator 1 view .LVU3527
	bl	fb_NullPtrChk
.LVL920:
	.loc 10 169 7 is_stmt 1 discriminator 1 view .LVU3528
	.loc 10 169 9 is_stmt 0 discriminator 1 view .LVU3529
	cmp	r0, #0
	.loc 10 169 9 discriminator 1 view .LVU3530
	bne	.L501
	.loc 10 169 24 is_stmt 1 discriminator 4 view .LVU3531
.LDL127:
	.loc 10 169 17 discriminator 4 view .LVU3532
	.loc 10 169 7 discriminator 4 view .LVU3533
.LVL921:
	.loc 10 169 7 discriminator 4 view .LVU3534
	.loc 10 169 21 is_stmt 0 discriminator 4 view .LVU3535
	ldr	r2, [r4, #692]
	mov	r3, #169
	ldr	r1, [r4, #688]
	mov	r0, r5
.LVL922:
	.loc 10 169 21 discriminator 4 view .LVU3536
	str	r6, [sp]
	bl	fb_ArrayBoundChk
.LVL923:
	.loc 10 169 7 is_stmt 1 discriminator 4 view .LVU3537
	.loc 10 169 9 is_stmt 0 discriminator 4 view .LVU3538
	cmp	r0, #0
	.loc 10 169 9 discriminator 4 view .LVU3539
	bne	.L501
	.loc 10 169 24 is_stmt 1 discriminator 7 view .LVU3540
.LDL128:
	.loc 10 169 17 discriminator 7 view .LVU3541
	.loc 10 169 7 discriminator 7 view .LVU3542
	.loc 10 169 17 is_stmt 0 discriminator 7 view .LVU3543
	ldr	r3, [r4, #664]
	.loc 10 169 21 discriminator 7 view .LVU3544
	mov	r2, r6
	mov	r1, #169
	.loc 10 169 17 discriminator 7 view .LVU3545
	ldr	fp, [r3, r7]
.LVL924:
	.loc 10 169 7 is_stmt 1 discriminator 7 view .LVU3546
	.loc 10 169 21 is_stmt 0 discriminator 7 view .LVU3547
	mov	r0, fp
.LVL925:
	.loc 10 169 21 discriminator 7 view .LVU3548
	bl	fb_NullPtrChk
.LVL926:
	.loc 10 169 7 is_stmt 1 discriminator 7 view .LVU3549
	.loc 10 169 9 is_stmt 0 discriminator 7 view .LVU3550
	cmp	r0, #0
	.loc 10 169 9 discriminator 7 view .LVU3551
	bne	.L501
	.loc 10 169 24 is_stmt 1 discriminator 10 view .LVU3552
.LDL129:
	.loc 10 169 17 discriminator 10 view .LVU3553
	.loc 10 169 7 discriminator 10 view .LVU3554
.LVL927:
	.loc 10 169 7 discriminator 10 view .LVU3555
	.loc 10 169 21 is_stmt 0 discriminator 10 view .LVU3556
	ldr	r2, [r4, #52]
	mov	r3, #169
	ldr	r1, [r4, #48]
	mov	r0, r9
.LVL928:
	.loc 10 169 21 discriminator 10 view .LVU3557
	str	r6, [sp]
	bl	fb_ArrayBoundChk
.LVL929:
	.loc 10 169 7 is_stmt 1 discriminator 10 view .LVU3558
	.loc 10 169 9 is_stmt 0 discriminator 10 view .LVU3559
	cmp	r0, #0
	.loc 10 169 9 discriminator 10 view .LVU3560
	bne	.L501
	.loc 10 169 24 is_stmt 1 discriminator 13 view .LVU3561
.LDL130:
	.loc 10 169 17 discriminator 13 view .LVU3562
	.loc 10 169 7 discriminator 13 view .LVU3563
	.loc 10 169 17 is_stmt 0 discriminator 13 view .LVU3564
	ldr	r2, [sp, #12]
	.loc 10 169 21 discriminator 13 view .LVU3565
	mov	r1, #169
	.loc 10 169 17 discriminator 13 view .LVU3566
	ldr	r3, [r4, #24]
	ldr	r3, [r3, r2]
.LVL930:
	.loc 10 169 7 is_stmt 1 discriminator 13 view .LVU3567
	.loc 10 169 21 is_stmt 0 discriminator 13 view .LVU3568
	mov	r2, r6
	str	r3, [sp, #20]
.LVL931:
	.loc 10 169 21 discriminator 13 view .LVU3569
	mov	r0, r3
.LVL932:
	.loc 10 169 21 discriminator 13 view .LVU3570
	bl	fb_NullPtrChk
.LVL933:
	.loc 10 169 7 is_stmt 1 discriminator 13 view .LVU3571
	.loc 10 169 9 is_stmt 0 discriminator 13 view .LVU3572
	cmp	r0, #0
	.loc 10 169 9 discriminator 13 view .LVU3573
	bne	.L501
	.loc 10 169 24 is_stmt 1 discriminator 16 view .LVU3574
.LDL131:
	.loc 10 169 17 discriminator 16 view .LVU3575
	.loc 10 169 7 discriminator 16 view .LVU3576
	.loc 10 169 9 is_stmt 0 discriminator 16 view .LVU3577
	ldr	r3, [sp, #20]
	.loc 10 169 47 discriminator 16 view .LVU3578
	ldr	r1, [fp, #36]
	ldr	r2, [r10, #72]
	add	r2, r2, r1
	.loc 10 169 9 discriminator 16 view .LVU3579
	ldr	r1, [r3, #36]
	.loc 10 169 84 discriminator 16 view .LVU3580
	add	r3, r2, #29
	.loc 10 173 22 discriminator 16 view .LVU3581
	str	r6, [sp]
	.loc 10 169 9 discriminator 16 view .LVU3582
	cmp	r3, r1
	blt	.L827
.LBB34:
	.loc 10 169 8 is_stmt 1 discriminator 20 view .LVU3583
	.loc 10 169 8 discriminator 20 view .LVU3584
	.loc 10 170 8 discriminator 20 view .LVU3585
.LVL934:
	.loc 10 170 8 discriminator 20 view .LVU3586
	.loc 10 170 22 is_stmt 0 discriminator 20 view .LVU3587
	ldr	r2, [r4, #692]
	mov	r3, #170
	ldr	r1, [r4, #688]
	mov	r0, r5
.LVL935:
	.loc 10 170 22 discriminator 20 view .LVU3588
	bl	fb_ArrayBoundChk
.LVL936:
	.loc 10 170 8 is_stmt 1 discriminator 20 view .LVU3589
	.loc 10 170 10 is_stmt 0 discriminator 20 view .LVU3590
	cmp	r0, #0
	.loc 10 170 10 discriminator 20 view .LVU3591
	bne	.L501
	.loc 10 170 25 is_stmt 1 discriminator 1 view .LVU3592
.LDL132:
	.loc 10 170 18 discriminator 1 view .LVU3593
	.loc 10 170 8 discriminator 1 view .LVU3594
	.loc 10 170 18 is_stmt 0 discriminator 1 view .LVU3595
	ldr	r3, [r4, #664]
	.loc 10 170 22 discriminator 1 view .LVU3596
	mov	r2, r6
	mov	r1, #170
	.loc 10 170 18 discriminator 1 view .LVU3597
	ldr	r7, [r3, r7]
.LVL937:
	.loc 10 170 8 is_stmt 1 discriminator 1 view .LVU3598
	.loc 10 170 22 is_stmt 0 discriminator 1 view .LVU3599
	mov	r0, r7
.LVL938:
	.loc 10 170 22 discriminator 1 view .LVU3600
	bl	fb_NullPtrChk
.LVL939:
	.loc 10 170 8 is_stmt 1 discriminator 1 view .LVU3601
	.loc 10 170 10 is_stmt 0 discriminator 1 view .LVU3602
	cmp	r0, #0
	.loc 10 170 10 discriminator 1 view .LVU3603
	beq	.L794
.LVL940:
.L501:
	.loc 10 170 10 discriminator 1 view .LVU3604
	mov	pc, r0	@ indirect register jump
.LVL941:
.L575:
.L577:
	.loc 10 170 10 discriminator 1 view .LVU3605
.LBE34:
.LBE36:
.LBE40:
.LBE51:
.LBE94:
.LBE96:
	.loc 10 288 12 is_stmt 1 discriminator 4 view .LVU3606
	.loc 10 289 12 discriminator 4 view .LVU3607
	.loc 10 289 2 discriminator 4 view .LVU3608
	ldr	r0, [sp, #28]
	bl	fb_ErrorSetFuncName
.LVL942:
	.loc 10 289 2 discriminator 4 view .LVU3609
	ldr	r0, [sp, #24]
	.loc 10 289 1 is_stmt 0 discriminator 4 view .LVU3610
	add	sp, sp, #36
	.cfi_remember_state
	.cfi_def_cfa_offset 36
	@ sp needed
	pop	{r4, r5, r6, r7, r8, r9, r10, fp, lr}
	.cfi_restore 14
	.cfi_restore 11
	.cfi_restore 10
	.cfi_restore 9
	.cfi_restore 8
	.cfi_restore 7
	.cfi_restore 6
	.cfi_restore 5
	.cfi_restore 4
	.cfi_def_cfa_offset 0
	.loc 10 289 2 discriminator 4 view .LVU3611
	b	fb_ErrorSetModName
.LVL943:
.L822:
	.cfi_restore_state
	.loc 10 289 2 discriminator 4 view .LVU3612
	mov	pc, r0	@ indirect register jump
.LVL944:
.L827:
.LBB97:
.LBB95:
.LBB52:
.LBB41:
.LBB37:
	.loc 10 169 128 is_stmt 1 discriminator 19 view .LVU3613
.LDL133:
.LDL134:
	.loc 10 172 17 discriminator 19 view .LVU3614
	.loc 10 172 17 discriminator 19 view .LVU3615
	.loc 10 173 7 discriminator 19 view .LVU3616
	.loc 10 173 7 discriminator 19 view .LVU3617
	.loc 10 173 22 is_stmt 0 discriminator 19 view .LVU3618
	ldr	r2, [r4, #52]
	mov	r3, #173
	ldr	r1, [r4, #48]
	mov	r0, r9
.LVL945:
	.loc 10 173 22 discriminator 19 view .LVU3619
	bl	fb_ArrayBoundChk
.LVL946:
	.loc 10 173 7 is_stmt 1 discriminator 19 view .LVU3620
	.loc 10 173 9 is_stmt 0 discriminator 19 view .LVU3621
	cmp	r0, #0
	.loc 10 173 9 discriminator 19 view .LVU3622
	bne	.L828
	.loc 10 173 25 is_stmt 1 discriminator 1 view .LVU3623
.LDL135:
	.loc 10 173 17 discriminator 1 view .LVU3624
	.loc 10 173 7 discriminator 1 view .LVU3625
	.loc 10 173 17 is_stmt 0 discriminator 1 view .LVU3626
	ldr	r2, [sp, #12]
	.loc 10 173 22 discriminator 1 view .LVU3627
	mov	r1, #173
	.loc 10 173 17 discriminator 1 view .LVU3628
	ldr	r3, [r4, #24]
	ldr	fp, [r3, r2]
.LVL947:
	.loc 10 173 7 is_stmt 1 discriminator 1 view .LVU3629
	.loc 10 173 22 is_stmt 0 discriminator 1 view .LVU3630
	mov	r2, r6
	mov	r0, fp
.LVL948:
	.loc 10 173 22 discriminator 1 view .LVU3631
	bl	fb_NullPtrChk
.LVL949:
	.loc 10 173 7 is_stmt 1 discriminator 1 view .LVU3632
	.loc 10 173 9 is_stmt 0 discriminator 1 view .LVU3633
	cmp	r0, #0
	.loc 10 173 9 discriminator 1 view .LVU3634
	bne	.L501
	.loc 10 173 25 is_stmt 1 discriminator 4 view .LVU3635
.LDL136:
	.loc 10 173 17 discriminator 4 view .LVU3636
	.loc 10 173 7 discriminator 4 view .LVU3637
.LVL950:
	.loc 10 173 7 discriminator 4 view .LVU3638
	.loc 10 173 22 is_stmt 0 discriminator 4 view .LVU3639
	ldr	r2, [r4, #692]
	mov	r3, #173
	ldr	r1, [r4, #688]
	mov	r0, r5
.LVL951:
	.loc 10 173 22 discriminator 4 view .LVU3640
	str	r6, [sp]
	bl	fb_ArrayBoundChk
