	.arch armv7-a
	.eabi_attribute 28, 1
	.eabi_attribute 19, 1
	.eabi_attribute 20, 1
	.eabi_attribute 21, 1
	.eabi_attribute 23, 3
	.eabi_attribute 24, 1
	.eabi_attribute 25, 1
	.eabi_attribute 26, 2
	.eabi_attribute 30, 2
	.eabi_attribute 34, 1
	.eabi_attribute 18, 4
	.file	"PNG.c"
	.text
.Ltext0:
	.cfi_sections	.debug_frame
	.section	.rodata.str1.4,"aMS",%progbits,1
	.align	2
.LC0:
	.ascii	"OS2.2/Cpcdos/FBGUI/PNG.BAS\000"
	.align	2
.LC1:
	.ascii	"LIBPNG_ERROR_CALLBACK\000"
	.align	2
.LC2:
	.ascii	"libpng failed to load the image (\000"
	.align	2
.LC3:
	.ascii	")\000"
	.text
	.align	2
	.arch armv7-a
	.syntax unified
	.arm
	.fpu vfp
	.type	LIBPNG_ERROR_CALLBACK, %function
LIBPNG_ERROR_CALLBACK:
.LVL0:
.LFB2:
	.file 1 "OS2.2/Cpcdos/FBGUI/PNG.BAS"
	.loc 1 16 1 view -0
	.cfi_startproc
	@ args = 0, pretend = 0, frame = 32
	@ frame_needed = 0, uses_anonymous_args = 0
.L2:
	.loc 1 16 2 view .LVU1
	.loc 1 16 2 view .LVU2
	.loc 1 16 2 view .LVU3
	.loc 1 16 2 view .LVU4
	.loc 1 16 2 view .LVU5
	.loc 1 16 10 view .LVU6
	.loc 1 16 2 view .LVU7
	.loc 1 16 1 is_stmt 0 view .LVU8
	push	{r4, r5, r6, lr}
	.cfi_def_cfa_offset 16
	.cfi_offset 4, -16
	.cfi_offset 5, -12
	.cfi_offset 6, -8
	.cfi_offset 14, -4
	.loc 1 16 16 view .LVU9
	movw	r0, #:lower16:.LC0
.LVL1:
	.loc 1 16 16 view .LVU10
	movt	r0, #:upper16:.LC0
	.loc 1 16 1 view .LVU11
	sub	sp, sp, #40
	.cfi_def_cfa_offset 56
	.loc 1 18 2 view .LVU12
	mov	r4, #0
	.loc 1 16 1 view .LVU13
	str	r1, [sp, #12]
	.loc 1 16 16 view .LVU14
	bl	fb_ErrorSetModName
.LVL2:
	.loc 1 16 16 view .LVU15
	mov	r5, r0
	.loc 1 16 16 view .LVU16
	movw	r0, #:lower16:.LC1
	movt	r0, #:upper16:.LC1
.LVL3:
	.loc 1 16 2 is_stmt 1 view .LVU17
	.loc 1 16 2 view .LVU18
	.loc 1 16 16 is_stmt 0 view .LVU19
	bl	fb_ErrorSetFuncName
.LVL4:
	.loc 1 18 19 view .LVU20
	ldr	r3, [sp, #12]
	.loc 1 16 16 view .LVU21
	mov	r6, r0
.LVL5:
	.loc 1 16 2 is_stmt 1 view .LVU22
	.loc 1 18 2 view .LVU23
	.loc 1 18 19 is_stmt 0 view .LVU24
	mov	r2, #34
	add	r0, sp, #16
	str	r4, [sp]
	movw	r1, #:lower16:.LC2
	movt	r1, #:upper16:.LC2
	.loc 1 18 2 view .LVU25
	str	r4, [sp, #16]
	str	r4, [sp, #20]
	str	r4, [sp, #24]
	.loc 1 18 2 is_stmt 1 view .LVU26
	.loc 1 18 19 is_stmt 0 view .LVU27
	bl	fb_StrConcat
.LVL6:
	.loc 1 18 19 view .LVU28
	mov	r3, #2
	.loc 1 18 19 view .LVU29
	mov	r1, r0
.LVL7:
	.loc 1 18 2 is_stmt 1 view .LVU30
	.loc 1 18 19 is_stmt 0 view .LVU31
	str	r3, [sp]
	add	r0, sp, #28
	mvn	r2, #0
	movw	r3, #:lower16:.LC3
	movt	r3, #:upper16:.LC3
	.loc 1 18 2 view .LVU32
	str	r4, [sp, #28]
	str	r4, [sp, #32]
	str	r4, [sp, #36]
	.loc 1 18 2 is_stmt 1 view .LVU33
	.loc 1 18 19 is_stmt 0 view .LVU34
	bl	fb_StrConcat
.LVL8:
	.loc 1 18 2 view .LVU35
	mov	r2, #1
	.loc 1 18 19 view .LVU36
	mov	r1, r0
.LVL9:
	.loc 1 18 2 is_stmt 1 view .LVU37
	mov	r0, r4
.LVL10:
	.loc 1 18 2 is_stmt 0 view .LVU38
	bl	fb_PrintString
.LVL11:
	.loc 1 19 2 is_stmt 1 view .LVU39
	mov	r0, #1
	bl	fb_End
.LVL12:
.LDL1:
	.loc 1 21 10 view .LVU40
	.loc 1 21 2 view .LVU41
	mov	r0, r6
	bl	fb_ErrorSetFuncName
.LVL13:
	.loc 1 21 2 view .LVU42
	mov	r0, r5
	bl	fb_ErrorSetModName
.LVL14:
	.loc 1 21 1 is_stmt 0 view .LVU43
	add	sp, sp, #40
	.cfi_def_cfa_offset 16
	@ sp needed
	pop	{r4, r5, r6, pc}
	.loc 1 21 1 view .LVU44
	.cfi_endproc
.LFE2:
	.size	LIBPNG_ERROR_CALLBACK, .-LIBPNG_ERROR_CALLBACK
	.section	.rodata.str1.4
	.align	2
.LC4:
	.ascii	"CHARGER_PNG\000"
	.align	2
.LC5:
	.ascii	"rb\000"
	.align	2
.LC6:
	.ascii	"\000"
	.align	2
.LC7:
	.ascii	"ERROR\000"
	.align	2
.LC8:
	.ascii	"1.6.18\000"
	.text
	.align	2
	.global	CHARGER_PNG
	.syntax unified
	.arm
	.fpu vfp
	.type	CHARGER_PNG, %function
CHARGER_PNG:
.LVL15:
.LFB0:
	.loc 1 23 1 is_stmt 1 view -0
	.cfi_startproc
	@ args = 4, pretend = 0, frame = 88
	@ frame_needed = 0, uses_anonymous_args = 0
	.loc 1 23 2 view .LVU46
	.loc 1 23 2 view .LVU47
	.loc 1 23 2 view .LVU48
	.loc 1 23 2 view .LVU49
	.loc 1 23 2 view .LVU50
	.loc 1 23 1 is_stmt 0 view .LVU51
	push	{r4, r5, r6, r7, r8, r9, r10, fp, lr}
	.cfi_def_cfa_offset 36
	.cfi_offset 4, -36
	.cfi_offset 5, -32
	.cfi_offset 6, -28
	.cfi_offset 7, -24
	.cfi_offset 8, -20
	.cfi_offset 9, -16
	.cfi_offset 10, -12
	.cfi_offset 11, -8
	.cfi_offset 14, -4
	mov	r5, r0
	.loc 1 23 16 view .LVU52
	movw	r0, #:lower16:.LC0
.LVL16:
	.loc 1 23 16 view .LVU53
	movt	r0, #:upper16:.LC0
	.loc 1 23 1 view .LVU54
	vpush.64	{d8}
	.cfi_def_cfa_offset 44
	.cfi_offset 80, -44
	.cfi_offset 81, -40
	sub	sp, sp, #100
	.cfi_def_cfa_offset 144
	.loc 1 23 1 view .LVU55
	mov	r9, r1
	mov	r4, r3
	.loc 1 23 16 view .LVU56
	bl	fb_ErrorSetModName
.LVL17:
	.loc 1 23 16 view .LVU57
	mov	r3, r0
	.loc 1 23 16 view .LVU58
	movw	r0, #:lower16:.LC4
	movt	r0, #:upper16:.LC4
	.loc 1 23 16 view .LVU59
	vmov	s16, r3	@ int
.LVL18:
	.loc 1 23 2 is_stmt 1 view .LVU60
	.loc 1 23 2 view .LVU61
	.loc 1 23 16 is_stmt 0 view .LVU62
	bl	fb_ErrorSetFuncName
.LVL19:
	.loc 1 26 15 view .LVU63
	movw	r1, #:lower16:.LC5
	movt	r1, #:upper16:.LC5
	.loc 1 23 16 view .LVU64
	mov	fp, r0
	.loc 1 26 15 view .LVU65
	ldr	r0, [r5]
	.loc 1 24 2 view .LVU66
	mov	r7, #0
	str	r7, [sp, #52]
	.loc 1 23 16 view .LVU67
	vmov	s17, fp	@ int
.LVL20:
	.loc 1 23 2 is_stmt 1 view .LVU68
.LDL2:
	.loc 1 23 10 view .LVU69
	.loc 1 24 2 view .LVU70
	.loc 1 24 2 view .LVU71
	str	r7, [sp, #56]
	.loc 1 25 2 view .LVU72
	.loc 1 24 2 view .LVU73
	.loc 1 24 2 view .LVU74
	.loc 1 24 2 view .LVU75
.LVL21:
	.loc 1 24 2 view .LVU76
	.loc 1 24 2 view .LVU77
	.loc 1 24 2 view .LVU78
	.loc 1 24 2 view .LVU79
	.loc 1 24 2 view .LVU80
	.loc 1 24 2 view .LVU81
	.loc 1 24 2 view .LVU82
	.loc 1 26 2 view .LVU83
	.loc 1 26 2 view .LVU84
	.loc 1 26 15 is_stmt 0 view .LVU85
	bl	fopen
.LVL22:
	.loc 1 42 20 view .LVU86
	mov	r3, #1
	.loc 1 26 15 view .LVU87
	mov	r10, r0
.LVL23:
	.loc 1 26 2 is_stmt 1 view .LVU88
	.loc 1 29 2 view .LVU89
	.loc 1 29 2 view .LVU90
	.loc 1 29 2 view .LVU91
	.loc 1 29 2 view .LVU92
	.loc 1 29 2 view .LVU93
	.loc 1 29 2 view .LVU94
	.loc 1 29 2 view .LVU95
	.loc 1 29 2 view .LVU96
	.loc 1 29 2 view .LVU97
	.loc 1 29 2 view .LVU98
	.loc 1 31 2 view .LVU99
	.loc 1 31 2 view .LVU100
	.loc 1 32 2 view .LVU101
	.loc 1 32 2 view .LVU102
	.loc 1 33 2 view .LVU103
	.loc 1 33 2 view .LVU104
	.loc 1 34 2 view .LVU105
	.loc 1 34 2 view .LVU106
	.loc 1 35 2 view .LVU107
	.loc 1 35 2 view .LVU108
	.loc 1 36 2 view .LVU109
	.loc 1 36 2 view .LVU110
	.loc 1 37 2 view .LVU111
	.loc 1 37 2 view .LVU112
	.loc 1 38 2 view .LVU113
	.loc 1 38 2 view .LVU114
	.loc 1 39 2 view .LVU115
	.loc 1 39 2 view .LVU116
	.loc 1 42 20 is_stmt 0 view .LVU117
	str	r7, [sp]
	add	r0, sp, #84
	movw	r2, #:lower16:.LC6
	movt	r2, #:upper16:.LC6
	mvn	r1, #0
	.loc 1 39 2 view .LVU118
	str	r7, [sp, #60]
	str	r7, [sp, #64]
	str	r7, [sp, #68]
	.loc 1 40 2 is_stmt 1 view .LVU119
	.loc 1 40 2 view .LVU120
	str	r7, [sp, #72]
	str	r7, [sp, #76]
	str	r7, [sp, #80]
	.loc 1 42 2 view .LVU121
	.loc 1 42 2 view .LVU122
	.loc 1 42 20 is_stmt 0 view .LVU123
	bl	fb_StrInit
.LVL24:
	.loc 1 43 2 is_stmt 1 view .LVU124
	.loc 1 43 2 view .LVU125
	.loc 1 49 2 view .LVU126
	.loc 1 49 4 is_stmt 0 view .LVU127
	cmp	r10, r7
	beq	.L6
	.loc 1 49 34 is_stmt 1 discriminator 1 view .LVU128
.LDL3:
.LDL4:
	.loc 1 53 10 discriminator 1 view .LVU129
	.loc 1 53 10 discriminator 1 view .LVU130
	.loc 1 55 2 discriminator 1 view .LVU131
	.loc 1 55 17 is_stmt 0 discriminator 1 view .LVU132
	mov	r3, r10
	mov	r2, #8
	mov	r1, #1
	add	r0, sp, #52
	bl	fread
.LVL25:
	mov	r5, r0
.LVL26:
	.loc 1 55 2 is_stmt 1 discriminator 1 view .LVU133
	.loc 1 55 4 is_stmt 0 discriminator 1 view .LVU134
	cmp	r0, #8
	bne	.L199
	.loc 1 55 20 is_stmt 1 discriminator 1 view .LVU135
.LDL5:
.LDL6:
	.loc 1 58 10 discriminator 1 view .LVU136
	.loc 1 58 10 discriminator 1 view .LVU137
	.loc 1 60 2 discriminator 1 view .LVU138
	.loc 1 60 16 is_stmt 0 discriminator 1 view .LVU139
	add	r0, sp, #52
	mov	r2, r5
	mov	r1, r7
	bl	png_sig_cmp
.LVL27:
	.loc 1 60 2 is_stmt 1 discriminator 1 view .LVU140
	.loc 1 60 4 is_stmt 0 discriminator 1 view .LVU141
	subs	r6, r0, #0
	bne	.L199
	.loc 1 60 19 is_stmt 1 discriminator 1 view .LVU142
.LDL7:
.LDL8:
	.loc 1 63 11 discriminator 1 view .LVU143
	.loc 1 63 11 discriminator 1 view .LVU144
	.loc 1 65 2 discriminator 1 view .LVU145
	.loc 1 65 2 discriminator 1 view .LVU146
	.loc 1 65 16 is_stmt 0 discriminator 1 view .LVU147
	mov	r3, r6
	mov	r1, r6
	movw	r2, #:lower16:LIBPNG_ERROR_CALLBACK
	movt	r2, #:upper16:LIBPNG_ERROR_CALLBACK
	movw	r0, #:lower16:.LC8
.LVL28:
	.loc 1 65 16 discriminator 1 view .LVU148
	movt	r0, #:upper16:.LC8
	bl	png_create_read_struct
.LVL29:
	.loc 1 65 16 discriminator 1 view .LVU149
	mov	r7, r0
.LVL30:
	.loc 1 65 2 is_stmt 1 discriminator 1 view .LVU150
	.loc 1 66 4 is_stmt 0 discriminator 1 view .LVU151
	cmp	r0, #0
	.loc 1 65 8 discriminator 1 view .LVU152
	str	r0, [sp, #44]
	.loc 1 66 2 is_stmt 1 discriminator 1 view .LVU153
	.loc 1 66 4 is_stmt 0 discriminator 1 view .LVU154
	beq	.L199
	.loc 1 66 27 is_stmt 1 discriminator 1 view .LVU155
.LDL9:
.LDL10:
	.loc 1 69 11 discriminator 1 view .LVU156
	.loc 1 69 11 discriminator 1 view .LVU157
	.loc 1 71 2 discriminator 1 view .LVU158
	.loc 1 71 2 discriminator 1 view .LVU159
	.loc 1 71 16 is_stmt 0 discriminator 1 view .LVU160
	bl	png_create_info_struct
.LVL31:
	.loc 1 71 16 discriminator 1 view .LVU161
	mov	r7, r0
.LVL32:
	.loc 1 71 2 is_stmt 1 discriminator 1 view .LVU162
	.loc 1 72 4 is_stmt 0 discriminator 1 view .LVU163
	cmp	r0, #0
	.loc 1 71 9 discriminator 1 view .LVU164
	str	r0, [sp, #48]
	.loc 1 72 2 is_stmt 1 discriminator 1 view .LVU165
	.loc 1 72 4 is_stmt 0 discriminator 1 view .LVU166
	beq	.L199
	.loc 1 72 28 is_stmt 1 discriminator 1 view .LVU167
.LDL11:
.LDL12:
	.loc 1 75 11 discriminator 1 view .LVU168
	.loc 1 75 11 discriminator 1 view .LVU169
	.loc 1 78 2 discriminator 1 view .LVU170
	ldr	r0, [sp, #44]
.LVL33:
	.loc 1 78 2 is_stmt 0 discriminator 1 view .LVU171
	mov	r1, r10
	bl	png_init_io
.LVL34:
	.loc 1 79 2 is_stmt 1 discriminator 1 view .LVU172
	ldr	r0, [sp, #44]
	mov	r1, r5
	bl	png_set_sig_bytes
.LVL35:
	.loc 1 81 2 discriminator 1 view .LVU173
	ldrd	r0, [sp, #44]
	bl	png_read_info
.LVL36:
	.loc 1 83 2 discriminator 1 view .LVU174
	.loc 1 83 2 discriminator 1 view .LVU175
	.loc 1 85 2 discriminator 1 view .LVU176
	.loc 1 85 17 is_stmt 0 discriminator 1 view .LVU177
	ldrd	r0, [sp, #44]
	bl	png_get_image_width
.LVL37:
	.loc 1 85 2 is_stmt 1 discriminator 1 view .LVU178
	.loc 1 85 13 is_stmt 0 discriminator 1 view .LVU179
	ldr	r3, [sp, #144]
	str	r0, [r3]
	.loc 1 86 2 is_stmt 1 discriminator 1 view .LVU180
	.loc 1 86 17 is_stmt 0 discriminator 1 view .LVU181
	ldrd	r0, [sp, #44]
.LVL38:
	.loc 1 86 17 discriminator 1 view .LVU182
	bl	png_get_image_height
.LVL39:
	.loc 1 86 2 is_stmt 1 discriminator 1 view .LVU183
	.loc 1 86 13 is_stmt 0 discriminator 1 view .LVU184
	str	r0, [r4]
	.loc 1 89 2 is_stmt 1 discriminator 1 view .LVU185
	.loc 1 89 16 is_stmt 0 discriminator 1 view .LVU186
	ldrd	r0, [sp, #44]
.LVL40:
	.loc 1 89 16 discriminator 1 view .LVU187
	bl	png_get_bit_depth
.LVL41:
	.loc 1 89 2 is_stmt 1 discriminator 1 view .LVU188
	.loc 1 90 2 discriminator 1 view .LVU189
	.loc 1 90 16 is_stmt 0 discriminator 1 view .LVU190
	ldrd	r0, [sp, #44]
	bl	png_get_channels
.LVL42:
	.loc 1 90 2 is_stmt 1 discriminator 1 view .LVU191
	.loc 1 91 2 discriminator 1 view .LVU192
	.loc 1 92 2 discriminator 1 view .LVU193
	.loc 1 92 16 is_stmt 0 discriminator 1 view .LVU194
	ldrd	r0, [sp, #44]
	bl	png_get_color_type
.LVL43:
	.loc 1 95 5 discriminator 1 view .LVU195
	and	r2, r0, #251
	.loc 1 92 16 discriminator 1 view .LVU196
	str	r0, [sp, #12]
.LVL44:
	.loc 1 92 2 is_stmt 1 discriminator 1 view .LVU197
	.loc 1 95 3 discriminator 1 view .LVU198
	.loc 1 95 28 discriminator 1 view .LVU199
.LDL13:
	.loc 1 97 12 discriminator 1 view .LVU200
	.loc 1 97 3 discriminator 1 view .LVU201
	.loc 1 99 5 is_stmt 0 discriminator 1 view .LVU202
	cmp	r0, #0
	cmpne	r2, #2
	.loc 1 95 5 discriminator 1 view .LVU203
	str	r2, [sp, #20]
	.loc 1 97 28 is_stmt 1 discriminator 1 view .LVU204
.LDL14:
	.loc 1 99 12 discriminator 1 view .LVU205
	.loc 1 99 3 discriminator 1 view .LVU206
	.loc 1 99 5 is_stmt 0 discriminator 1 view .LVU207
	movne	fp, #1
.LVL45:
	.loc 1 99 5 discriminator 1 view .LVU208
	moveq	fp, #0
	bne	.L238
.L17:
.L18:
.L19:
.L20:
	.loc 1 105 12 is_stmt 1 discriminator 1 view .LVU209
	.loc 1 105 12 discriminator 1 view .LVU210
	.loc 1 109 2 discriminator 1 view .LVU211
	.loc 1 109 16 is_stmt 0 discriminator 1 view .LVU212
	ldr	r0, [sp, #144]
.LVL46:
	.loc 1 109 16 discriminator 1 view .LVU213
	mov	r3, fp
	str	fp, [sp]
	mov	r2, #-16777216
	ldr	r1, [r4]
	ldr	r0, [r0]
	bl	fb_GfxImageCreate
.LVL47:
	mov	r7, r0
.LVL48:
	.loc 1 109 2 is_stmt 1 discriminator 1 view .LVU214
	.loc 1 111 2 discriminator 1 view .LVU215
	.loc 1 111 2 discriminator 1 view .LVU216
	.loc 1 113 2 is_stmt 0 discriminator 1 view .LVU217
	ldrd	r0, [sp, #44]
.LVL49:
	.loc 1 113 2 discriminator 1 view .LVU218
	bl	png_read_update_info
.LVL50:
	.loc 1 115 17 discriminator 1 view .LVU219
	ldrd	r0, [sp, #44]
	bl	png_get_rowbytes
.LVL51:
	.loc 1 118 16 discriminator 1 view .LVU220
	mov	r1, #1
	.loc 1 115 17 discriminator 1 view .LVU221
	mov	r8, r0
	str	r0, [sp, #32]
	.loc 1 118 16 discriminator 1 view .LVU222
	bl	calloc
.LVL52:
.LBB2:
	.loc 1 124 12 discriminator 1 view .LVU223
	ldr	r3, [r4]
.LBE2:
	.loc 1 118 16 discriminator 1 view .LVU224
	mov	r6, r0
.LVL53:
	.loc 1 111 8 discriminator 1 view .LVU225
	add	r4, r7, #32
.LVL54:
	.loc 1 113 2 is_stmt 1 discriminator 1 view .LVU226
	.loc 1 115 2 discriminator 1 view .LVU227
	.loc 1 115 2 discriminator 1 view .LVU228
	.loc 1 118 2 discriminator 1 view .LVU229
	.loc 1 118 2 discriminator 1 view .LVU230
	.loc 1 118 2 discriminator 1 view .LVU231
.LBB45:
	.loc 1 124 3 discriminator 1 view .LVU232
	.loc 1 124 3 discriminator 1 view .LVU233
	.loc 1 124 3 discriminator 1 view .LVU234
	.loc 1 124 3 discriminator 1 view .LVU235
	.loc 1 124 3 discriminator 1 view .LVU236
	.loc 1 219 12 discriminator 1 view .LVU237
	.loc 1 219 3 discriminator 1 view .LVU238
	.loc 1 219 5 is_stmt 0 discriminator 1 view .LVU239
	subs	r3, r3, #1
.LVL55:
	.loc 1 219 5 discriminator 1 view .LVU240
	str	r3, [sp, #16]
	bmi	.L21
	.loc 1 196 9 view .LVU241
	mov	r2, r9
	sub	r3, r9, #24
.LVL56:
	.loc 1 196 9 view .LVU242
	bic	r3, r3, #8
	str	r3, [sp, #28]
	.loc 1 179 9 view .LVU243
	mov	r3, r2
.LBB3:
	.loc 1 138 20 view .LVU244
	movw	r5, #:lower16:.LC0
.LVL57:
	.loc 1 138 20 view .LVU245
	movt	r5, #:upper16:.LC0
.LBE3:
	.loc 1 179 9 view .LVU246
	sub	r2, r2, #15
	str	r10, [sp, #36]
.LBB4:
.LBB5:
	.loc 1 145 18 view .LVU247
	sub	r9, r8, #1
.LVL58:
	.loc 1 145 18 view .LVU248
	mov	r10, r3
.LVL59:
	.loc 1 145 18 view .LVU249
.LBE5:
.LBE4:
	.loc 1 179 9 view .LVU250
	str	r2, [sp, #24]
	b	.L22
.L23:
.LVL60:
.L94:
	.loc 1 140 30 is_stmt 1 discriminator 2 view .LVU251
.LDL15:
	.loc 1 194 14 discriminator 2 view .LVU252
	.loc 1 194 5 discriminator 2 view .LVU253
	.loc 1 194 14 discriminator 2 view .LVU254
	.loc 1 196 7 discriminator 2 view .LVU255
	.loc 1 196 16 discriminator 2 view .LVU256
	.loc 1 196 7 discriminator 2 view .LVU257
	.loc 1 196 9 is_stmt 0 discriminator 2 view .LVU258
	ldr	r3, [sp, #28]
	cmp	r3, #0
	beq	.L239
.L95:
	.loc 1 196 26 is_stmt 1 discriminator 2 view .LVU259
.LDL16:
	.loc 1 201 16 discriminator 2 view .LVU260
	.loc 1 201 7 discriminator 2 view .LVU261
	.loc 1 201 16 discriminator 2 view .LVU262
	.loc 1 201 7 discriminator 2 view .LVU263
	.loc 1 201 9 is_stmt 0 discriminator 2 view .LVU264
	ldr	r3, [sp, #24]
	cmp	r3, #1
	bls	.L106
	.loc 1 201 26 is_stmt 1 discriminator 4 view .LVU265
.LDL17:
	.loc 1 214 16 discriminator 4 view .LVU266
	.loc 1 215 8 discriminator 4 view .LVU267
	ldr	r2, [sp, #32]
	mov	r1, r6
	mov	r0, r4
	bl	memcpy
.LVL61:
	.loc 1 216 8 discriminator 4 view .LVU268
.L27:
.L132:
.L133:
.L134:
.L135:
.L136:
.L137:
	.loc 1 217 16 view .LVU269
	.loc 1 217 16 view .LVU270
	.loc 1 218 14 view .LVU271
	.loc 1 218 14 view .LVU272
	.loc 1 219 12 view .LVU273
	.loc 1 219 3 view .LVU274
	.loc 1 219 5 is_stmt 0 view .LVU275
	ldr	r3, [sp, #16]
	.loc 1 219 7 view .LVU276
	add	fp, fp, #1
.LVL62:
.LDL18:
	.loc 1 219 12 is_stmt 1 view .LVU277
	.loc 1 219 3 view .LVU278
	.loc 1 219 5 is_stmt 0 view .LVU279
	cmp	r3, fp
	blt	.L195
.LVL63:
.L22:
	.loc 1 219 25 is_stmt 1 discriminator 2 view .LVU280
.LDL19:
	.loc 1 124 12 discriminator 2 view .LVU281
	.loc 1 127 4 discriminator 2 view .LVU282
	.loc 1 128 4 discriminator 2 view .LVU283
.LDL20:
.LDL21:
	.loc 1 130 13 discriminator 2 view .LVU284
	.loc 1 130 13 discriminator 2 view .LVU285
	.loc 1 132 4 discriminator 2 view .LVU286
	ldr	r0, [sp, #44]
	mov	r2, #0
	mov	r1, r6
	bl	png_read_row
.LVL64:
	.loc 1 136 5 discriminator 2 view .LVU287
	.loc 1 136 7 is_stmt 0 discriminator 2 view .LVU288
	ldr	r3, [sp, #12]
	cmp	r3, #2
	beq	.L240
	.loc 1 136 30 is_stmt 1 discriminator 1 view .LVU289
.LDL22:
	.loc 1 140 14 discriminator 1 view .LVU290
	.loc 1 140 5 discriminator 1 view .LVU291
	.loc 1 140 7 is_stmt 0 discriminator 1 view .LVU292
	ldr	r3, [sp, #20]
	cmp	r3, #2
	bne	.L94
.L24:
	.loc 1 140 14 is_stmt 1 discriminator 2 view .LVU293
	.loc 1 143 7 discriminator 2 view .LVU294
	.loc 1 143 9 is_stmt 0 discriminator 2 view .LVU295
	cmp	r10, #32
	beq	.L28
	.loc 1 143 26 is_stmt 1 discriminator 1 view .LVU296
.LDL23:
	.loc 1 162 16 discriminator 1 view .LVU297
	.loc 1 162 7 discriminator 1 view .LVU298
	.loc 1 162 9 is_stmt 0 discriminator 1 view .LVU299
	cmp	r10, #24
	beq	.L241
.L29:
	.loc 1 162 26 is_stmt 1 discriminator 2 view .LVU300
.LDL24:
	.loc 1 179 16 discriminator 2 view .LVU301
	.loc 1 179 7 discriminator 2 view .LVU302
	.loc 1 179 16 discriminator 2 view .LVU303
	.loc 1 179 7 discriminator 2 view .LVU304
	.loc 1 179 9 is_stmt 0 discriminator 2 view .LVU305
	ldr	r3, [sp, #24]
	cmp	r3, #1
	bhi	.L137
.L73:
	.loc 1 179 16 is_stmt 1 discriminator 5 view .LVU306
.LBB12:
	.loc 1 179 8 discriminator 5 view .LVU307
.LBB13:
	.loc 1 180 9 discriminator 5 view .LVU308
	.loc 1 180 9 discriminator 5 view .LVU309
.LVL65:
	.loc 1 180 9 discriminator 5 view .LVU310
	.loc 1 180 9 discriminator 5 view .LVU311
	.loc 1 180 9 discriminator 5 view .LVU312
	.loc 1 187 18 discriminator 5 view .LVU313
	.loc 1 187 9 discriminator 5 view .LVU314
	.loc 1 187 11 is_stmt 0 discriminator 5 view .LVU315
	cmp	r9, #0
	movge	r8, r6
	blt	.L75
.LVL66:
.L90:
	.loc 1 187 31 is_stmt 1 discriminator 2 view .LVU316
.LDL25:
	.loc 1 180 18 discriminator 2 view .LVU317
.LBB14:
	.loc 1 180 10 discriminator 2 view .LVU318
	.loc 1 180 10 discriminator 2 view .LVU319
	.loc 1 180 10 discriminator 2 view .LVU320
	.loc 1 180 10 discriminator 2 view .LVU321
	.loc 1 180 10 discriminator 2 view .LVU322
	.loc 1 180 10 discriminator 2 view .LVU323
	.loc 1 180 10 discriminator 2 view .LVU324
	.loc 1 180 10 discriminator 2 view .LVU325
	.loc 1 182 10 discriminator 2 view .LVU326
	.loc 1 182 10 discriminator 2 view .LVU327
	.loc 1 182 25 is_stmt 0 discriminator 2 view .LVU328
	mov	r2, r5
	mov	r1, #182
	mov	r0, r6
	bl	fb_NullPtrChk
.LVL67:
	.loc 1 182 10 is_stmt 1 discriminator 2 view .LVU329
	.loc 1 182 12 is_stmt 0 discriminator 2 view .LVU330
	cmp	r0, #0
	.loc 1 182 12 discriminator 2 view .LVU331
	bne	.L242
	.loc 1 182 28 is_stmt 1 discriminator 1 view .LVU332
.LDL26:
	.loc 1 182 20 discriminator 1 view .LVU333
	.loc 1 182 10 discriminator 1 view .LVU334
.LVL68:
	.loc 1 182 10 discriminator 1 view .LVU335
	.loc 1 182 25 is_stmt 0 discriminator 1 view .LVU336
	mov	r2, r5
	mov	r1, #182
	mov	r0, r4
.LVL69:
	.loc 1 182 25 discriminator 1 view .LVU337
	bl	fb_NullPtrChk
.LVL70:
	.loc 1 182 10 is_stmt 1 discriminator 1 view .LVU338
	.loc 1 182 12 is_stmt 0 discriminator 1 view .LVU339
	cmp	r0, #0
	.loc 1 182 12 discriminator 1 view .LVU340
	bne	.L243
	.loc 1 182 28 is_stmt 1 discriminator 4 view .LVU341
.LDL27:
	.loc 1 182 20 discriminator 4 view .LVU342
	.loc 1 182 10 discriminator 4 view .LVU343
	.loc 1 182 22 is_stmt 0 discriminator 4 view .LVU344
	ldrb	r3, [r8, #2]	@ zero_extendqisi2
	.loc 1 183 25 discriminator 4 view .LVU345
	mov	r2, r5
	mov	r1, #183
	mov	r0, r6
.LVL71:
	.loc 1 182 20 discriminator 4 view .LVU346
	strb	r3, [r4]
	.loc 1 183 10 is_stmt 1 discriminator 4 view .LVU347
.LVL72:
	.loc 1 183 10 discriminator 4 view .LVU348
	.loc 1 183 25 is_stmt 0 discriminator 4 view .LVU349
	bl	fb_NullPtrChk
.LVL73:
	.loc 1 183 10 is_stmt 1 discriminator 4 view .LVU350
	.loc 1 183 12 is_stmt 0 discriminator 4 view .LVU351
	cmp	r0, #0
	.loc 1 183 12 discriminator 4 view .LVU352
	bne	.L244
	.loc 1 183 28 is_stmt 1 discriminator 1 view .LVU353
.LDL28:
	.loc 1 183 20 discriminator 1 view .LVU354
	.loc 1 183 10 discriminator 1 view .LVU355
.LVL74:
	.loc 1 183 10 discriminator 1 view .LVU356
	.loc 1 183 25 is_stmt 0 discriminator 1 view .LVU357
	mov	r2, r5
	mov	r1, #183
	mov	r0, r4
.LVL75:
	.loc 1 183 25 discriminator 1 view .LVU358
	bl	fb_NullPtrChk
.LVL76:
	.loc 1 183 10 is_stmt 1 discriminator 1 view .LVU359
	.loc 1 183 12 is_stmt 0 discriminator 1 view .LVU360
	cmp	r0, #0
	.loc 1 183 12 discriminator 1 view .LVU361
	bne	.L245
	.loc 1 183 28 is_stmt 1 discriminator 4 view .LVU362
.LDL29:
	.loc 1 183 20 discriminator 4 view .LVU363
	.loc 1 183 10 discriminator 4 view .LVU364
	.loc 1 183 36 is_stmt 0 discriminator 4 view .LVU365
	ldrb	r3, [r8, #1]	@ zero_extendqisi2
	.loc 1 184 25 discriminator 4 view .LVU366
	mov	r2, r5
	mov	r1, #184
	mov	r0, r6
.LVL77:
	.loc 1 183 34 discriminator 4 view .LVU367
	strb	r3, [r4, #1]
	.loc 1 184 10 is_stmt 1 discriminator 4 view .LVU368
.LVL78:
	.loc 1 184 10 discriminator 4 view .LVU369
	.loc 1 184 25 is_stmt 0 discriminator 4 view .LVU370
	bl	fb_NullPtrChk
.LVL79:
	.loc 1 184 10 is_stmt 1 discriminator 4 view .LVU371
	.loc 1 184 12 is_stmt 0 discriminator 4 view .LVU372
	cmp	r0, #0
	.loc 1 184 12 discriminator 4 view .LVU373
	bne	.L246
	.loc 1 184 28 is_stmt 1 discriminator 1 view .LVU374
.LDL30:
	.loc 1 184 20 discriminator 1 view .LVU375
	.loc 1 184 10 discriminator 1 view .LVU376
.LVL80:
	.loc 1 184 10 discriminator 1 view .LVU377
	.loc 1 184 25 is_stmt 0 discriminator 1 view .LVU378
	mov	r2, r5
	mov	r1, #184
	mov	r0, r4
.LVL81:
	.loc 1 184 25 discriminator 1 view .LVU379
	bl	fb_NullPtrChk
.LVL82:
	.loc 1 184 10 is_stmt 1 discriminator 1 view .LVU380
	.loc 1 184 12 is_stmt 0 discriminator 1 view .LVU381
	cmp	r0, #0
	.loc 1 184 12 discriminator 1 view .LVU382
	bne	.L247
	.loc 1 184 28 is_stmt 1 discriminator 4 view .LVU383
.LDL31:
	.loc 1 184 20 discriminator 4 view .LVU384
	.loc 1 184 10 discriminator 4 view .LVU385
	.loc 1 184 36 is_stmt 0 discriminator 4 view .LVU386
	ldrb	r3, [r8]	@ zero_extendqisi2
	.loc 1 185 25 discriminator 4 view .LVU387
	mov	r2, r5
	mov	r1, #185
	mov	r0, r6
.LVL83:
	.loc 1 184 34 discriminator 4 view .LVU388
	strb	r3, [r4, #2]
	.loc 1 185 10 is_stmt 1 discriminator 4 view .LVU389
.LVL84:
	.loc 1 185 10 discriminator 4 view .LVU390
	.loc 1 185 25 is_stmt 0 discriminator 4 view .LVU391
	bl	fb_NullPtrChk
.LVL85:
	.loc 1 185 10 is_stmt 1 discriminator 4 view .LVU392
	.loc 1 185 12 is_stmt 0 discriminator 4 view .LVU393
	cmp	r0, #0
	.loc 1 185 12 discriminator 4 view .LVU394
	bne	.L248
	.loc 1 185 28 is_stmt 1 discriminator 1 view .LVU395
.LDL32:
	.loc 1 185 20 discriminator 1 view .LVU396
	.loc 1 185 10 discriminator 1 view .LVU397
.LVL86:
	.loc 1 185 10 discriminator 1 view .LVU398
	.loc 1 185 25 is_stmt 0 discriminator 1 view .LVU399
	mov	r2, r5
	mov	r1, #185
	mov	r0, r4
.LVL87:
	.loc 1 185 25 discriminator 1 view .LVU400
	bl	fb_NullPtrChk
.LVL88:
	.loc 1 185 10 is_stmt 1 discriminator 1 view .LVU401
	.loc 1 185 12 is_stmt 0 discriminator 1 view .LVU402
	cmp	r0, #0
	.loc 1 185 12 discriminator 1 view .LVU403
	bne	.L249
	.loc 1 185 28 is_stmt 1 discriminator 4 view .LVU404
.LDL33:
	.loc 1 185 20 discriminator 4 view .LVU405
	.loc 1 185 10 discriminator 4 view .LVU406
	.loc 1 185 36 is_stmt 0 discriminator 4 view .LVU407
	ldrb	r3, [r8, #3]	@ zero_extendqisi2
.LBE14:
	.loc 1 187 11 discriminator 4 view .LVU408
	add	r8, r8, #4
.LVL89:
.LBB15:
	.loc 1 185 34 discriminator 4 view .LVU409
	strb	r3, [r4, #3]
.LDL34:
.LBE15:
	.loc 1 187 18 is_stmt 1 discriminator 4 view .LVU410
	.loc 1 187 9 discriminator 4 view .LVU411
.LDL35:
.LVL90:
	.loc 1 187 18 discriminator 4 view .LVU412
	.loc 1 187 9 discriminator 4 view .LVU413
	.loc 1 187 11 is_stmt 0 discriminator 4 view .LVU414
	sub	r3, r8, r6
	cmp	r9, r3
	bge	.L90
.LVL91:
.L75:
.LDL36:
	.loc 1 187 18 is_stmt 1 view .LVU415
.LBE13:
	.loc 1 188 8 view .LVU416
	mov	r3, #1
	str	r3, [sp, #4]
	ldr	r3, [sp, #144]
	mov	r1, #32
	mov	r0, r6
	mov	r2, r4
	ldr	r3, [r3]
	str	r3, [sp]
	mov	r3, r10
	bl	fb_GfxImageConvertRow
.LVL92:
	.loc 1 191 8 view .LVU417
	.loc 1 191 8 view .LVU418
	.loc 1 191 23 is_stmt 0 view .LVU419
	mov	r2, r5
	mov	r1, #191
	mov	r0, r7
	bl	fb_NullPtrChk
.LVL93:
	.loc 1 191 8 is_stmt 1 view .LVU420
	.loc 1 191 10 is_stmt 0 view .LVU421
	cmp	r0, #0
	.loc 1 191 10 view .LVU422
	beq	.L197
.LVL94:
.L191:
	.loc 1 191 10 view .LVU423
.LBE12:
.LBB16:
.LBB17:
	.loc 1 212 10 is_stmt 1 discriminator 5 view .LVU424
	mov	pc, r0	@ indirect register jump
.LVL95:
.L195:
	.loc 1 212 10 is_stmt 0 discriminator 5 view .LVU425
	ldr	r10, [sp, #36]
.LVL96:
.L21:
.LDL37:
	.loc 1 212 10 discriminator 5 view .LVU426
.LBE17:
.LBE16:
	.loc 1 219 12 is_stmt 1 view .LVU427
.LBE45:
	.loc 1 222 2 view .LVU428
	mov	r0, r6
	bl	free
.LVL97:
	.loc 1 224 2 view .LVU429
	ldrd	r0, [sp, #44]
	bl	png_read_end
.LVL98:
	.loc 1 225 2 view .LVU430
	mov	r2, #0
	add	r1, sp, #48
	add	r0, sp, #44
	bl	png_destroy_read_struct
.LVL99:
.L199:
	.loc 1 226 2 view .LVU431
	mov	r0, r10
	bl	fclose
.LVL100:
	.loc 1 227 2 view .LVU432
	.loc 1 232 2 view .LVU433
	add	r0, sp, #84
	bl	fb_StrDelete
.LVL101:
	.loc 1 232 2 view .LVU434
	add	r0, sp, #72
	bl	fb_StrDelete
.LVL102:
	.loc 1 232 2 view .LVU435
	add	r0, sp, #60
	bl	fb_StrDelete
.LVL103:
.L9:
	.loc 1 232 10 discriminator 1 view .LVU436
	.loc 1 232 2 discriminator 1 view .LVU437
	vmov	r0, s17	@ int
	bl	fb_ErrorSetFuncName
.LVL104:
	.loc 1 232 2 discriminator 1 view .LVU438
	vmov	r0, s16	@ int
	bl	fb_ErrorSetModName
.LVL105:
	.loc 1 232 2 discriminator 1 view .LVU439
	.loc 1 232 1 is_stmt 0 discriminator 1 view .LVU440
	mov	r0, r7
	add	sp, sp, #100
	.cfi_remember_state
	.cfi_def_cfa_offset 44
	@ sp needed
	vldm	sp!, {d8}
	.cfi_restore 80
	.cfi_restore 81
	.cfi_def_cfa_offset 36
.LVL106:
	.loc 1 232 1 discriminator 1 view .LVU441
	pop	{r4, r5, r6, r7, r8, r9, r10, fp, pc}
.LVL107:
.L240:
	.cfi_restore_state
.L25:
.LBB46:
	.loc 1 136 14 is_stmt 1 discriminator 2 view .LVU442
.LBB23:
	.loc 1 136 6 discriminator 2 view .LVU443
	.loc 1 137 6 discriminator 2 view .LVU444
	mov	r3, #1
	str	r3, [sp, #4]
	ldr	r3, [sp, #144]
	mov	r1, #24
	mov	r0, r6
	mov	r2, r4
	ldr	r3, [r3]
	str	r3, [sp]
	mov	r3, r10
	bl	fb_GfxImageConvertRow
.LVL108:
	.loc 1 138 6 discriminator 2 view .LVU445
	.loc 1 138 6 discriminator 2 view .LVU446
	.loc 1 138 20 is_stmt 0 discriminator 2 view .LVU447
	mov	r2, r5
	mov	r1, #138
	mov	r0, r7
	bl	fb_NullPtrChk
.LVL109:
	.loc 1 138 6 is_stmt 1 discriminator 2 view .LVU448
	.loc 1 138 8 is_stmt 0 discriminator 2 view .LVU449
	cmp	r0, #0
	.loc 1 138 8 discriminator 2 view .LVU450
	bne	.L191
.LVL110:
.L197:
	.loc 1 138 8 discriminator 2 view .LVU451
.LBE23:
.LBB24:
	.loc 1 191 26 is_stmt 1 discriminator 1 view .LVU452
.LDL38:
	.loc 1 191 18 discriminator 1 view .LVU453
	.loc 1 191 8 discriminator 1 view .LVU454
	.loc 1 191 14 is_stmt 0 discriminator 1 view .LVU455
	ldr	r3, [r7, #16]
	add	r4, r4, r3
.LVL111:
	.loc 1 191 14 discriminator 1 view .LVU456
	b	.L137
.LVL112:
.L6:
	.loc 1 191 14 discriminator 1 view .LVU457
.LBE24:
.LBE46:
.LBB47:
	.loc 1 51 3 is_stmt 1 view .LVU458
	.loc 1 51 21 is_stmt 0 view .LVU459
	mov	r1, #5
	movw	r0, #:lower16:.LC7
	movt	r0, #:upper16:.LC7
	.loc 1 52 3 view .LVU460
	mov	r7, r10
	.loc 1 51 21 view .LVU461
	bl	fb_StrAllocTempDescZEx
.LVL113:
	.loc 1 51 3 view .LVU462
	mov	r2, #1
	.loc 1 51 21 view .LVU463
	mov	r1, r0
.LVL114:
	.loc 1 51 3 is_stmt 1 view .LVU464
	mov	r0, r10
.LVL115:
	.loc 1 51 3 is_stmt 0 view .LVU465
	bl	fb_PrintString
.LVL116:
	.loc 1 52 3 is_stmt 1 view .LVU466
	add	r0, sp, #84
	bl	fb_StrDelete
.LVL117:
	.loc 1 52 3 view .LVU467
	add	r0, sp, #72
	bl	fb_StrDelete
.LVL118:
	.loc 1 52 3 view .LVU468
	add	r0, sp, #60
	bl	fb_StrDelete
.LVL119:
	.loc 1 52 3 view .LVU469
	b	.L9
.LVL120:
.L106:
	.loc 1 52 3 is_stmt 0 view .LVU470
.LBE47:
.LBB48:
	.loc 1 201 16 is_stmt 1 discriminator 5 view .LVU471
.LBB25:
	.loc 1 202 9 discriminator 5 view .LVU472
	.loc 1 202 9 discriminator 5 view .LVU473
	.loc 1 202 9 discriminator 5 view .LVU474
	.loc 1 202 9 discriminator 5 view .LVU475
	.loc 1 202 9 discriminator 5 view .LVU476
	.loc 1 210 18 discriminator 5 view .LVU477
	.loc 1 210 9 discriminator 5 view .LVU478
	.loc 1 210 11 is_stmt 0 discriminator 5 view .LVU479
	cmp	r9, #0
	movge	r8, r6
	blt	.L137
.L122:
	.loc 1 210 31 is_stmt 1 discriminator 2 view .LVU480
.LDL39:
	.loc 1 202 18 discriminator 2 view .LVU481
.LBB26:
	.loc 1 202 10 discriminator 2 view .LVU482
	.loc 1 202 10 discriminator 2 view .LVU483
	.loc 1 202 10 discriminator 2 view .LVU484
	.loc 1 202 10 discriminator 2 view .LVU485
	.loc 1 202 10 discriminator 2 view .LVU486
	.loc 1 202 10 discriminator 2 view .LVU487
	.loc 1 202 10 discriminator 2 view .LVU488
	.loc 1 202 10 discriminator 2 view .LVU489
	.loc 1 203 10 discriminator 2 view .LVU490
.LVL121:
	.loc 1 203 10 discriminator 2 view .LVU491
	.loc 1 203 25 is_stmt 0 discriminator 2 view .LVU492
	mov	r2, r5
	mov	r1, #203
	mov	r0, r6
	bl	fb_NullPtrChk
.LVL122:
	.loc 1 203 10 is_stmt 1 discriminator 2 view .LVU493
	.loc 1 203 12 is_stmt 0 discriminator 2 view .LVU494
	cmp	r0, #0
	.loc 1 203 12 discriminator 2 view .LVU495
	bne	.L250
	.loc 1 203 28 is_stmt 1 discriminator 1 view .LVU496
.LDL40:
	.loc 1 203 20 discriminator 1 view .LVU497
	.loc 1 203 10 discriminator 1 view .LVU498
.LVL123:
	.loc 1 203 10 discriminator 1 view .LVU499
	.loc 1 203 25 is_stmt 0 discriminator 1 view .LVU500
	mov	r2, r5
	mov	r1, #203
	mov	r0, r4
.LVL124:
	.loc 1 203 25 discriminator 1 view .LVU501
	bl	fb_NullPtrChk
.LVL125:
	.loc 1 203 10 is_stmt 1 discriminator 1 view .LVU502
	.loc 1 203 12 is_stmt 0 discriminator 1 view .LVU503
	cmp	r0, #0
	.loc 1 203 12 discriminator 1 view .LVU504
	bne	.L251
	.loc 1 203 28 is_stmt 1 discriminator 4 view .LVU505
.LDL41:
	.loc 1 203 20 discriminator 4 view .LVU506
	.loc 1 203 10 discriminator 4 view .LVU507
	.loc 1 203 22 is_stmt 0 discriminator 4 view .LVU508
	ldrb	r3, [r8, #2]	@ zero_extendqisi2
	.loc 1 204 25 discriminator 4 view .LVU509
	mov	r2, r5
	mov	r1, #204
	mov	r0, r6
.LVL126:
	.loc 1 203 20 discriminator 4 view .LVU510
	strb	r3, [r4]
	.loc 1 204 10 is_stmt 1 discriminator 4 view .LVU511
.LVL127:
	.loc 1 204 10 discriminator 4 view .LVU512
	.loc 1 204 25 is_stmt 0 discriminator 4 view .LVU513
	bl	fb_NullPtrChk
.LVL128:
	.loc 1 204 10 is_stmt 1 discriminator 4 view .LVU514
	.loc 1 204 12 is_stmt 0 discriminator 4 view .LVU515
	cmp	r0, #0
	.loc 1 204 12 discriminator 4 view .LVU516
	bne	.L252
	.loc 1 204 28 is_stmt 1 discriminator 1 view .LVU517
.LDL42:
	.loc 1 204 20 discriminator 1 view .LVU518
	.loc 1 204 10 discriminator 1 view .LVU519
.LVL129:
	.loc 1 204 10 discriminator 1 view .LVU520
	.loc 1 204 25 is_stmt 0 discriminator 1 view .LVU521
	mov	r2, r5
	mov	r1, #204
	mov	r0, r4
.LVL130:
	.loc 1 204 25 discriminator 1 view .LVU522
	bl	fb_NullPtrChk
.LVL131:
	.loc 1 204 10 is_stmt 1 discriminator 1 view .LVU523
	.loc 1 204 12 is_stmt 0 discriminator 1 view .LVU524
	cmp	r0, #0
	.loc 1 204 12 discriminator 1 view .LVU525
	bne	.L253
	.loc 1 204 28 is_stmt 1 discriminator 4 view .LVU526
.LDL43:
	.loc 1 204 20 discriminator 4 view .LVU527
	.loc 1 204 10 discriminator 4 view .LVU528
	.loc 1 204 36 is_stmt 0 discriminator 4 view .LVU529
	ldrb	r3, [r8, #1]	@ zero_extendqisi2
	.loc 1 205 25 discriminator 4 view .LVU530
	mov	r2, r5
	mov	r1, #205
	mov	r0, r6
.LVL132:
	.loc 1 204 34 discriminator 4 view .LVU531
	strb	r3, [r4, #1]
	.loc 1 205 10 is_stmt 1 discriminator 4 view .LVU532
.LVL133:
	.loc 1 205 10 discriminator 4 view .LVU533
	.loc 1 205 25 is_stmt 0 discriminator 4 view .LVU534
	bl	fb_NullPtrChk
.LVL134:
	.loc 1 205 10 is_stmt 1 discriminator 4 view .LVU535
	.loc 1 205 12 is_stmt 0 discriminator 4 view .LVU536
	cmp	r0, #0
	.loc 1 205 12 discriminator 4 view .LVU537
	bne	.L254
	.loc 1 205 28 is_stmt 1 discriminator 1 view .LVU538
.LDL44:
	.loc 1 205 20 discriminator 1 view .LVU539
	.loc 1 205 10 discriminator 1 view .LVU540
.LVL135:
	.loc 1 205 10 discriminator 1 view .LVU541
	.loc 1 205 25 is_stmt 0 discriminator 1 view .LVU542
	mov	r2, r5
	mov	r1, #205
	mov	r0, r4
.LVL136:
	.loc 1 205 25 discriminator 1 view .LVU543
	bl	fb_NullPtrChk
.LVL137:
	.loc 1 205 10 is_stmt 1 discriminator 1 view .LVU544
	.loc 1 205 12 is_stmt 0 discriminator 1 view .LVU545
	cmp	r0, #0
	.loc 1 205 12 discriminator 1 view .LVU546
	bne	.L255
	.loc 1 205 28 is_stmt 1 discriminator 4 view .LVU547
.LDL45:
	.loc 1 205 20 discriminator 4 view .LVU548
	.loc 1 205 10 discriminator 4 view .LVU549
	.loc 1 205 36 is_stmt 0 discriminator 4 view .LVU550
	ldrb	r3, [r8]	@ zero_extendqisi2
	.loc 1 206 25 discriminator 4 view .LVU551
	mov	r2, r5
	mov	r1, #206
	mov	r0, r6
.LVL138:
	.loc 1 205 34 discriminator 4 view .LVU552
	strb	r3, [r4, #2]
	.loc 1 206 10 is_stmt 1 discriminator 4 view .LVU553
.LVL139:
	.loc 1 206 10 discriminator 4 view .LVU554
	.loc 1 206 25 is_stmt 0 discriminator 4 view .LVU555
	bl	fb_NullPtrChk
.LVL140:
	.loc 1 206 10 is_stmt 1 discriminator 4 view .LVU556
	.loc 1 206 12 is_stmt 0 discriminator 4 view .LVU557
	cmp	r0, #0
	.loc 1 206 12 discriminator 4 view .LVU558
	bne	.L256
	.loc 1 206 28 is_stmt 1 discriminator 1 view .LVU559
.LDL46:
	.loc 1 206 20 discriminator 1 view .LVU560
	.loc 1 206 10 discriminator 1 view .LVU561
.LVL141:
	.loc 1 206 10 discriminator 1 view .LVU562
	.loc 1 206 25 is_stmt 0 discriminator 1 view .LVU563
	mov	r2, r5
	mov	r1, #206
	mov	r0, r4
.LVL142:
	.loc 1 206 25 discriminator 1 view .LVU564
	bl	fb_NullPtrChk
.LVL143:
	.loc 1 206 10 is_stmt 1 discriminator 1 view .LVU565
	.loc 1 206 12 is_stmt 0 discriminator 1 view .LVU566
	cmp	r0, #0
	.loc 1 206 12 discriminator 1 view .LVU567
	bne	.L257
	.loc 1 206 28 is_stmt 1 discriminator 4 view .LVU568
.LDL47:
	.loc 1 206 20 discriminator 4 view .LVU569
	.loc 1 206 10 discriminator 4 view .LVU570
	.loc 1 206 36 is_stmt 0 discriminator 4 view .LVU571
	ldrb	r3, [r8, #3]	@ zero_extendqisi2
.LBE26:
	.loc 1 210 11 discriminator 4 view .LVU572
	add	r8, r8, #4
.LBB27:
	.loc 1 206 34 discriminator 4 view .LVU573
	strb	r3, [r4, #3]
	.loc 1 209 10 is_stmt 1 discriminator 4 view .LVU574
.LBE27:
	.loc 1 210 11 is_stmt 0 discriminator 4 view .LVU575
	sub	r3, r8, r6
.LBB28:
	.loc 1 209 16 discriminator 4 view .LVU576
	add	r4, r4, #4
.LVL144:
.LDL48:
	.loc 1 209 16 discriminator 4 view .LVU577
.LBE28:
	.loc 1 210 18 is_stmt 1 discriminator 4 view .LVU578
	.loc 1 210 9 discriminator 4 view .LVU579
.LDL49:
	.loc 1 210 18 discriminator 4 view .LVU580
	.loc 1 210 9 discriminator 4 view .LVU581
	.loc 1 210 11 is_stmt 0 discriminator 4 view .LVU582
	cmp	r9, r3
	bge	.L122
	.loc 1 210 9 view .LVU583
	mov	r8, r0
	b	.L123
.LVL145:
.L130:
	.loc 1 210 9 view .LVU584
.LBE25:
.LBB29:
.LBB18:
	.loc 1 212 28 is_stmt 1 discriminator 1 view .LVU585
.LDL50:
	.loc 1 212 20 discriminator 1 view .LVU586
	.loc 1 212 10 discriminator 1 view .LVU587
	.loc 1 212 10 discriminator 1 view .LVU588
	.loc 1 212 25 is_stmt 0 discriminator 1 view .LVU589
	mov	r2, r5
	mov	r1, #212
	mov	r0, r6
.LVL146:
	.loc 1 212 25 discriminator 1 view .LVU590
	bl	fb_NullPtrChk
.LVL147:
	.loc 1 212 10 is_stmt 1 discriminator 1 view .LVU591
	.loc 1 212 12 is_stmt 0 discriminator 1 view .LVU592
	cmp	r0, #0
	.loc 1 212 12 discriminator 1 view .LVU593
	bne	.L258
	.loc 1 212 28 is_stmt 1 discriminator 4 view .LVU594
.LDL51:
	.loc 1 212 20 discriminator 4 view .LVU595
	.loc 1 212 10 discriminator 4 view .LVU596
.LVL148:
	.loc 1 212 10 discriminator 4 view .LVU597
	.loc 1 212 25 is_stmt 0 discriminator 4 view .LVU598
	mov	r2, r5
	mov	r1, #212
	mov	r0, r6
.LVL149:
	.loc 1 212 25 discriminator 4 view .LVU599
	bl	fb_NullPtrChk
.LVL150:
	.loc 1 212 10 is_stmt 1 discriminator 4 view .LVU600
	.loc 1 212 12 is_stmt 0 discriminator 4 view .LVU601
	subs	r3, r0, #0
	bne	.L259
	.loc 1 212 28 is_stmt 1 discriminator 7 view .LVU602
.LDL52:
	.loc 1 212 20 discriminator 7 view .LVU603
	.loc 1 212 10 discriminator 7 view .LVU604
	.loc 1 212 66 is_stmt 0 discriminator 7 view .LVU605
	ldrb	ip, [r6, r8]	@ zero_extendqisi2
	.loc 1 212 10 discriminator 7 view .LVU606
	vmov	s15, r8	@ int
	mov	r2, #4
.LBE18:
	.loc 1 213 13 discriminator 7 view .LVU607
	add	r8, r8, #1
.LVL151:
.LBB19:
	.loc 1 212 10 discriminator 7 view .LVU608
	vcvt.f32.s32	s0, s15
	vmov	s15, fp	@ int
.LVL152:
	.loc 1 212 151 discriminator 7 view .LVU609
	lsl	r1, ip, #8
	.loc 1 212 10 discriminator 7 view .LVU610
	mov	r0, r7
.LVL153:
	.loc 1 212 114 discriminator 7 view .LVU611
	orr	r1, r1, ip, lsl #16
	.loc 1 212 10 discriminator 7 view .LVU612
	vcvt.f32.s32	s1, s15
	.loc 1 212 165 discriminator 7 view .LVU613
	orr	r1, r1, ip
	.loc 1 212 10 discriminator 7 view .LVU614
	orr	r1, r1, #-16777216
	bl	fb_GfxPset
.LVL154:
.LDL53:
	.loc 1 212 10 discriminator 7 view .LVU615
.LBE19:
	.loc 1 213 18 is_stmt 1 discriminator 7 view .LVU616
	.loc 1 213 9 discriminator 7 view .LVU617
.LDL54:
.LDL55:
	.loc 1 213 18 discriminator 7 view .LVU618
	.loc 1 213 9 discriminator 7 view .LVU619
	.loc 1 213 11 is_stmt 0 discriminator 7 view .LVU620
	cmp	r9, r8
	blt	.L137
.LVL155:
.L123:
	.loc 1 213 31 is_stmt 1 discriminator 2 view .LVU621
.LDL56:
	.loc 1 211 18 discriminator 2 view .LVU622
.LBB20:
	.loc 1 211 10 discriminator 2 view .LVU623
	.loc 1 211 10 discriminator 2 view .LVU624
	.loc 1 211 10 discriminator 2 view .LVU625
	.loc 1 212 10 discriminator 2 view .LVU626
	.loc 1 212 10 discriminator 2 view .LVU627
	.loc 1 212 25 is_stmt 0 discriminator 2 view .LVU628
	mov	r2, r5
	mov	r1, #212
	mov	r0, r6
	bl	fb_NullPtrChk
.LVL156:
	.loc 1 212 10 is_stmt 1 discriminator 2 view .LVU629
	.loc 1 212 12 is_stmt 0 discriminator 2 view .LVU630
	cmp	r0, #0
	.loc 1 212 12 discriminator 2 view .LVU631
	beq	.L130
	.loc 1 212 10 is_stmt 1 view .LVU632
	mov	pc, r0	@ indirect register jump
.LVL157:
.L28:
	.loc 1 212 10 is_stmt 0 view .LVU633
.LBE20:
.LBE29:
	.loc 1 143 16 is_stmt 1 discriminator 2 view .LVU634
.LBB30:
	.loc 1 143 8 discriminator 2 view .LVU635
.LBB10:
	.loc 1 145 9 discriminator 2 view .LVU636
	.loc 1 145 9 discriminator 2 view .LVU637
	.loc 1 145 9 discriminator 2 view .LVU638
	.loc 1 145 9 discriminator 2 view .LVU639
	.loc 1 145 9 discriminator 2 view .LVU640
	.loc 1 152 18 discriminator 2 view .LVU641
	.loc 1 152 9 discriminator 2 view .LVU642
	.loc 1 152 11 is_stmt 0 discriminator 2 view .LVU643
	cmp	r9, #0
	movlt	r8, r4
	blt	.L32
	.loc 1 152 11 view .LVU644
	mov	r8, r6
.L47:
	.loc 1 152 31 is_stmt 1 discriminator 2 view .LVU645
.LDL57:
	.loc 1 145 18 discriminator 2 view .LVU646
.LBB6:
	.loc 1 145 10 discriminator 2 view .LVU647
	.loc 1 145 10 discriminator 2 view .LVU648
	.loc 1 145 10 discriminator 2 view .LVU649
	.loc 1 145 10 discriminator 2 view .LVU650
	.loc 1 145 10 discriminator 2 view .LVU651
	.loc 1 145 10 discriminator 2 view .LVU652
	.loc 1 145 10 discriminator 2 view .LVU653
	.loc 1 145 10 discriminator 2 view .LVU654
	.loc 1 146 10 discriminator 2 view .LVU655
.LVL158:
	.loc 1 146 10 discriminator 2 view .LVU656
	.loc 1 146 24 is_stmt 0 discriminator 2 view .LVU657
	mov	r2, r5
	mov	r1, #146
	mov	r0, r6
	bl	fb_NullPtrChk
.LVL159:
	.loc 1 146 10 is_stmt 1 discriminator 2 view .LVU658
	.loc 1 146 12 is_stmt 0 discriminator 2 view .LVU659
	cmp	r0, #0
	.loc 1 146 12 discriminator 2 view .LVU660
	bne	.L260
	.loc 1 146 27 is_stmt 1 discriminator 1 view .LVU661
.LDL58:
	.loc 1 146 19 discriminator 1 view .LVU662
	.loc 1 146 10 discriminator 1 view .LVU663
.LVL160:
	.loc 1 146 10 discriminator 1 view .LVU664
	.loc 1 146 24 is_stmt 0 discriminator 1 view .LVU665
	mov	r2, r5
	mov	r1, #146
	mov	r0, r4
.LVL161:
	.loc 1 146 24 discriminator 1 view .LVU666
	bl	fb_NullPtrChk
.LVL162:
	.loc 1 146 10 is_stmt 1 discriminator 1 view .LVU667
	.loc 1 146 12 is_stmt 0 discriminator 1 view .LVU668
	cmp	r0, #0
	.loc 1 146 12 discriminator 1 view .LVU669
	bne	.L261
	.loc 1 146 27 is_stmt 1 discriminator 4 view .LVU670
.LDL59:
	.loc 1 146 19 discriminator 4 view .LVU671
	.loc 1 146 10 discriminator 4 view .LVU672
	.loc 1 146 22 is_stmt 0 discriminator 4 view .LVU673
	ldrb	r3, [r8, #2]	@ zero_extendqisi2
	.loc 1 147 24 discriminator 4 view .LVU674
	mov	r2, r5
	mov	r1, #147
	mov	r0, r6
.LVL163:
	.loc 1 146 20 discriminator 4 view .LVU675
	strb	r3, [r4]
	.loc 1 147 10 is_stmt 1 discriminator 4 view .LVU676
.LVL164:
	.loc 1 147 10 discriminator 4 view .LVU677
	.loc 1 147 24 is_stmt 0 discriminator 4 view .LVU678
	bl	fb_NullPtrChk
.LVL165:
	.loc 1 147 10 is_stmt 1 discriminator 4 view .LVU679
	.loc 1 147 12 is_stmt 0 discriminator 4 view .LVU680
	cmp	r0, #0
	.loc 1 147 12 discriminator 4 view .LVU681
	bne	.L262
	.loc 1 147 27 is_stmt 1 discriminator 1 view .LVU682
.LDL60:
	.loc 1 147 19 discriminator 1 view .LVU683
	.loc 1 147 10 discriminator 1 view .LVU684
.LVL166:
	.loc 1 147 10 discriminator 1 view .LVU685
	.loc 1 147 24 is_stmt 0 discriminator 1 view .LVU686
	mov	r2, r5
	mov	r1, #147
	mov	r0, r4
.LVL167:
	.loc 1 147 24 discriminator 1 view .LVU687
	bl	fb_NullPtrChk
.LVL168:
	.loc 1 147 10 is_stmt 1 discriminator 1 view .LVU688
	.loc 1 147 12 is_stmt 0 discriminator 1 view .LVU689
	cmp	r0, #0
	.loc 1 147 12 discriminator 1 view .LVU690
	bne	.L263
	.loc 1 147 27 is_stmt 1 discriminator 4 view .LVU691
.LDL61:
	.loc 1 147 19 discriminator 4 view .LVU692
	.loc 1 147 10 discriminator 4 view .LVU693
	.loc 1 147 36 is_stmt 0 discriminator 4 view .LVU694
	ldrb	r3, [r8, #1]	@ zero_extendqisi2
	.loc 1 148 24 discriminator 4 view .LVU695
	mov	r2, r5
	mov	r1, #148
	mov	r0, r6
.LVL169:
	.loc 1 147 34 discriminator 4 view .LVU696
	strb	r3, [r4, #1]
	.loc 1 148 10 is_stmt 1 discriminator 4 view .LVU697
.LVL170:
	.loc 1 148 10 discriminator 4 view .LVU698
	.loc 1 148 24 is_stmt 0 discriminator 4 view .LVU699
	bl	fb_NullPtrChk
.LVL171:
	.loc 1 148 10 is_stmt 1 discriminator 4 view .LVU700
	.loc 1 148 12 is_stmt 0 discriminator 4 view .LVU701
	cmp	r0, #0
	.loc 1 148 12 discriminator 4 view .LVU702
	bne	.L264
	.loc 1 148 27 is_stmt 1 discriminator 1 view .LVU703
.LDL62:
	.loc 1 148 19 discriminator 1 view .LVU704
	.loc 1 148 10 discriminator 1 view .LVU705
.LVL172:
	.loc 1 148 10 discriminator 1 view .LVU706
	.loc 1 148 24 is_stmt 0 discriminator 1 view .LVU707
	mov	r2, r5
	mov	r1, #148
	mov	r0, r4
.LVL173:
	.loc 1 148 24 discriminator 1 view .LVU708
	bl	fb_NullPtrChk
.LVL174:
	.loc 1 148 10 is_stmt 1 discriminator 1 view .LVU709
	.loc 1 148 12 is_stmt 0 discriminator 1 view .LVU710
	cmp	r0, #0
	.loc 1 148 12 discriminator 1 view .LVU711
	bne	.L265
	.loc 1 148 27 is_stmt 1 discriminator 4 view .LVU712
.LDL63:
	.loc 1 148 19 discriminator 4 view .LVU713
	.loc 1 148 10 discriminator 4 view .LVU714
	.loc 1 148 36 is_stmt 0 discriminator 4 view .LVU715
	ldrb	r3, [r8]	@ zero_extendqisi2
	.loc 1 149 24 discriminator 4 view .LVU716
	mov	r2, r5
	mov	r1, #149
	mov	r0, r6
.LVL175:
	.loc 1 148 34 discriminator 4 view .LVU717
	strb	r3, [r4, #2]
	.loc 1 149 10 is_stmt 1 discriminator 4 view .LVU718
.LVL176:
	.loc 1 149 10 discriminator 4 view .LVU719
	.loc 1 149 24 is_stmt 0 discriminator 4 view .LVU720
	bl	fb_NullPtrChk
.LVL177:
	.loc 1 149 10 is_stmt 1 discriminator 4 view .LVU721
	.loc 1 149 12 is_stmt 0 discriminator 4 view .LVU722
	cmp	r0, #0
	.loc 1 149 12 discriminator 4 view .LVU723
	bne	.L266
	.loc 1 149 27 is_stmt 1 discriminator 1 view .LVU724
.LDL64:
	.loc 1 149 19 discriminator 1 view .LVU725
	.loc 1 149 10 discriminator 1 view .LVU726
.LVL178:
	.loc 1 149 10 discriminator 1 view .LVU727
	.loc 1 149 24 is_stmt 0 discriminator 1 view .LVU728
	mov	r2, r5
	mov	r1, #149
	mov	r0, r4
.LVL179:
	.loc 1 149 24 discriminator 1 view .LVU729
	bl	fb_NullPtrChk
.LVL180:
	.loc 1 149 10 is_stmt 1 discriminator 1 view .LVU730
	.loc 1 149 12 is_stmt 0 discriminator 1 view .LVU731
	cmp	r0, #0
	.loc 1 149 12 discriminator 1 view .LVU732
	bne	.L267
	.loc 1 149 27 is_stmt 1 discriminator 4 view .LVU733
.LDL65:
	.loc 1 149 19 discriminator 4 view .LVU734
	.loc 1 149 10 discriminator 4 view .LVU735
	.loc 1 149 36 is_stmt 0 discriminator 4 view .LVU736
	ldrb	r3, [r8, #3]	@ zero_extendqisi2
.LBE6:
	.loc 1 152 11 discriminator 4 view .LVU737
	add	r8, r8, #4
.LBB7:
	.loc 1 149 34 discriminator 4 view .LVU738
	strb	r3, [r4, #3]
	.loc 1 151 10 is_stmt 1 discriminator 4 view .LVU739
.LBE7:
	.loc 1 152 11 is_stmt 0 discriminator 4 view .LVU740
	sub	r3, r8, r6
.LBB8:
	.loc 1 151 16 discriminator 4 view .LVU741
	add	r4, r4, #4
.LVL181:
.LDL66:
	.loc 1 151 16 discriminator 4 view .LVU742
.LBE8:
	.loc 1 152 18 is_stmt 1 discriminator 4 view .LVU743
	.loc 1 152 9 discriminator 4 view .LVU744
.LDL67:
	.loc 1 152 18 discriminator 4 view .LVU745
	.loc 1 152 9 discriminator 4 view .LVU746
	.loc 1 152 11 is_stmt 0 discriminator 4 view .LVU747
	cmp	r9, r3
	bge	.L47
.LBB9:
	.loc 1 151 16 view .LVU748
	mov	r8, r4
.LVL182:
.L48:
	.loc 1 151 16 view .LVU749
.LBE9:
.LBE10:
.LBB11:
	.loc 1 157 31 is_stmt 1 discriminator 2 view .LVU750
.LDL68:
	.loc 1 155 18 discriminator 2 view .LVU751
	.loc 1 156 10 discriminator 2 view .LVU752
	.loc 1 156 16 is_stmt 0 discriminator 2 view .LVU753
	sub	r8, r8, #4
.LVL183:
.LDL69:
	.loc 1 157 18 is_stmt 1 discriminator 2 view .LVU754
	.loc 1 157 9 discriminator 2 view .LVU755
.LDL70:
.LDL71:
	.loc 1 157 18 discriminator 2 view .LVU756
	.loc 1 157 9 discriminator 2 view .LVU757
	.loc 1 157 11 is_stmt 0 discriminator 2 view .LVU758
	sub	r3, r4, r8
.LVL184:
	.loc 1 157 11 discriminator 2 view .LVU759
	cmp	r9, r3
	bge	.L48
.LVL185:
.L32:
	.loc 1 157 18 is_stmt 1 discriminator 3 view .LVU760
.LBE11:
	.loc 1 160 8 discriminator 3 view .LVU761
	.loc 1 160 8 discriminator 3 view .LVU762
	.loc 1 160 23 is_stmt 0 discriminator 3 view .LVU763
	mov	r2, r5
	mov	r1, #160
	mov	r0, r7
	bl	fb_NullPtrChk
.LVL186:
	.loc 1 160 8 is_stmt 1 discriminator 3 view .LVU764
	.loc 1 160 10 is_stmt 0 discriminator 3 view .LVU765
	cmp	r0, #0
	.loc 1 160 10 discriminator 3 view .LVU766
	bne	.L191
.LVL187:
.L198:
	.loc 1 160 10 discriminator 3 view .LVU767
.LBE30:
.LBB31:
	.loc 1 178 26 is_stmt 1 discriminator 1 view .LVU768
.LDL72:
	.loc 1 178 18 discriminator 1 view .LVU769
	.loc 1 178 8 discriminator 1 view .LVU770
	.loc 1 178 14 is_stmt 0 discriminator 1 view .LVU771
	ldr	r4, [r7, #16]
	add	r4, r8, r4
.LVL188:
	.loc 1 178 14 discriminator 1 view .LVU772
.LBE31:
	.loc 1 179 7 is_stmt 1 discriminator 1 view .LVU773
	b	.L137
.L239:
.L96:
	.loc 1 196 16 discriminator 5 view .LVU774
.LBB38:
	.loc 1 197 9 discriminator 5 view .LVU775
	.loc 1 197 9 discriminator 5 view .LVU776
.LVL189:
	.loc 1 197 9 discriminator 5 view .LVU777
	.loc 1 197 9 discriminator 5 view .LVU778
	.loc 1 197 9 discriminator 5 view .LVU779
	.loc 1 200 18 discriminator 5 view .LVU780
	.loc 1 200 9 discriminator 5 view .LVU781
	.loc 1 200 11 is_stmt 0 discriminator 5 view .LVU782
	cmp	r9, #0
	movge	r8, r3
	bge	.L97
	b	.L137
.LVL190:
.L104:
.LBB39:
	.loc 1 198 28 is_stmt 1 discriminator 1 view .LVU783
.LDL73:
	.loc 1 198 20 discriminator 1 view .LVU784
	.loc 1 198 10 discriminator 1 view .LVU785
	.loc 1 198 10 discriminator 1 view .LVU786
	.loc 1 198 25 is_stmt 0 discriminator 1 view .LVU787
	mov	r2, r5
	mov	r1, #198
	mov	r0, r6
.LVL191:
	.loc 1 198 25 discriminator 1 view .LVU788
	bl	fb_NullPtrChk
.LVL192:
	.loc 1 198 10 is_stmt 1 discriminator 1 view .LVU789
	.loc 1 198 12 is_stmt 0 discriminator 1 view .LVU790
	cmp	r0, #0
	.loc 1 198 12 discriminator 1 view .LVU791
	bne	.L268
	.loc 1 198 28 is_stmt 1 discriminator 4 view .LVU792
.LDL74:
	.loc 1 198 20 discriminator 4 view .LVU793
	.loc 1 198 10 discriminator 4 view .LVU794
.LVL193:
	.loc 1 198 10 discriminator 4 view .LVU795
	.loc 1 198 25 is_stmt 0 discriminator 4 view .LVU796
	mov	r2, r5
	mov	r1, #198
	mov	r0, r6
.LVL194:
	.loc 1 198 25 discriminator 4 view .LVU797
	bl	fb_NullPtrChk
.LVL195:
	.loc 1 198 10 is_stmt 1 discriminator 4 view .LVU798
	.loc 1 198 12 is_stmt 0 discriminator 4 view .LVU799
	cmp	r0, #0
	.loc 1 198 12 discriminator 4 view .LVU800
	bne	.L269
	.loc 1 198 28 is_stmt 1 discriminator 7 view .LVU801
.LDL75:
	.loc 1 198 20 discriminator 7 view .LVU802
	.loc 1 198 10 discriminator 7 view .LVU803
.LVL196:
	.loc 1 198 10 discriminator 7 view .LVU804
	.loc 1 198 25 is_stmt 0 discriminator 7 view .LVU805
	mov	r2, r5
	mov	r1, #198
	mov	r0, r4
.LVL197:
	.loc 1 198 25 discriminator 7 view .LVU806
	bl	fb_NullPtrChk
.LVL198:
	.loc 1 198 10 is_stmt 1 discriminator 7 view .LVU807
	.loc 1 198 12 is_stmt 0 discriminator 7 view .LVU808
	cmp	r0, #0
	.loc 1 198 12 discriminator 7 view .LVU809
	bne	.L270
	.loc 1 198 28 is_stmt 1 discriminator 10 view .LVU810
.LDL76:
	.loc 1 198 20 discriminator 10 view .LVU811
	.loc 1 198 10 discriminator 10 view .LVU812
	.loc 1 198 25 is_stmt 0 discriminator 10 view .LVU813
	ldrb	r2, [r6, r8]	@ zero_extendqisi2
.LBE39:
	.loc 1 200 13 discriminator 10 view .LVU814
	add	r8, r8, #1
.LVL199:
	.loc 1 200 11 discriminator 10 view .LVU815
	cmp	r9, r8
.LBB40:
	.loc 1 198 110 discriminator 10 view .LVU816
	lsl	r3, r2, #8
	.loc 1 198 73 discriminator 10 view .LVU817
	orr	r3, r3, r2, lsl #16
	.loc 1 198 124 discriminator 10 view .LVU818
	orr	r3, r3, r2
	.loc 1 198 161 discriminator 10 view .LVU819
	orr	r3, r3, #-16777216
	.loc 1 198 20 discriminator 10 view .LVU820
	str	r3, [r4], #4
.LVL200:
	.loc 1 199 10 is_stmt 1 discriminator 10 view .LVU821
.LDL77:
	.loc 1 199 10 is_stmt 0 discriminator 10 view .LVU822
.LBE40:
	.loc 1 200 18 is_stmt 1 discriminator 10 view .LVU823
	.loc 1 200 9 discriminator 10 view .LVU824
.LDL78:
	.loc 1 200 18 discriminator 10 view .LVU825
	.loc 1 200 9 discriminator 10 view .LVU826
	.loc 1 200 11 is_stmt 0 discriminator 10 view .LVU827
	blt	.L137
.LVL201:
.L97:
	.loc 1 200 31 is_stmt 1 discriminator 2 view .LVU828
.LDL79:
	.loc 1 197 18 discriminator 2 view .LVU829
.LBB41:
	.loc 1 197 10 discriminator 2 view .LVU830
	.loc 1 197 10 discriminator 2 view .LVU831
	.loc 1 197 10 discriminator 2 view .LVU832
	.loc 1 197 10 discriminator 2 view .LVU833
	.loc 1 198 10 discriminator 2 view .LVU834
	.loc 1 198 10 discriminator 2 view .LVU835
	.loc 1 198 25 is_stmt 0 discriminator 2 view .LVU836
	mov	r2, r5
	mov	r1, #198
	mov	r0, r6
	bl	fb_NullPtrChk
.LVL202:
	.loc 1 198 10 is_stmt 1 discriminator 2 view .LVU837
	.loc 1 198 12 is_stmt 0 discriminator 2 view .LVU838
	cmp	r0, #0
	.loc 1 198 12 discriminator 2 view .LVU839
	beq	.L104
	.loc 1 198 12 discriminator 2 view .LVU840
.LBE41:
.LBE38:
.LBB42:
.LBB21:
	.loc 1 212 10 is_stmt 1 view .LVU841
	mov	pc, r0	@ indirect register jump
.LVL203:
.L241:
.L30:
	.loc 1 212 10 is_stmt 0 view .LVU842
.LBE21:
.LBE42:
	.loc 1 162 16 is_stmt 1 discriminator 2 view .LVU843
.LBB43:
	.loc 1 162 8 discriminator 2 view .LVU844
.LBB32:
	.loc 1 163 9 discriminator 2 view .LVU845
	.loc 1 163 9 discriminator 2 view .LVU846
	.loc 1 163 9 discriminator 2 view .LVU847
	.loc 1 163 9 discriminator 2 view .LVU848
	.loc 1 163 9 discriminator 2 view .LVU849
	.loc 1 170 18 discriminator 2 view .LVU850
	.loc 1 170 9 discriminator 2 view .LVU851
	.loc 1 170 11 is_stmt 0 discriminator 2 view .LVU852
	cmp	r9, #0
	movlt	r8, r4
	blt	.L53
	.loc 1 170 11 view .LVU853
	mov	r8, r6
.L68:
	.loc 1 170 31 is_stmt 1 discriminator 2 view .LVU854
.LDL80:
	.loc 1 163 18 discriminator 2 view .LVU855
.LBB33:
	.loc 1 163 10 discriminator 2 view .LVU856
	.loc 1 163 10 discriminator 2 view .LVU857
	.loc 1 163 10 discriminator 2 view .LVU858
	.loc 1 163 10 discriminator 2 view .LVU859
	.loc 1 163 10 discriminator 2 view .LVU860
	.loc 1 163 10 discriminator 2 view .LVU861
	.loc 1 163 10 discriminator 2 view .LVU862
	.loc 1 163 10 discriminator 2 view .LVU863
	.loc 1 164 10 discriminator 2 view .LVU864
.LVL204:
	.loc 1 164 10 discriminator 2 view .LVU865
	.loc 1 164 25 is_stmt 0 discriminator 2 view .LVU866
	mov	r2, r5
	mov	r1, #164
	mov	r0, r6
	bl	fb_NullPtrChk
.LVL205:
	.loc 1 164 10 is_stmt 1 discriminator 2 view .LVU867
	.loc 1 164 12 is_stmt 0 discriminator 2 view .LVU868
	cmp	r0, #0
	.loc 1 164 12 discriminator 2 view .LVU869
	bne	.L271
	.loc 1 164 28 is_stmt 1 discriminator 1 view .LVU870
.LDL81:
	.loc 1 164 19 discriminator 1 view .LVU871
	.loc 1 164 10 discriminator 1 view .LVU872
.LVL206:
	.loc 1 164 10 discriminator 1 view .LVU873
	.loc 1 164 25 is_stmt 0 discriminator 1 view .LVU874
	mov	r2, r5
	mov	r1, #164
	mov	r0, r4
.LVL207:
	.loc 1 164 25 discriminator 1 view .LVU875
	bl	fb_NullPtrChk
.LVL208:
	.loc 1 164 10 is_stmt 1 discriminator 1 view .LVU876
	.loc 1 164 12 is_stmt 0 discriminator 1 view .LVU877
	cmp	r0, #0
	.loc 1 164 12 discriminator 1 view .LVU878
	bne	.L272
	.loc 1 164 28 is_stmt 1 discriminator 4 view .LVU879
.LDL82:
	.loc 1 164 19 discriminator 4 view .LVU880
	.loc 1 164 10 discriminator 4 view .LVU881
	.loc 1 164 22 is_stmt 0 discriminator 4 view .LVU882
	ldrb	r3, [r8, #2]	@ zero_extendqisi2
	.loc 1 165 25 discriminator 4 view .LVU883
	mov	r2, r5
	mov	r1, #165
	mov	r0, r6
.LVL209:
	.loc 1 164 20 discriminator 4 view .LVU884
	strb	r3, [r4]
	.loc 1 165 10 is_stmt 1 discriminator 4 view .LVU885
.LVL210:
	.loc 1 165 10 discriminator 4 view .LVU886
	.loc 1 165 25 is_stmt 0 discriminator 4 view .LVU887
	bl	fb_NullPtrChk
.LVL211:
	.loc 1 165 10 is_stmt 1 discriminator 4 view .LVU888
	.loc 1 165 12 is_stmt 0 discriminator 4 view .LVU889
	cmp	r0, #0
	.loc 1 165 12 discriminator 4 view .LVU890
	bne	.L273
	.loc 1 165 28 is_stmt 1 discriminator 1 view .LVU891
.LDL83:
	.loc 1 165 19 discriminator 1 view .LVU892
	.loc 1 165 10 discriminator 1 view .LVU893
.LVL212:
	.loc 1 165 10 discriminator 1 view .LVU894
	.loc 1 165 25 is_stmt 0 discriminator 1 view .LVU895
	mov	r2, r5
	mov	r1, #165
	mov	r0, r4
.LVL213:
	.loc 1 165 25 discriminator 1 view .LVU896
	bl	fb_NullPtrChk
.LVL214:
	.loc 1 165 10 is_stmt 1 discriminator 1 view .LVU897
	.loc 1 165 12 is_stmt 0 discriminator 1 view .LVU898
	cmp	r0, #0
	.loc 1 165 12 discriminator 1 view .LVU899
	bne	.L274
	.loc 1 165 28 is_stmt 1 discriminator 4 view .LVU900
.LDL84:
	.loc 1 165 19 discriminator 4 view .LVU901
	.loc 1 165 10 discriminator 4 view .LVU902
	.loc 1 165 36 is_stmt 0 discriminator 4 view .LVU903
	ldrb	r3, [r8, #1]	@ zero_extendqisi2
	.loc 1 166 25 discriminator 4 view .LVU904
	mov	r2, r5
	mov	r1, #166
	mov	r0, r6
.LVL215:
	.loc 1 165 34 discriminator 4 view .LVU905
	strb	r3, [r4, #1]
	.loc 1 166 10 is_stmt 1 discriminator 4 view .LVU906
.LVL216:
	.loc 1 166 10 discriminator 4 view .LVU907
	.loc 1 166 25 is_stmt 0 discriminator 4 view .LVU908
	bl	fb_NullPtrChk
.LVL217:
	.loc 1 166 10 is_stmt 1 discriminator 4 view .LVU909
	.loc 1 166 12 is_stmt 0 discriminator 4 view .LVU910
	cmp	r0, #0
	.loc 1 166 12 discriminator 4 view .LVU911
	bne	.L275
	.loc 1 166 28 is_stmt 1 discriminator 1 view .LVU912
.LDL85:
	.loc 1 166 19 discriminator 1 view .LVU913
	.loc 1 166 10 discriminator 1 view .LVU914
.LVL218:
	.loc 1 166 10 discriminator 1 view .LVU915
	.loc 1 166 25 is_stmt 0 discriminator 1 view .LVU916
	mov	r2, r5
	mov	r1, #166
	mov	r0, r4
.LVL219:
	.loc 1 166 25 discriminator 1 view .LVU917
	bl	fb_NullPtrChk
.LVL220:
	.loc 1 166 10 is_stmt 1 discriminator 1 view .LVU918
	.loc 1 166 12 is_stmt 0 discriminator 1 view .LVU919
	cmp	r0, #0
	.loc 1 166 12 discriminator 1 view .LVU920
	bne	.L276
	.loc 1 166 28 is_stmt 1 discriminator 4 view .LVU921
.LDL86:
	.loc 1 166 20 discriminator 4 view .LVU922
	.loc 1 166 10 discriminator 4 view .LVU923
	.loc 1 166 36 is_stmt 0 discriminator 4 view .LVU924
	ldrb	r3, [r8]	@ zero_extendqisi2
	.loc 1 167 25 discriminator 4 view .LVU925
	mov	r2, r5
	mov	r1, #167
	mov	r0, r6
.LVL221:
	.loc 1 166 34 discriminator 4 view .LVU926
	strb	r3, [r4, #2]
	.loc 1 167 10 is_stmt 1 discriminator 4 view .LVU927
.LVL222:
	.loc 1 167 10 discriminator 4 view .LVU928
	.loc 1 167 25 is_stmt 0 discriminator 4 view .LVU929
	bl	fb_NullPtrChk
.LVL223:
	.loc 1 167 10 is_stmt 1 discriminator 4 view .LVU930
	.loc 1 167 12 is_stmt 0 discriminator 4 view .LVU931
	cmp	r0, #0
	.loc 1 167 12 discriminator 4 view .LVU932
	bne	.L277
	.loc 1 167 28 is_stmt 1 discriminator 1 view .LVU933
.LDL87:
	.loc 1 167 20 discriminator 1 view .LVU934
	.loc 1 167 10 discriminator 1 view .LVU935
.LVL224:
	.loc 1 167 10 discriminator 1 view .LVU936
	.loc 1 167 25 is_stmt 0 discriminator 1 view .LVU937
	mov	r2, r5
	mov	r1, #167
	mov	r0, r4
.LVL225:
	.loc 1 167 25 discriminator 1 view .LVU938
	bl	fb_NullPtrChk
.LVL226:
	.loc 1 167 10 is_stmt 1 discriminator 1 view .LVU939
	.loc 1 167 12 is_stmt 0 discriminator 1 view .LVU940
	cmp	r0, #0
	.loc 1 167 12 discriminator 1 view .LVU941
	bne	.L278
	.loc 1 167 28 is_stmt 1 discriminator 4 view .LVU942
.LDL88:
	.loc 1 167 20 discriminator 4 view .LVU943
	.loc 1 167 10 discriminator 4 view .LVU944
	.loc 1 167 36 is_stmt 0 discriminator 4 view .LVU945
	ldrb	r3, [r8, #3]	@ zero_extendqisi2
.LBE33:
	.loc 1 170 11 discriminator 4 view .LVU946
	add	r8, r8, #4
.LBB34:
	.loc 1 167 34 discriminator 4 view .LVU947
	strb	r3, [r4, #3]
	.loc 1 169 10 is_stmt 1 discriminator 4 view .LVU948
.LBE34:
	.loc 1 170 11 is_stmt 0 discriminator 4 view .LVU949
	sub	r3, r8, r6
.LBB35:
	.loc 1 169 16 discriminator 4 view .LVU950
	add	r4, r4, #4
.LVL227:
.LDL89:
	.loc 1 169 16 discriminator 4 view .LVU951
.LBE35:
	.loc 1 170 18 is_stmt 1 discriminator 4 view .LVU952
	.loc 1 170 9 discriminator 4 view .LVU953
.LDL90:
	.loc 1 170 18 discriminator 4 view .LVU954
	.loc 1 170 9 discriminator 4 view .LVU955
	.loc 1 170 11 is_stmt 0 discriminator 4 view .LVU956
	cmp	r9, r3
	bge	.L68
.LBB36:
	.loc 1 169 16 view .LVU957
	mov	r8, r4
.LVL228:
.L69:
	.loc 1 169 16 view .LVU958
.LBE36:
.LBE32:
.LBB37:
	.loc 1 175 31 is_stmt 1 discriminator 2 view .LVU959
.LDL91:
	.loc 1 173 18 discriminator 2 view .LVU960
	.loc 1 174 10 discriminator 2 view .LVU961
	.loc 1 174 16 is_stmt 0 discriminator 2 view .LVU962
	sub	r8, r8, #4
.LVL229:
.LDL92:
	.loc 1 175 18 is_stmt 1 discriminator 2 view .LVU963
	.loc 1 175 9 discriminator 2 view .LVU964
.LDL93:
.LDL94:
	.loc 1 175 18 discriminator 2 view .LVU965
	.loc 1 175 9 discriminator 2 view .LVU966
	.loc 1 175 11 is_stmt 0 discriminator 2 view .LVU967
	sub	r3, r4, r8
.LVL230:
	.loc 1 175 11 discriminator 2 view .LVU968
	cmp	r9, r3
	bge	.L69
.LVL231:
.L53:
	.loc 1 175 18 is_stmt 1 discriminator 3 view .LVU969
.LBE37:
	.loc 1 178 8 discriminator 3 view .LVU970
	.loc 1 178 8 discriminator 3 view .LVU971
	.loc 1 178 23 is_stmt 0 discriminator 3 view .LVU972
	mov	r2, r5
	mov	r1, #178
	mov	r0, r7
	bl	fb_NullPtrChk
.LVL232:
	.loc 1 178 8 is_stmt 1 discriminator 3 view .LVU973
	.loc 1 178 10 is_stmt 0 discriminator 3 view .LVU974
	cmp	r0, #0
	.loc 1 178 10 discriminator 3 view .LVU975
	beq	.L198
	b	.L191
.LVL233:
.L238:
	.loc 1 178 10 discriminator 3 view .LVU976
.LBE43:
.LBE48:
	.loc 1 99 28 is_stmt 1 discriminator 1 view .LVU977
.LDL95:
	.loc 1 101 12 discriminator 1 view .LVU978
	.loc 1 104 4 discriminator 1 view .LVU979
	.loc 1 104 4 discriminator 1 view .LVU980
	add	r0, sp, #84
	.loc 1 104 16 is_stmt 0 discriminator 1 view .LVU981
	mov	r7, r6
.LVL234:
	.loc 1 104 4 discriminator 1 view .LVU982
	bl	fb_StrDelete
.LVL235:
	.loc 1 104 4 is_stmt 1 discriminator 1 view .LVU983
	add	r0, sp, #72
	bl	fb_StrDelete
.LVL236:
	.loc 1 104 4 discriminator 1 view .LVU984
	add	r0, sp, #60
	bl	fb_StrDelete
.LVL237:
	.loc 1 104 4 discriminator 1 view .LVU985
	b	.L9
.LVL238:
.L278:
.LBB49:
.LBB44:
.LBB22:
	.loc 1 212 10 view .LVU986
	mov	pc, r0	@ indirect register jump
.LVL239:
.L277:
	.loc 1 212 10 view .LVU987
	mov	pc, r0	@ indirect register jump
.LVL240:
.L276:
	.loc 1 212 10 view .LVU988
	mov	pc, r0	@ indirect register jump
.LVL241:
.L275:
	.loc 1 212 10 view .LVU989
	mov	pc, r0	@ indirect register jump
.LVL242:
.L274:
	.loc 1 212 10 view .LVU990
	mov	pc, r0	@ indirect register jump
.LVL243:
.L273:
	.loc 1 212 10 view .LVU991
	mov	pc, r0	@ indirect register jump
.LVL244:
.L272:
	.loc 1 212 10 view .LVU992
	mov	pc, r0	@ indirect register jump
.LVL245:
.L271:
	.loc 1 212 10 view .LVU993
	mov	pc, r0	@ indirect register jump
.LVL246:
.L270:
	.loc 1 212 10 view .LVU994
	mov	pc, r0	@ indirect register jump
.LVL247:
.L269:
	.loc 1 212 10 view .LVU995
	mov	pc, r0	@ indirect register jump
.LVL248:
.L268:
	.loc 1 212 10 view .LVU996
	mov	pc, r0	@ indirect register jump
.LVL249:
.L267:
	.loc 1 212 10 view .LVU997
	mov	pc, r0	@ indirect register jump
.LVL250:
.L266:
	.loc 1 212 10 view .LVU998
	mov	pc, r0	@ indirect register jump
.LVL251:
.L265:
	.loc 1 212 10 view .LVU999
	mov	pc, r0	@ indirect register jump
.LVL252:
.L264:
	.loc 1 212 10 view .LVU1000
	mov	pc, r0	@ indirect register jump
.LVL253:
.L263:
	.loc 1 212 10 view .LVU1001
	mov	pc, r0	@ indirect register jump
.LVL254:
.L262:
	.loc 1 212 10 view .LVU1002
	mov	pc, r0	@ indirect register jump
.LVL255:
.L261:
	.loc 1 212 10 view .LVU1003
	mov	pc, r0	@ indirect register jump
.LVL256:
.L260:
	.loc 1 212 10 view .LVU1004
	mov	pc, r0	@ indirect register jump
.LVL257:
.L259:
	.loc 1 212 10 discriminator 8 view .LVU1005
	mov	pc, r3	@ indirect register jump
.LVL258:
.L258:
	.loc 1 212 10 view .LVU1006
	mov	pc, r0	@ indirect register jump
.LVL259:
.L257:
	.loc 1 212 10 view .LVU1007
	mov	pc, r0	@ indirect register jump
.LVL260:
.L256:
	.loc 1 212 10 view .LVU1008
	mov	pc, r0	@ indirect register jump
.LVL261:
.L255:
	.loc 1 212 10 view .LVU1009
	mov	pc, r0	@ indirect register jump
.LVL262:
.L254:
	.loc 1 212 10 view .LVU1010
	mov	pc, r0	@ indirect register jump
.LVL263:
.L253:
	.loc 1 212 10 view .LVU1011
	mov	pc, r0	@ indirect register jump
.LVL264:
.L252:
	.loc 1 212 10 view .LVU1012
	mov	pc, r0	@ indirect register jump
.LVL265:
.L251:
	.loc 1 212 10 view .LVU1013
	mov	pc, r0	@ indirect register jump
.LVL266:
.L250:
	.loc 1 212 10 view .LVU1014
	mov	pc, r0	@ indirect register jump
.LVL267:
.L249:
	.loc 1 212 10 view .LVU1015
	mov	pc, r0	@ indirect register jump
.LVL268:
.L248:
	.loc 1 212 10 view .LVU1016
	mov	pc, r0	@ indirect register jump
.LVL269:
.L247:
	.loc 1 212 10 view .LVU1017
	mov	pc, r0	@ indirect register jump
.LVL270:
.L246:
	.loc 1 212 10 view .LVU1018
	mov	pc, r0	@ indirect register jump
.LVL271:
.L245:
	.loc 1 212 10 view .LVU1019
	mov	pc, r0	@ indirect register jump
.LVL272:
.L244:
	.loc 1 212 10 view .LVU1020
	mov	pc, r0	@ indirect register jump
.LVL273:
.L243:
	.loc 1 212 10 view .LVU1021
	mov	pc, r0	@ indirect register jump
.LVL274:
.L242:
	.loc 1 212 10 view .LVU1022
	mov	pc, r0	@ indirect register jump
.LBE22:
.LBE44:
.LBE49:
	.cfi_endproc
.LFE0:
	.size	CHARGER_PNG, .-CHARGER_PNG
	.section	.rodata.str1.4
	.align	2
.LC9:
	.ascii	"{MODLEVEL}\000"
	.section	.text.startup,"ax",%progbits
	.align	2
	.syntax unified
	.arm
	.fpu vfp
	.type	fb_ctor__PNG, %function
fb_ctor__PNG:
.LFB1:
	.loc 1 1 1 view -0
	.cfi_startproc
	@ args = 0, pretend = 0, frame = 0
	@ frame_needed = 0, uses_anonymous_args = 0
.L280:
	.loc 1 1 2 view .LVU1024
	.loc 1 1 2 view .LVU1025
	.loc 1 1 10 view .LVU1026
	.loc 1 1 2 view .LVU1027
	.loc 1 1 1 is_stmt 0 view .LVU1028
	push	{r4, lr}
	.cfi_def_cfa_offset 8
	.cfi_offset 4, -8
	.cfi_offset 14, -4
	.loc 1 1 16 view .LVU1029
	movw	r0, #:lower16:.LC0
	movt	r0, #:upper16:.LC0
	bl	fb_ErrorSetModName
.LVL275:
	mov	r4, r0
	.loc 1 1 16 view .LVU1030
	movw	r0, #:lower16:.LC9
	movt	r0, #:upper16:.LC9
.LVL276:
	.loc 1 1 2 is_stmt 1 view .LVU1031
	.loc 1 1 2 view .LVU1032
	.loc 1 1 16 is_stmt 0 view .LVU1033
	bl	fb_ErrorSetFuncName
.LVL277:
	.loc 1 1 2 is_stmt 1 view .LVU1034
.LDL96:
	.loc 1 23 10 view .LVU1035
	.loc 1 23 2 view .LVU1036
	bl	fb_ErrorSetFuncName
.LVL278:
	.loc 1 23 2 view .LVU1037
	mov	r0, r4
	.loc 1 23 1 is_stmt 0 view .LVU1038
	pop	{r4, lr}
	.cfi_restore 14
	.cfi_restore 4
	.cfi_def_cfa_offset 0
.LVL279:
	.loc 1 23 2 view .LVU1039
	b	fb_ErrorSetModName
.LVL280:
	.loc 1 23 2 view .LVU1040
	.cfi_endproc
.LFE1:
	.size	fb_ctor__PNG, .-fb_ctor__PNG
	.section	.init_array,"aw"
	.align	2
	.word	fb_ctor__PNG
	.text
.Letext0:
	.file 2 "OS2.2/Cpcdos/FBGUI/PNG.c"
	.file 3 "<built-in>"
	.section	.note.GNU-stack,"",%progbits
